SF:/home/builder/project/include/evmmax/evmmax.hpp
FN:67,_ZNK6evmmax8ModArithIN4intx4uintILj256EEEE7to_montERKS3_
FN:81,_ZNK6evmmax8ModArithIN4intx4uintILj256EEEE3mulERKS3_S6_
FN:51,_ZN6evmmax8ModArithIN4intx4uintILj256EEEE6addmulEmmmm
FN:128,_ZNK6evmmax8ModArithIN4intx4uintILj256EEEE3subERKS3_S6_
FN:119,_ZNK6evmmax8ModArithIN4intx4uintILj256EEEE3addERKS3_S6_
FN:137,_ZNK6evmmax8ModArithIN4intx4uintILj256EEEE3invERKS3_
FN:42,_ZN6evmmax8ModArithIN4intx4uintILj256EEEE17compute_r_squaredERKS3_
FN:28,_ZN6evmmax8ModArithIN4intx4uintILj256EEEE15compute_mod_invEm
FN:58,_ZN6evmmax8ModArithIN4intx4uintILj256EEEEC2ERKS3_
FN:73,_ZNK6evmmax8ModArithIN4intx4uintILj256EEEE9from_montERKS3_
FN:58,_ZN6evmmax8ModArithIN4intx4uintILj384EEEEC2ERKS3_
FN:42,_ZN6evmmax8ModArithIN4intx4uintILj384EEEE17compute_r_squaredERKS3_
FN:28,_ZN6evmmax8ModArithIN4intx4uintILj384EEEE15compute_mod_invEm
FN:67,_ZNK6evmmax8ModArithIN4intx4uintILj384EEEE7to_montERKS3_
FN:81,_ZNK6evmmax8ModArithIN4intx4uintILj384EEEE3mulERKS3_S6_
FN:51,_ZN6evmmax8ModArithIN4intx4uintILj384EEEE6addmulEmmmm
FN:73,_ZNK6evmmax8ModArithIN4intx4uintILj384EEEE9from_montERKS3_
FN:119,_ZNK6evmmax8ModArithIN4intx4uintILj384EEEE3addERKS3_S6_
FN:128,_ZNK6evmmax8ModArithIN4intx4uintILj384EEEE3subERKS3_S6_
FN:137,_ZNK6evmmax8ModArithIN4intx4uintILj384EEEE3invERKS3_
FN:58,_ZN6evmmax8ModArithIN4intx4uintILj128EEEEC2ERKS3_
FN:42,_ZN6evmmax8ModArithIN4intx4uintILj128EEEE17compute_r_squaredERKS3_
FN:28,_ZN6evmmax8ModArithIN4intx4uintILj128EEEE15compute_mod_invEm
FN:67,_ZNK6evmmax8ModArithIN4intx4uintILj128EEEE7to_montERKS3_
FN:81,_ZNK6evmmax8ModArithIN4intx4uintILj128EEEE3mulERKS3_S6_
FN:51,_ZN6evmmax8ModArithIN4intx4uintILj128EEEE6addmulEmmmm
FN:73,_ZNK6evmmax8ModArithIN4intx4uintILj128EEEE9from_montERKS3_
FN:58,_ZN6evmmax8ModArithIN4intx4uintILj512EEEEC2ERKS3_
FN:42,_ZN6evmmax8ModArithIN4intx4uintILj512EEEE17compute_r_squaredERKS3_
FN:28,_ZN6evmmax8ModArithIN4intx4uintILj512EEEE15compute_mod_invEm
FN:67,_ZNK6evmmax8ModArithIN4intx4uintILj512EEEE7to_montERKS3_
FN:81,_ZNK6evmmax8ModArithIN4intx4uintILj512EEEE3mulERKS3_S6_
FN:51,_ZN6evmmax8ModArithIN4intx4uintILj512EEEE6addmulEmmmm
FN:73,_ZNK6evmmax8ModArithIN4intx4uintILj512EEEE9from_montERKS3_
FN:58,_ZN6evmmax8ModArithIN4intx4uintILj1024EEEEC2ERKS3_
FN:42,_ZN6evmmax8ModArithIN4intx4uintILj1024EEEE17compute_r_squaredERKS3_
FN:28,_ZN6evmmax8ModArithIN4intx4uintILj1024EEEE15compute_mod_invEm
FN:67,_ZNK6evmmax8ModArithIN4intx4uintILj1024EEEE7to_montERKS3_
FN:81,_ZNK6evmmax8ModArithIN4intx4uintILj1024EEEE3mulERKS3_S6_
FN:51,_ZN6evmmax8ModArithIN4intx4uintILj1024EEEE6addmulEmmmm
FN:73,_ZNK6evmmax8ModArithIN4intx4uintILj1024EEEE9from_montERKS3_
FN:58,_ZN6evmmax8ModArithIN4intx4uintILj2048EEEEC2ERKS3_
FN:42,_ZN6evmmax8ModArithIN4intx4uintILj2048EEEE17compute_r_squaredERKS3_
FN:28,_ZN6evmmax8ModArithIN4intx4uintILj2048EEEE15compute_mod_invEm
FN:67,_ZNK6evmmax8ModArithIN4intx4uintILj2048EEEE7to_montERKS3_
FN:81,_ZNK6evmmax8ModArithIN4intx4uintILj2048EEEE3mulERKS3_S6_
FN:51,_ZN6evmmax8ModArithIN4intx4uintILj2048EEEE6addmulEmmmm
FN:73,_ZNK6evmmax8ModArithIN4intx4uintILj2048EEEE9from_montERKS3_
FN:58,_ZN6evmmax8ModArithIN4intx4uintILj8192EEEEC2ERKS3_
FN:42,_ZN6evmmax8ModArithIN4intx4uintILj8192EEEE17compute_r_squaredERKS3_
FN:28,_ZN6evmmax8ModArithIN4intx4uintILj8192EEEE15compute_mod_invEm
FN:67,_ZNK6evmmax8ModArithIN4intx4uintILj8192EEEE7to_montERKS3_
FN:81,_ZNK6evmmax8ModArithIN4intx4uintILj8192EEEE3mulERKS3_S6_
FN:51,_ZN6evmmax8ModArithIN4intx4uintILj8192EEEE6addmulEmmmm
FN:73,_ZNK6evmmax8ModArithIN4intx4uintILj8192EEEE9from_montERKS3_
FNDA:54518,_ZNK6evmmax8ModArithIN4intx4uintILj256EEEE7to_montERKS3_
FNDA:40674616,_ZNK6evmmax8ModArithIN4intx4uintILj256EEEE3mulERKS3_S6_
FNDA:1301587712,_ZN6evmmax8ModArithIN4intx4uintILj256EEEE6addmulEmmmm
FNDA:23975972,_ZNK6evmmax8ModArithIN4intx4uintILj256EEEE3subERKS3_S6_
FNDA:38554056,_ZNK6evmmax8ModArithIN4intx4uintILj256EEEE3addERKS3_S6_
FNDA:8464,_ZNK6evmmax8ModArithIN4intx4uintILj256EEEE3invERKS3_
FNDA:2094,_ZN6evmmax8ModArithIN4intx4uintILj256EEEE17compute_r_squaredERKS3_
FNDA:2094,_ZN6evmmax8ModArithIN4intx4uintILj256EEEE15compute_mod_invEm
FNDA:2094,_ZN6evmmax8ModArithIN4intx4uintILj256EEEEC2ERKS3_
FNDA:20302,_ZNK6evmmax8ModArithIN4intx4uintILj256EEEE9from_montERKS3_
FNDA:0,_ZN6evmmax8ModArithIN4intx4uintILj384EEEEC2ERKS3_
FNDA:0,_ZN6evmmax8ModArithIN4intx4uintILj384EEEE17compute_r_squaredERKS3_
FNDA:0,_ZN6evmmax8ModArithIN4intx4uintILj384EEEE15compute_mod_invEm
FNDA:0,_ZNK6evmmax8ModArithIN4intx4uintILj384EEEE7to_montERKS3_
FNDA:0,_ZNK6evmmax8ModArithIN4intx4uintILj384EEEE3mulERKS3_S6_
FNDA:0,_ZN6evmmax8ModArithIN4intx4uintILj384EEEE6addmulEmmmm
FNDA:0,_ZNK6evmmax8ModArithIN4intx4uintILj384EEEE9from_montERKS3_
FNDA:0,_ZNK6evmmax8ModArithIN4intx4uintILj384EEEE3addERKS3_S6_
FNDA:0,_ZNK6evmmax8ModArithIN4intx4uintILj384EEEE3subERKS3_S6_
FNDA:0,_ZNK6evmmax8ModArithIN4intx4uintILj384EEEE3invERKS3_
FNDA:590,_ZN6evmmax8ModArithIN4intx4uintILj128EEEEC2ERKS3_
FNDA:590,_ZN6evmmax8ModArithIN4intx4uintILj128EEEE17compute_r_squaredERKS3_
FNDA:590,_ZN6evmmax8ModArithIN4intx4uintILj128EEEE15compute_mod_invEm
FNDA:1180,_ZNK6evmmax8ModArithIN4intx4uintILj128EEEE7to_montERKS3_
FNDA:259742,_ZNK6evmmax8ModArithIN4intx4uintILj128EEEE3mulERKS3_S6_
FNDA:2077936,_ZN6evmmax8ModArithIN4intx4uintILj128EEEE6addmulEmmmm
FNDA:590,_ZNK6evmmax8ModArithIN4intx4uintILj128EEEE9from_montERKS3_
FNDA:551,_ZN6evmmax8ModArithIN4intx4uintILj512EEEEC2ERKS3_
FNDA:551,_ZN6evmmax8ModArithIN4intx4uintILj512EEEE17compute_r_squaredERKS3_
FNDA:551,_ZN6evmmax8ModArithIN4intx4uintILj512EEEE15compute_mod_invEm
FNDA:1102,_ZNK6evmmax8ModArithIN4intx4uintILj512EEEE7to_montERKS3_
FNDA:74280,_ZNK6evmmax8ModArithIN4intx4uintILj512EEEE3mulERKS3_S6_
FNDA:9507840,_ZN6evmmax8ModArithIN4intx4uintILj512EEEE6addmulEmmmm
FNDA:551,_ZNK6evmmax8ModArithIN4intx4uintILj512EEEE9from_montERKS3_
FNDA:42,_ZN6evmmax8ModArithIN4intx4uintILj1024EEEEC2ERKS3_
FNDA:42,_ZN6evmmax8ModArithIN4intx4uintILj1024EEEE17compute_r_squaredERKS3_
FNDA:42,_ZN6evmmax8ModArithIN4intx4uintILj1024EEEE15compute_mod_invEm
FNDA:84,_ZNK6evmmax8ModArithIN4intx4uintILj1024EEEE7to_montERKS3_
FNDA:756,_ZNK6evmmax8ModArithIN4intx4uintILj1024EEEE3mulERKS3_S6_
FNDA:387072,_ZN6evmmax8ModArithIN4intx4uintILj1024EEEE6addmulEmmmm
FNDA:42,_ZNK6evmmax8ModArithIN4intx4uintILj1024EEEE9from_montERKS3_
FNDA:70,_ZN6evmmax8ModArithIN4intx4uintILj2048EEEEC2ERKS3_
FNDA:70,_ZN6evmmax8ModArithIN4intx4uintILj2048EEEE17compute_r_squaredERKS3_
FNDA:70,_ZN6evmmax8ModArithIN4intx4uintILj2048EEEE15compute_mod_invEm
FNDA:140,_ZNK6evmmax8ModArithIN4intx4uintILj2048EEEE7to_montERKS3_
FNDA:44464,_ZNK6evmmax8ModArithIN4intx4uintILj2048EEEE3mulERKS3_S6_
FNDA:91062272,_ZN6evmmax8ModArithIN4intx4uintILj2048EEEE6addmulEmmmm
FNDA:70,_ZNK6evmmax8ModArithIN4intx4uintILj2048EEEE9from_montERKS3_
FNDA:156,_ZN6evmmax8ModArithIN4intx4uintILj8192EEEEC2ERKS3_
FNDA:156,_ZN6evmmax8ModArithIN4intx4uintILj8192EEEE17compute_r_squaredERKS3_
FNDA:156,_ZN6evmmax8ModArithIN4intx4uintILj8192EEEE15compute_mod_invEm
FNDA:312,_ZNK6evmmax8ModArithIN4intx4uintILj8192EEEE7to_montERKS3_
FNDA:2120,_ZNK6evmmax8ModArithIN4intx4uintILj8192EEEE3mulERKS3_S6_
FNDA:69468160,_ZN6evmmax8ModArithIN4intx4uintILj8192EEEE6addmulEmmmm
FNDA:156,_ZNK6evmmax8ModArithIN4intx4uintILj8192EEEE9from_montERKS3_
FNF:10
FNH:10
DA:28,3503
DA:30,3503
DA:31,3503
DA:32,227695
DA:33,224192
DA:34,224192
DA:35,224192
DA:36,224192
DA:37,3503
DA:38,3503
DA:42,3503
DA:45,3503
DA:46,3503
DA:47,3503
DA:51,1474090992
DA:52,1474090992
DA:53,1474090992
DA:54,1474090992
DA:58,3503
DA:59,3503
DA:60,3503
DA:61,3503
DA:67,57336
DA:73,21711
DA:81,41055978
DA:87,41055978
DA:89,41055978
DA:90,206574470
DA:91,165518492
DA:92,165518492
DA:93,165518492
DA:94,902563988
DA:95,737045496
DA:96,165518492
DA:97,165518492
DA:98,165518492
DA:100,165518492
DA:101,165518492
DA:102,165518492
DA:103,737045496
DA:104,571527004
DA:105,165518492
DA:106,165518492
DA:107,165518492
DA:108,165518492
DA:110,41055978
DA:111,3424600
DA:113,41055978
DA:114,41055978
DA:119,38554056
DA:120,38554056
DA:121,38554056
DA:122,38554056
DA:123,38554056
DA:128,23975972
DA:129,23975972
DA:130,23975972
DA:131,23975972
DA:132,23975972
DA:137,8464
DA:138,8464
DA:139,8464
DA:145,8464
DA:153,8464
DA:154,8464
DA:160,8464
DA:161,8464
DA:163,2060144
DA:164,2051680
DA:165,2051680
DA:166,1119942
DA:168,1119942
DA:169,588780
DA:171,588780
DA:172,588780
DA:174,588780
DA:175,588780
DA:176,588780
DA:177,531162
DA:178,531162
DA:179,531162
DA:180,531162
DA:181,1119942
DA:182,1119942
DA:185,2051680
DA:189,2051680
DA:190,2051680
DA:191,2051680
DA:192,1021188
DA:193,2051680
DA:195,8464
DA:196,2578
DA:197,5886
DA:198,8464
BRDA:32,0,0,35264
BRDA:32,0,1,551
BRDA:32,1,2,4480
BRDA:32,1,3,70
BRDA:32,2,4,-
BRDA:32,2,5,-
BRDA:32,3,6,134016
BRDA:32,3,7,2094
BRDA:32,4,8,2688
BRDA:32,4,9,42
BRDA:32,5,10,37760
BRDA:32,5,11,590
BRDA:32,6,12,9984
BRDA:32,6,13,156
BRDA:90,0,0,271360
BRDA:90,0,1,2120
BRDA:90,1,2,519484
BRDA:90,1,3,259742
BRDA:90,2,4,1422848
BRDA:90,2,5,44464
BRDA:90,3,6,162698464
BRDA:90,3,7,40674616
BRDA:90,4,8,594240
BRDA:90,4,9,74280
BRDA:90,5,10,-
BRDA:90,5,11,-
BRDA:90,6,12,12096
BRDA:90,6,13,756
BRDA:94,0,0,4753920
BRDA:94,0,1,594240
BRDA:94,1,2,1038968
BRDA:94,1,3,519484
BRDA:94,2,4,193536
BRDA:94,2,5,12096
BRDA:94,3,6,650793856
BRDA:94,3,7,162698464
BRDA:94,4,8,-
BRDA:94,4,9,-
BRDA:94,5,10,45531136
BRDA:94,5,11,1422848
BRDA:94,6,12,34734080
BRDA:94,6,13,271360
BRDA:103,0,0,181440
BRDA:103,0,1,12096
BRDA:103,1,2,-
BRDA:103,1,3,-
BRDA:103,2,4,4159680
BRDA:103,2,5,594240
BRDA:103,3,6,44108288
BRDA:103,3,7,1422848
BRDA:103,4,8,34462720
BRDA:103,4,9,271360
BRDA:103,5,10,519484
BRDA:103,5,11,519484
BRDA:103,6,12,488095392
BRDA:103,6,13,162698464
BRDA:110,0,0,140
BRDA:110,0,1,616
BRDA:110,1,2,280
BRDA:110,1,3,74000
BRDA:110,2,4,322
BRDA:110,2,5,44142
BRDA:110,3,6,72
BRDA:110,3,7,2048
BRDA:110,4,8,-
BRDA:110,4,9,-
BRDA:110,5,10,3423576
BRDA:110,5,11,37251040
BRDA:110,6,12,210
BRDA:110,6,13,259532
BRDA:122,0,0,-
BRDA:122,0,1,-
BRDA:122,1,2,33673626
BRDA:122,1,3,4880430
BRDA:122,2,4,-
BRDA:122,2,5,-
BRDA:122,3,6,20724674
BRDA:122,3,7,12948952
BRDA:131,0,0,-
BRDA:131,0,1,-
BRDA:131,1,2,11202490
BRDA:131,1,3,12773482
BRDA:163,0,0,-
BRDA:163,0,1,-
BRDA:163,1,2,2051680
BRDA:163,1,3,8464
BRDA:165,0,0,-
BRDA:165,0,1,-
BRDA:165,1,2,1119942
BRDA:165,1,3,931738
BRDA:168,0,0,-
BRDA:168,0,1,-
BRDA:168,1,2,588780
BRDA:168,1,3,531162
BRDA:191,0,0,-
BRDA:191,0,1,-
BRDA:191,1,2,1021188
BRDA:191,1,3,1030492
BRDA:195,0,0,2578
BRDA:195,0,1,5886
BRDA:195,1,2,-
BRDA:195,1,3,-
BRF:26
BRH:26
LF:94
LH:94
end_of_record
SF:/home/builder/project/lib/evmone/baseline.hpp
FN:25,_ZN6evmone10BitsetSpanC2EPm
FN:28,_ZNK6evmone10BitsetSpan4testEm
FN:34,_ZNK6evmone10BitsetSpan3setEm
FN:47,_ZNK6evmone10BitsetSpan7get_refEm
FN:73,_ZN6evmone8baseline12CodeAnalysisC2ESt10unique_ptrIA_hSt14default_deleteIS3_EEmNS_10BitsetSpanE
FN:81,_ZN6evmone8baseline12CodeAnalysisC2ESt17basic_string_viewIhN4evmc11byte_traitsIhEEES6_NS_10EOF1HeaderE
FN:85,_ZNK6evmone8baseline12CodeAnalysis8raw_codeEv
FN:88,_ZNK6evmone8baseline12CodeAnalysis15executable_codeEv
FN:91,_ZNK6evmone8baseline12CodeAnalysis10eof_headerEv
FN:94,_ZNK6evmone8baseline12CodeAnalysis8eof_dataEv
FN:98,_ZNK6evmone8baseline12CodeAnalysis14check_jumpdestEm
FNDA:2751709,_ZN6evmone10BitsetSpanC2EPm
FNDA:6960598,_ZNK6evmone10BitsetSpan4testEm
FNDA:88484341,_ZNK6evmone10BitsetSpan3setEm
FNDA:95444939,_ZNK6evmone10BitsetSpan7get_refEm
FNDA:2751709,_ZN6evmone8baseline12CodeAnalysisC2ESt10unique_ptrIA_hSt14default_deleteIS3_EEmNS_10BitsetSpanE
FNDA:0,_ZN6evmone8baseline12CodeAnalysisC2ESt17basic_string_viewIhN4evmc11byte_traitsIhEEES6_NS_10EOF1HeaderE
FNDA:2751709,_ZNK6evmone8baseline12CodeAnalysis8raw_codeEv
FNDA:15207635,_ZNK6evmone8baseline12CodeAnalysis15executable_codeEv
FNDA:2751709,_ZNK6evmone8baseline12CodeAnalysis10eof_headerEv
FNDA:0,_ZNK6evmone8baseline12CodeAnalysis8eof_dataEv
FNDA:6960676,_ZNK6evmone8baseline12CodeAnalysis14check_jumpdestEm
FNF:11
FNH:9
DA:25,2751709
DA:28,6960598
DA:29,6960598
DA:30,6960598
DA:31,6960598
DA:34,88484341
DA:35,88484341
DA:36,88484341
DA:37,88484341
DA:47,95444939
DA:48,95444939
DA:49,95444939
DA:50,95444939
DA:51,95444939
DA:52,95444939
DA:73,2751709
DA:74,2751709
DA:75,2751709
DA:76,2751709
DA:77,2751709
DA:81,0
DA:82,0
DA:85,2751709
DA:88,15207635
DA:91,2751709
DA:94,0
DA:98,6960676
DA:99,6960676
DA:100,78
DA:101,6960598
DA:102,6960676
BRDA:99,0,0,78
BRDA:99,0,1,6960598
BRF:2
BRH:2
LF:31
LH:28
end_of_record
SF:/home/builder/project/lib/evmone/baseline_analysis.cpp
FN:80,_ZN6evmone8baseline7analyzeESt17basic_string_viewIhN4evmc11byte_traitsIhEEEb
FN:64,baseline_analysis.cpp:_ZN6evmone8baseline12_GLOBAL__N_112analyze_eof1ESt17basic_string_viewIhN4evmc11byte_traitsIhEEE
FN:37,baseline_analysis.cpp:_ZN6evmone8baseline12_GLOBAL__N_114analyze_legacyESt17basic_string_viewIhN4evmc11byte_traitsIhEEE
FN:20,baseline_analysis.cpp:_ZN6evmone8baseline12_GLOBAL__N_117analyze_jumpdestsENS_10BitsetSpanESt17basic_string_viewIhN4evmc11byte_traitsIhEEE
FNDA:2751709,_ZN6evmone8baseline7analyzeESt17basic_string_viewIhN4evmc11byte_traitsIhEEEb
FNDA:0,baseline_analysis.cpp:_ZN6evmone8baseline12_GLOBAL__N_112analyze_eof1ESt17basic_string_viewIhN4evmc11byte_traitsIhEEE
FNDA:2751709,baseline_analysis.cpp:_ZN6evmone8baseline12_GLOBAL__N_114analyze_legacyESt17basic_string_viewIhN4evmc11byte_traitsIhEEE
FNDA:2751709,baseline_analysis.cpp:_ZN6evmone8baseline12_GLOBAL__N_117analyze_jumpdestsENS_10BitsetSpanESt17basic_string_viewIhN4evmc11byte_traitsIhEEE
FNF:4
FNH:3
DA:20,2751709
DA:24,2751709
DA:26,377147979
DA:27,374396270
DA:28,374396270
DA:29,374396270
DA:30,64225003
DA:31,310171267
DA:32,88484341
DA:33,374396270
DA:34,2751709
DA:37,2751709
DA:41,2751709
DA:43,2751709
DA:45,2751709
DA:46,2751709
DA:47,2751709
DA:48,2751709
DA:49,2751709
DA:51,2751709
DA:52,2751709
DA:53,2751709
DA:55,2751709
DA:56,2751709
DA:57,2751709
DA:58,2751709
DA:60,2751709
DA:61,2751709
DA:64,0
DA:65,0
DA:70,0
DA:71,0
DA:72,0
DA:73,0
DA:75,0
DA:76,0
DA:80,2751709
DA:81,2751709
DA:82,0
DA:83,2751709
DA:84,2751709
BRDA:26,0,0,374396270
BRDA:26,0,1,2751709
BRDA:29,0,0,64225003
BRDA:29,0,1,310171267
BRDA:31,0,0,88484341
BRDA:31,0,1,221686926
BRDA:81,0,0,0
BRDA:81,0,1,2751709
BRDA:81,1,2,-
BRDA:81,1,3,-
BRF:10
BRH:7
LF:41
LH:32
end_of_record
SF:/home/builder/project/lib/evmone/baseline_execution.cpp
FN:292,_ZN6evmone8baseline7executeERNS_2VMERK19evmc_host_interfaceP17evmc_host_context13evmc_revisionRK12evmc_messageRKNS0_12CodeAnalysisE
FN:340,_ZN6evmone8baseline7executeEP7evmc_vmPK19evmc_host_interfaceP17evmc_host_context13evmc_revisionPK12evmc_messagePKhm
FN:244,baseline_execution.cpp:_ZN6evmone8baseline12_GLOBAL__N_114dispatch_cgotoERKSt5arrayIsLm256EERNS_14ExecutionStateElPKh
FN:176,baseline_execution.cpp:_ZN6evmone8baseline12_GLOBAL__N_16invokeILNS_6OpcodeE0EEENS1_8PositionERKSt5arrayIsLm256EEPKN4intx4uintILj256EEES4_RlRNS_14ExecutionStateE
FN:47,baseline_execution.cpp:_ZN6evmone8baseline12_GLOBAL__N_118check_requirementsILNS_6OpcodeE0EEE16evmc_status_codeRKSt5arrayIsLm256EERlPKN4intx4uintILj256EEESE_
FN:141,baseline_execution.cpp:_ZN6evmone8baseline12_GLOBAL__N_16invokeEPDoFNS_10TermResultENS_8StackTopElRNS_14ExecutionStateEENS1_8PositionERlS5_
FN:176,baseline_execution.cpp:_ZN6evmone8baseline12_GLOBAL__N_16invokeILNS_6OpcodeE1EEENS1_8PositionERKSt5arrayIsLm256EEPKN4intx4uintILj256EEES4_RlRNS_14ExecutionStateE
FN:47,baseline_execution.cpp:_ZN6evmone8baseline12_GLOBAL__N_118check_requirementsILNS_6OpcodeE1EEE16evmc_status_codeRKSt5arrayIsLm256EERlPKN4intx4uintILj256EEESE_
FN:98,baseline_execution.cpp:_ZN6evmone8baseline12_GLOBAL__N_16invokeEPDoFvNS_8StackTopEENS1_8PositionERlRNS_14ExecutionStateE
FN:176,baseline_execution.cpp:_ZN6evmone8baseline12_GLOBAL__N_16invokeILNS_6OpcodeE2EEENS1_8PositionERKSt5arrayIsLm256EEPKN4intx4uintILj256EEES4_RlRNS_14ExecutionStateE
FN:47,baseline_execution.cpp:_ZN6evmone8baseline12_GLOBAL__N_118check_requirementsILNS_6OpcodeE2EEE16evmc_status_codeRKSt5arrayIsLm256EERlPKN4intx4uintILj256EEESE_
FN:176,baseline_execution.cpp:_ZN6evmone8baseline12_GLOBAL__N_16invokeILNS_6OpcodeE3EEENS1_8PositionERKSt5arrayIsLm256EEPKN4intx4uintILj256EEES4_RlRNS_14ExecutionStateE
FN:47,baseline_execution.cpp:_ZN6evmone8baseline12_GLOBAL__N_118check_requirementsILNS_6OpcodeE3EEE16evmc_status_codeRKSt5arrayIsLm256EERlPKN4intx4uintILj256EEESE_
FN:176,baseline_execution.cpp:_ZN6evmone8baseline12_GLOBAL__N_16invokeILNS_6OpcodeE4EEENS1_8PositionERKSt5arrayIsLm256EEPKN4intx4uintILj256EEES4_RlRNS_14ExecutionStateE
FN:47,baseline_execution.cpp:_ZN6evmone8baseline12_GLOBAL__N_118check_requirementsILNS_6OpcodeE4EEE16evmc_status_codeRKSt5arrayIsLm256EERlPKN4intx4uintILj256EEESE_
FN:176,baseline_execution.cpp:_ZN6evmone8baseline12_GLOBAL__N_16invokeILNS_6OpcodeE5EEENS1_8PositionERKSt5arrayIsLm256EEPKN4intx4uintILj256EEES4_RlRNS_14ExecutionStateE
FN:47,baseline_execution.cpp:_ZN6evmone8baseline12_GLOBAL__N_118check_requirementsILNS_6OpcodeE5EEE16evmc_status_codeRKSt5arrayIsLm256EERlPKN4intx4uintILj256EEESE_
FN:176,baseline_execution.cpp:_ZN6evmone8baseline12_GLOBAL__N_16invokeILNS_6OpcodeE6EEENS1_8PositionERKSt5arrayIsLm256EEPKN4intx4uintILj256EEES4_RlRNS_14ExecutionStateE
FN:47,baseline_execution.cpp:_ZN6evmone8baseline12_GLOBAL__N_118check_requirementsILNS_6OpcodeE6EEE16evmc_status_codeRKSt5arrayIsLm256EERlPKN4intx4uintILj256EEESE_
FN:176,baseline_execution.cpp:_ZN6evmone8baseline12_GLOBAL__N_16invokeILNS_6OpcodeE7EEENS1_8PositionERKSt5arrayIsLm256EEPKN4intx4uintILj256EEES4_RlRNS_14ExecutionStateE
FN:47,baseline_execution.cpp:_ZN6evmone8baseline12_GLOBAL__N_118check_requirementsILNS_6OpcodeE7EEE16evmc_status_codeRKSt5arrayIsLm256EERlPKN4intx4uintILj256EEESE_
FN:176,baseline_execution.cpp:_ZN6evmone8baseline12_GLOBAL__N_16invokeILNS_6OpcodeE8EEENS1_8PositionERKSt5arrayIsLm256EEPKN4intx4uintILj256EEES4_RlRNS_14ExecutionStateE
FN:47,baseline_execution.cpp:_ZN6evmone8baseline12_GLOBAL__N_118check_requirementsILNS_6OpcodeE8EEE16evmc_status_codeRKSt5arrayIsLm256EERlPKN4intx4uintILj256EEESE_
FN:176,baseline_execution.cpp:_ZN6evmone8baseline12_GLOBAL__N_16invokeILNS_6OpcodeE9EEENS1_8PositionERKSt5arrayIsLm256EEPKN4intx4uintILj256EEES4_RlRNS_14ExecutionStateE
FN:47,baseline_execution.cpp:_ZN6evmone8baseline12_GLOBAL__N_118check_requirementsILNS_6OpcodeE9EEE16evmc_status_codeRKSt5arrayIsLm256EERlPKN4intx4uintILj256EEESE_
FN:176,baseline_execution.cpp:_ZN6evmone8baseline12_GLOBAL__N_16invokeILNS_6OpcodeE10EEENS1_8PositionERKSt5arrayIsLm256EEPKN4intx4uintILj256EEES4_RlRNS_14ExecutionStateE
FN:47,baseline_execution.cpp:_ZN6evmone8baseline12_GLOBAL__N_118check_requirementsILNS_6OpcodeE10EEE16evmc_status_codeRKSt5arrayIsLm256EERlPKN4intx4uintILj256EEESE_
FN:106,baseline_execution.cpp:_ZN6evmone8baseline12_GLOBAL__N_16invokeEPDoFNS_6ResultENS_8StackTopElRNS_14ExecutionStateEENS1_8PositionERlS5_
FN:176,baseline_execution.cpp:_ZN6evmone8baseline12_GLOBAL__N_16invokeILNS_6OpcodeE11EEENS1_8PositionERKSt5arrayIsLm256EEPKN4intx4uintILj256EEES4_RlRNS_14ExecutionStateE
FN:47,baseline_execution.cpp:_ZN6evmone8baseline12_GLOBAL__N_118check_requirementsILNS_6OpcodeE11EEE16evmc_status_codeRKSt5arrayIsLm256EERlPKN4intx4uintILj256EEESE_
FN:176,baseline_execution.cpp:_ZN6evmone8baseline12_GLOBAL__N_16invokeILNS_6OpcodeE16EEENS1_8PositionERKSt5arrayIsLm256EEPKN4intx4uintILj256EEES4_RlRNS_14ExecutionStateE
FN:47,baseline_execution.cpp:_ZN6evmone8baseline12_GLOBAL__N_118check_requirementsILNS_6OpcodeE16EEE16evmc_status_codeRKSt5arrayIsLm256EERlPKN4intx4uintILj256EEESE_
FN:176,baseline_execution.cpp:_ZN6evmone8baseline12_GLOBAL__N_16invokeILNS_6OpcodeE17EEENS1_8PositionERKSt5arrayIsLm256EEPKN4intx4uintILj256EEES4_RlRNS_14ExecutionStateE
FN:47,baseline_execution.cpp:_ZN6evmone8baseline12_GLOBAL__N_118check_requirementsILNS_6OpcodeE17EEE16evmc_status_codeRKSt5arrayIsLm256EERlPKN4intx4uintILj256EEESE_
FN:176,baseline_execution.cpp:_ZN6evmone8baseline12_GLOBAL__N_16invokeILNS_6OpcodeE18EEENS1_8PositionERKSt5arrayIsLm256EEPKN4intx4uintILj256EEES4_RlRNS_14ExecutionStateE
FN:47,baseline_execution.cpp:_ZN6evmone8baseline12_GLOBAL__N_118check_requirementsILNS_6OpcodeE18EEE16evmc_status_codeRKSt5arrayIsLm256EERlPKN4intx4uintILj256EEESE_
FN:176,baseline_execution.cpp:_ZN6evmone8baseline12_GLOBAL__N_16invokeILNS_6OpcodeE19EEENS1_8PositionERKSt5arrayIsLm256EEPKN4intx4uintILj256EEES4_RlRNS_14ExecutionStateE
FN:47,baseline_execution.cpp:_ZN6evmone8baseline12_GLOBAL__N_118check_requirementsILNS_6OpcodeE19EEE16evmc_status_codeRKSt5arrayIsLm256EERlPKN4intx4uintILj256EEESE_
FN:176,baseline_execution.cpp:_ZN6evmone8baseline12_GLOBAL__N_16invokeILNS_6OpcodeE20EEENS1_8PositionERKSt5arrayIsLm256EEPKN4intx4uintILj256EEES4_RlRNS_14ExecutionStateE
FN:47,baseline_execution.cpp:_ZN6evmone8baseline12_GLOBAL__N_118check_requirementsILNS_6OpcodeE20EEE16evmc_status_codeRKSt5arrayIsLm256EERlPKN4intx4uintILj256EEESE_
FN:176,baseline_execution.cpp:_ZN6evmone8baseline12_GLOBAL__N_16invokeILNS_6OpcodeE21EEENS1_8PositionERKSt5arrayIsLm256EEPKN4intx4uintILj256EEES4_RlRNS_14ExecutionStateE
FN:47,baseline_execution.cpp:_ZN6evmone8baseline12_GLOBAL__N_118check_requirementsILNS_6OpcodeE21EEE16evmc_status_codeRKSt5arrayIsLm256EERlPKN4intx4uintILj256EEESE_
FN:176,baseline_execution.cpp:_ZN6evmone8baseline12_GLOBAL__N_16invokeILNS_6OpcodeE22EEENS1_8PositionERKSt5arrayIsLm256EEPKN4intx4uintILj256EEES4_RlRNS_14ExecutionStateE
FN:47,baseline_execution.cpp:_ZN6evmone8baseline12_GLOBAL__N_118check_requirementsILNS_6OpcodeE22EEE16evmc_status_codeRKSt5arrayIsLm256EERlPKN4intx4uintILj256EEESE_
FN:176,baseline_execution.cpp:_ZN6evmone8baseline12_GLOBAL__N_16invokeILNS_6OpcodeE23EEENS1_8PositionERKSt5arrayIsLm256EEPKN4intx4uintILj256EEES4_RlRNS_14ExecutionStateE
FN:47,baseline_execution.cpp:_ZN6evmone8baseline12_GLOBAL__N_118check_requirementsILNS_6OpcodeE23EEE16evmc_status_codeRKSt5arrayIsLm256EERlPKN4intx4uintILj256EEESE_
FN:176,baseline_execution.cpp:_ZN6evmone8baseline12_GLOBAL__N_16invokeILNS_6OpcodeE24EEENS1_8PositionERKSt5arrayIsLm256EEPKN4intx4uintILj256EEES4_RlRNS_14ExecutionStateE
FN:47,baseline_execution.cpp:_ZN6evmone8baseline12_GLOBAL__N_118check_requirementsILNS_6OpcodeE24EEE16evmc_status_codeRKSt5arrayIsLm256EERlPKN4intx4uintILj256EEESE_
FN:176,baseline_execution.cpp:_ZN6evmone8baseline12_GLOBAL__N_16invokeILNS_6OpcodeE25EEENS1_8PositionERKSt5arrayIsLm256EEPKN4intx4uintILj256EEES4_RlRNS_14ExecutionStateE
FN:47,baseline_execution.cpp:_ZN6evmone8baseline12_GLOBAL__N_118check_requirementsILNS_6OpcodeE25EEE16evmc_status_codeRKSt5arrayIsLm256EERlPKN4intx4uintILj256EEESE_
FN:176,baseline_execution.cpp:_ZN6evmone8baseline12_GLOBAL__N_16invokeILNS_6OpcodeE26EEENS1_8PositionERKSt5arrayIsLm256EEPKN4intx4uintILj256EEES4_RlRNS_14ExecutionStateE
FN:47,baseline_execution.cpp:_ZN6evmone8baseline12_GLOBAL__N_118check_requirementsILNS_6OpcodeE26EEE16evmc_status_codeRKSt5arrayIsLm256EERlPKN4intx4uintILj256EEESE_
FN:176,baseline_execution.cpp:_ZN6evmone8baseline12_GLOBAL__N_16invokeILNS_6OpcodeE27EEENS1_8PositionERKSt5arrayIsLm256EEPKN4intx4uintILj256EEES4_RlRNS_14ExecutionStateE
FN:47,baseline_execution.cpp:_ZN6evmone8baseline12_GLOBAL__N_118check_requirementsILNS_6OpcodeE27EEE16evmc_status_codeRKSt5arrayIsLm256EERlPKN4intx4uintILj256EEESE_
FN:176,baseline_execution.cpp:_ZN6evmone8baseline12_GLOBAL__N_16invokeILNS_6OpcodeE28EEENS1_8PositionERKSt5arrayIsLm256EEPKN4intx4uintILj256EEES4_RlRNS_14ExecutionStateE
FN:47,baseline_execution.cpp:_ZN6evmone8baseline12_GLOBAL__N_118check_requirementsILNS_6OpcodeE28EEE16evmc_status_codeRKSt5arrayIsLm256EERlPKN4intx4uintILj256EEESE_
FN:176,baseline_execution.cpp:_ZN6evmone8baseline12_GLOBAL__N_16invokeILNS_6OpcodeE29EEENS1_8PositionERKSt5arrayIsLm256EEPKN4intx4uintILj256EEES4_RlRNS_14ExecutionStateE
FN:47,baseline_execution.cpp:_ZN6evmone8baseline12_GLOBAL__N_118check_requirementsILNS_6OpcodeE29EEE16evmc_status_codeRKSt5arrayIsLm256EERlPKN4intx4uintILj256EEESE_
FN:176,baseline_execution.cpp:_ZN6evmone8baseline12_GLOBAL__N_16invokeILNS_6OpcodeE30EEENS1_8PositionERKSt5arrayIsLm256EEPKN4intx4uintILj256EEES4_RlRNS_14ExecutionStateE
FN:47,baseline_execution.cpp:_ZN6evmone8baseline12_GLOBAL__N_118check_requirementsILNS_6OpcodeE30EEE16evmc_status_codeRKSt5arrayIsLm256EERlPKN4intx4uintILj256EEESE_
FN:176,baseline_execution.cpp:_ZN6evmone8baseline12_GLOBAL__N_16invokeILNS_6OpcodeE32EEENS1_8PositionERKSt5arrayIsLm256EEPKN4intx4uintILj256EEES4_RlRNS_14ExecutionStateE
FN:47,baseline_execution.cpp:_ZN6evmone8baseline12_GLOBAL__N_118check_requirementsILNS_6OpcodeE32EEE16evmc_status_codeRKSt5arrayIsLm256EERlPKN4intx4uintILj256EEESE_
FN:176,baseline_execution.cpp:_ZN6evmone8baseline12_GLOBAL__N_16invokeILNS_6OpcodeE48EEENS1_8PositionERKSt5arrayIsLm256EEPKN4intx4uintILj256EEES4_RlRNS_14ExecutionStateE
FN:47,baseline_execution.cpp:_ZN6evmone8baseline12_GLOBAL__N_118check_requirementsILNS_6OpcodeE48EEE16evmc_status_codeRKSt5arrayIsLm256EERlPKN4intx4uintILj256EEESE_
FN:119,baseline_execution.cpp:_ZN6evmone8baseline12_GLOBAL__N_16invokeEPDoFvNS_8StackTopERNS_14ExecutionStateEENS1_8PositionERlS4_
FN:176,baseline_execution.cpp:_ZN6evmone8baseline12_GLOBAL__N_16invokeILNS_6OpcodeE49EEENS1_8PositionERKSt5arrayIsLm256EEPKN4intx4uintILj256EEES4_RlRNS_14ExecutionStateE
FN:47,baseline_execution.cpp:_ZN6evmone8baseline12_GLOBAL__N_118check_requirementsILNS_6OpcodeE49EEE16evmc_status_codeRKSt5arrayIsLm256EERlPKN4intx4uintILj256EEESE_
FN:176,baseline_execution.cpp:_ZN6evmone8baseline12_GLOBAL__N_16invokeILNS_6OpcodeE50EEENS1_8PositionERKSt5arrayIsLm256EEPKN4intx4uintILj256EEES4_RlRNS_14ExecutionStateE
FN:47,baseline_execution.cpp:_ZN6evmone8baseline12_GLOBAL__N_118check_requirementsILNS_6OpcodeE50EEE16evmc_status_codeRKSt5arrayIsLm256EERlPKN4intx4uintILj256EEESE_
FN:176,baseline_execution.cpp:_ZN6evmone8baseline12_GLOBAL__N_16invokeILNS_6OpcodeE51EEENS1_8PositionERKSt5arrayIsLm256EEPKN4intx4uintILj256EEES4_RlRNS_14ExecutionStateE
FN:47,baseline_execution.cpp:_ZN6evmone8baseline12_GLOBAL__N_118check_requirementsILNS_6OpcodeE51EEE16evmc_status_codeRKSt5arrayIsLm256EERlPKN4intx4uintILj256EEESE_
FN:176,baseline_execution.cpp:_ZN6evmone8baseline12_GLOBAL__N_16invokeILNS_6OpcodeE52EEENS1_8PositionERKSt5arrayIsLm256EEPKN4intx4uintILj256EEES4_RlRNS_14ExecutionStateE
FN:47,baseline_execution.cpp:_ZN6evmone8baseline12_GLOBAL__N_118check_requirementsILNS_6OpcodeE52EEE16evmc_status_codeRKSt5arrayIsLm256EERlPKN4intx4uintILj256EEESE_
FN:176,baseline_execution.cpp:_ZN6evmone8baseline12_GLOBAL__N_16invokeILNS_6OpcodeE53EEENS1_8PositionERKSt5arrayIsLm256EEPKN4intx4uintILj256EEES4_RlRNS_14ExecutionStateE
FN:47,baseline_execution.cpp:_ZN6evmone8baseline12_GLOBAL__N_118check_requirementsILNS_6OpcodeE53EEE16evmc_status_codeRKSt5arrayIsLm256EERlPKN4intx4uintILj256EEESE_
FN:176,baseline_execution.cpp:_ZN6evmone8baseline12_GLOBAL__N_16invokeILNS_6OpcodeE54EEENS1_8PositionERKSt5arrayIsLm256EEPKN4intx4uintILj256EEES4_RlRNS_14ExecutionStateE
FN:47,baseline_execution.cpp:_ZN6evmone8baseline12_GLOBAL__N_118check_requirementsILNS_6OpcodeE54EEE16evmc_status_codeRKSt5arrayIsLm256EERlPKN4intx4uintILj256EEESE_
FN:176,baseline_execution.cpp:_ZN6evmone8baseline12_GLOBAL__N_16invokeILNS_6OpcodeE55EEENS1_8PositionERKSt5arrayIsLm256EEPKN4intx4uintILj256EEES4_RlRNS_14ExecutionStateE
FN:47,baseline_execution.cpp:_ZN6evmone8baseline12_GLOBAL__N_118check_requirementsILNS_6OpcodeE55EEE16evmc_status_codeRKSt5arrayIsLm256EERlPKN4intx4uintILj256EEESE_
FN:176,baseline_execution.cpp:_ZN6evmone8baseline12_GLOBAL__N_16invokeILNS_6OpcodeE56EEENS1_8PositionERKSt5arrayIsLm256EEPKN4intx4uintILj256EEES4_RlRNS_14ExecutionStateE
FN:47,baseline_execution.cpp:_ZN6evmone8baseline12_GLOBAL__N_118check_requirementsILNS_6OpcodeE56EEE16evmc_status_codeRKSt5arrayIsLm256EERlPKN4intx4uintILj256EEESE_
FN:176,baseline_execution.cpp:_ZN6evmone8baseline12_GLOBAL__N_16invokeILNS_6OpcodeE57EEENS1_8PositionERKSt5arrayIsLm256EEPKN4intx4uintILj256EEES4_RlRNS_14ExecutionStateE
FN:47,baseline_execution.cpp:_ZN6evmone8baseline12_GLOBAL__N_118check_requirementsILNS_6OpcodeE57EEE16evmc_status_codeRKSt5arrayIsLm256EERlPKN4intx4uintILj256EEESE_
FN:176,baseline_execution.cpp:_ZN6evmone8baseline12_GLOBAL__N_16invokeILNS_6OpcodeE58EEENS1_8PositionERKSt5arrayIsLm256EEPKN4intx4uintILj256EEES4_RlRNS_14ExecutionStateE
FN:47,baseline_execution.cpp:_ZN6evmone8baseline12_GLOBAL__N_118check_requirementsILNS_6OpcodeE58EEE16evmc_status_codeRKSt5arrayIsLm256EERlPKN4intx4uintILj256EEESE_
FN:176,baseline_execution.cpp:_ZN6evmone8baseline12_GLOBAL__N_16invokeILNS_6OpcodeE59EEENS1_8PositionERKSt5arrayIsLm256EEPKN4intx4uintILj256EEES4_RlRNS_14ExecutionStateE
FN:47,baseline_execution.cpp:_ZN6evmone8baseline12_GLOBAL__N_118check_requirementsILNS_6OpcodeE59EEE16evmc_status_codeRKSt5arrayIsLm256EERlPKN4intx4uintILj256EEESE_
FN:176,baseline_execution.cpp:_ZN6evmone8baseline12_GLOBAL__N_16invokeILNS_6OpcodeE60EEENS1_8PositionERKSt5arrayIsLm256EEPKN4intx4uintILj256EEES4_RlRNS_14ExecutionStateE
FN:47,baseline_execution.cpp:_ZN6evmone8baseline12_GLOBAL__N_118check_requirementsILNS_6OpcodeE60EEE16evmc_status_codeRKSt5arrayIsLm256EERlPKN4intx4uintILj256EEESE_
FN:176,baseline_execution.cpp:_ZN6evmone8baseline12_GLOBAL__N_16invokeILNS_6OpcodeE61EEENS1_8PositionERKSt5arrayIsLm256EEPKN4intx4uintILj256EEES4_RlRNS_14ExecutionStateE
FN:47,baseline_execution.cpp:_ZN6evmone8baseline12_GLOBAL__N_118check_requirementsILNS_6OpcodeE61EEE16evmc_status_codeRKSt5arrayIsLm256EERlPKN4intx4uintILj256EEESE_
FN:176,baseline_execution.cpp:_ZN6evmone8baseline12_GLOBAL__N_16invokeILNS_6OpcodeE62EEENS1_8PositionERKSt5arrayIsLm256EEPKN4intx4uintILj256EEES4_RlRNS_14ExecutionStateE
FN:47,baseline_execution.cpp:_ZN6evmone8baseline12_GLOBAL__N_118check_requirementsILNS_6OpcodeE62EEE16evmc_status_codeRKSt5arrayIsLm256EERlPKN4intx4uintILj256EEESE_
FN:176,baseline_execution.cpp:_ZN6evmone8baseline12_GLOBAL__N_16invokeILNS_6OpcodeE63EEENS1_8PositionERKSt5arrayIsLm256EEPKN4intx4uintILj256EEES4_RlRNS_14ExecutionStateE
FN:47,baseline_execution.cpp:_ZN6evmone8baseline12_GLOBAL__N_118check_requirementsILNS_6OpcodeE63EEE16evmc_status_codeRKSt5arrayIsLm256EERlPKN4intx4uintILj256EEESE_
FN:176,baseline_execution.cpp:_ZN6evmone8baseline12_GLOBAL__N_16invokeILNS_6OpcodeE64EEENS1_8PositionERKSt5arrayIsLm256EEPKN4intx4uintILj256EEES4_RlRNS_14ExecutionStateE
FN:47,baseline_execution.cpp:_ZN6evmone8baseline12_GLOBAL__N_118check_requirementsILNS_6OpcodeE64EEE16evmc_status_codeRKSt5arrayIsLm256EERlPKN4intx4uintILj256EEESE_
FN:176,baseline_execution.cpp:_ZN6evmone8baseline12_GLOBAL__N_16invokeILNS_6OpcodeE65EEENS1_8PositionERKSt5arrayIsLm256EEPKN4intx4uintILj256EEES4_RlRNS_14ExecutionStateE
FN:47,baseline_execution.cpp:_ZN6evmone8baseline12_GLOBAL__N_118check_requirementsILNS_6OpcodeE65EEE16evmc_status_codeRKSt5arrayIsLm256EERlPKN4intx4uintILj256EEESE_
FN:176,baseline_execution.cpp:_ZN6evmone8baseline12_GLOBAL__N_16invokeILNS_6OpcodeE66EEENS1_8PositionERKSt5arrayIsLm256EEPKN4intx4uintILj256EEES4_RlRNS_14ExecutionStateE
FN:47,baseline_execution.cpp:_ZN6evmone8baseline12_GLOBAL__N_118check_requirementsILNS_6OpcodeE66EEE16evmc_status_codeRKSt5arrayIsLm256EERlPKN4intx4uintILj256EEESE_
FN:176,baseline_execution.cpp:_ZN6evmone8baseline12_GLOBAL__N_16invokeILNS_6OpcodeE67EEENS1_8PositionERKSt5arrayIsLm256EEPKN4intx4uintILj256EEES4_RlRNS_14ExecutionStateE
FN:47,baseline_execution.cpp:_ZN6evmone8baseline12_GLOBAL__N_118check_requirementsILNS_6OpcodeE67EEE16evmc_status_codeRKSt5arrayIsLm256EERlPKN4intx4uintILj256EEESE_
FN:176,baseline_execution.cpp:_ZN6evmone8baseline12_GLOBAL__N_16invokeILNS_6OpcodeE68EEENS1_8PositionERKSt5arrayIsLm256EEPKN4intx4uintILj256EEES4_RlRNS_14ExecutionStateE
FN:47,baseline_execution.cpp:_ZN6evmone8baseline12_GLOBAL__N_118check_requirementsILNS_6OpcodeE68EEE16evmc_status_codeRKSt5arrayIsLm256EERlPKN4intx4uintILj256EEESE_
FN:176,baseline_execution.cpp:_ZN6evmone8baseline12_GLOBAL__N_16invokeILNS_6OpcodeE69EEENS1_8PositionERKSt5arrayIsLm256EEPKN4intx4uintILj256EEES4_RlRNS_14ExecutionStateE
FN:47,baseline_execution.cpp:_ZN6evmone8baseline12_GLOBAL__N_118check_requirementsILNS_6OpcodeE69EEE16evmc_status_codeRKSt5arrayIsLm256EERlPKN4intx4uintILj256EEESE_
FN:176,baseline_execution.cpp:_ZN6evmone8baseline12_GLOBAL__N_16invokeILNS_6OpcodeE70EEENS1_8PositionERKSt5arrayIsLm256EEPKN4intx4uintILj256EEES4_RlRNS_14ExecutionStateE
FN:47,baseline_execution.cpp:_ZN6evmone8baseline12_GLOBAL__N_118check_requirementsILNS_6OpcodeE70EEE16evmc_status_codeRKSt5arrayIsLm256EERlPKN4intx4uintILj256EEESE_
FN:176,baseline_execution.cpp:_ZN6evmone8baseline12_GLOBAL__N_16invokeILNS_6OpcodeE71EEENS1_8PositionERKSt5arrayIsLm256EEPKN4intx4uintILj256EEES4_RlRNS_14ExecutionStateE
FN:47,baseline_execution.cpp:_ZN6evmone8baseline12_GLOBAL__N_118check_requirementsILNS_6OpcodeE71EEE16evmc_status_codeRKSt5arrayIsLm256EERlPKN4intx4uintILj256EEESE_
FN:176,baseline_execution.cpp:_ZN6evmone8baseline12_GLOBAL__N_16invokeILNS_6OpcodeE72EEENS1_8PositionERKSt5arrayIsLm256EEPKN4intx4uintILj256EEES4_RlRNS_14ExecutionStateE
FN:47,baseline_execution.cpp:_ZN6evmone8baseline12_GLOBAL__N_118check_requirementsILNS_6OpcodeE72EEE16evmc_status_codeRKSt5arrayIsLm256EERlPKN4intx4uintILj256EEESE_
FN:176,baseline_execution.cpp:_ZN6evmone8baseline12_GLOBAL__N_16invokeILNS_6OpcodeE73EEENS1_8PositionERKSt5arrayIsLm256EEPKN4intx4uintILj256EEES4_RlRNS_14ExecutionStateE
FN:47,baseline_execution.cpp:_ZN6evmone8baseline12_GLOBAL__N_118check_requirementsILNS_6OpcodeE73EEE16evmc_status_codeRKSt5arrayIsLm256EERlPKN4intx4uintILj256EEESE_
FN:176,baseline_execution.cpp:_ZN6evmone8baseline12_GLOBAL__N_16invokeILNS_6OpcodeE74EEENS1_8PositionERKSt5arrayIsLm256EEPKN4intx4uintILj256EEES4_RlRNS_14ExecutionStateE
FN:47,baseline_execution.cpp:_ZN6evmone8baseline12_GLOBAL__N_118check_requirementsILNS_6OpcodeE74EEE16evmc_status_codeRKSt5arrayIsLm256EERlPKN4intx4uintILj256EEESE_
FN:176,baseline_execution.cpp:_ZN6evmone8baseline12_GLOBAL__N_16invokeILNS_6OpcodeE80EEENS1_8PositionERKSt5arrayIsLm256EEPKN4intx4uintILj256EEES4_RlRNS_14ExecutionStateE
FN:47,baseline_execution.cpp:_ZN6evmone8baseline12_GLOBAL__N_118check_requirementsILNS_6OpcodeE80EEE16evmc_status_codeRKSt5arrayIsLm256EERlPKN4intx4uintILj256EEESE_
FN:176,baseline_execution.cpp:_ZN6evmone8baseline12_GLOBAL__N_16invokeILNS_6OpcodeE81EEENS1_8PositionERKSt5arrayIsLm256EEPKN4intx4uintILj256EEES4_RlRNS_14ExecutionStateE
FN:47,baseline_execution.cpp:_ZN6evmone8baseline12_GLOBAL__N_118check_requirementsILNS_6OpcodeE81EEE16evmc_status_codeRKSt5arrayIsLm256EERlPKN4intx4uintILj256EEESE_
FN:176,baseline_execution.cpp:_ZN6evmone8baseline12_GLOBAL__N_16invokeILNS_6OpcodeE82EEENS1_8PositionERKSt5arrayIsLm256EEPKN4intx4uintILj256EEES4_RlRNS_14ExecutionStateE
FN:47,baseline_execution.cpp:_ZN6evmone8baseline12_GLOBAL__N_118check_requirementsILNS_6OpcodeE82EEE16evmc_status_codeRKSt5arrayIsLm256EERlPKN4intx4uintILj256EEESE_
FN:176,baseline_execution.cpp:_ZN6evmone8baseline12_GLOBAL__N_16invokeILNS_6OpcodeE83EEENS1_8PositionERKSt5arrayIsLm256EEPKN4intx4uintILj256EEES4_RlRNS_14ExecutionStateE
FN:47,baseline_execution.cpp:_ZN6evmone8baseline12_GLOBAL__N_118check_requirementsILNS_6OpcodeE83EEE16evmc_status_codeRKSt5arrayIsLm256EERlPKN4intx4uintILj256EEESE_
FN:176,baseline_execution.cpp:_ZN6evmone8baseline12_GLOBAL__N_16invokeILNS_6OpcodeE84EEENS1_8PositionERKSt5arrayIsLm256EEPKN4intx4uintILj256EEES4_RlRNS_14ExecutionStateE
FN:47,baseline_execution.cpp:_ZN6evmone8baseline12_GLOBAL__N_118check_requirementsILNS_6OpcodeE84EEE16evmc_status_codeRKSt5arrayIsLm256EERlPKN4intx4uintILj256EEESE_
FN:176,baseline_execution.cpp:_ZN6evmone8baseline12_GLOBAL__N_16invokeILNS_6OpcodeE85EEENS1_8PositionERKSt5arrayIsLm256EEPKN4intx4uintILj256EEES4_RlRNS_14ExecutionStateE
FN:47,baseline_execution.cpp:_ZN6evmone8baseline12_GLOBAL__N_118check_requirementsILNS_6OpcodeE85EEE16evmc_status_codeRKSt5arrayIsLm256EERlPKN4intx4uintILj256EEESE_
FN:176,baseline_execution.cpp:_ZN6evmone8baseline12_GLOBAL__N_16invokeILNS_6OpcodeE86EEENS1_8PositionERKSt5arrayIsLm256EEPKN4intx4uintILj256EEES4_RlRNS_14ExecutionStateE
FN:47,baseline_execution.cpp:_ZN6evmone8baseline12_GLOBAL__N_118check_requirementsILNS_6OpcodeE86EEE16evmc_status_codeRKSt5arrayIsLm256EERlPKN4intx4uintILj256EEESE_
FN:127,baseline_execution.cpp:_ZN6evmone8baseline12_GLOBAL__N_16invokeEPDoFPKhNS_8StackTopERNS_14ExecutionStateES3_ENS1_8PositionERlS6_
FN:176,baseline_execution.cpp:_ZN6evmone8baseline12_GLOBAL__N_16invokeILNS_6OpcodeE87EEENS1_8PositionERKSt5arrayIsLm256EEPKN4intx4uintILj256EEES4_RlRNS_14ExecutionStateE
FN:47,baseline_execution.cpp:_ZN6evmone8baseline12_GLOBAL__N_118check_requirementsILNS_6OpcodeE87EEE16evmc_status_codeRKSt5arrayIsLm256EERlPKN4intx4uintILj256EEESE_
FN:176,baseline_execution.cpp:_ZN6evmone8baseline12_GLOBAL__N_16invokeILNS_6OpcodeE88EEENS1_8PositionERKSt5arrayIsLm256EEPKN4intx4uintILj256EEES4_RlRNS_14ExecutionStateE
FN:47,baseline_execution.cpp:_ZN6evmone8baseline12_GLOBAL__N_118check_requirementsILNS_6OpcodeE88EEE16evmc_status_codeRKSt5arrayIsLm256EERlPKN4intx4uintILj256EEESE_
FN:176,baseline_execution.cpp:_ZN6evmone8baseline12_GLOBAL__N_16invokeILNS_6OpcodeE89EEENS1_8PositionERKSt5arrayIsLm256EEPKN4intx4uintILj256EEES4_RlRNS_14ExecutionStateE
FN:47,baseline_execution.cpp:_ZN6evmone8baseline12_GLOBAL__N_118check_requirementsILNS_6OpcodeE89EEE16evmc_status_codeRKSt5arrayIsLm256EERlPKN4intx4uintILj256EEESE_
FN:176,baseline_execution.cpp:_ZN6evmone8baseline12_GLOBAL__N_16invokeILNS_6OpcodeE90EEENS1_8PositionERKSt5arrayIsLm256EEPKN4intx4uintILj256EEES4_RlRNS_14ExecutionStateE
FN:47,baseline_execution.cpp:_ZN6evmone8baseline12_GLOBAL__N_118check_requirementsILNS_6OpcodeE90EEE16evmc_status_codeRKSt5arrayIsLm256EERlPKN4intx4uintILj256EEESE_
FN:176,baseline_execution.cpp:_ZN6evmone8baseline12_GLOBAL__N_16invokeILNS_6OpcodeE91EEENS1_8PositionERKSt5arrayIsLm256EEPKN4intx4uintILj256EEES4_RlRNS_14ExecutionStateE
FN:47,baseline_execution.cpp:_ZN6evmone8baseline12_GLOBAL__N_118check_requirementsILNS_6OpcodeE91EEE16evmc_status_codeRKSt5arrayIsLm256EERlPKN4intx4uintILj256EEESE_
FN:176,baseline_execution.cpp:_ZN6evmone8baseline12_GLOBAL__N_16invokeILNS_6OpcodeE92EEENS1_8PositionERKSt5arrayIsLm256EEPKN4intx4uintILj256EEES4_RlRNS_14ExecutionStateE
FN:47,baseline_execution.cpp:_ZN6evmone8baseline12_GLOBAL__N_118check_requirementsILNS_6OpcodeE92EEE16evmc_status_codeRKSt5arrayIsLm256EERlPKN4intx4uintILj256EEESE_
FN:176,baseline_execution.cpp:_ZN6evmone8baseline12_GLOBAL__N_16invokeILNS_6OpcodeE93EEENS1_8PositionERKSt5arrayIsLm256EEPKN4intx4uintILj256EEES4_RlRNS_14ExecutionStateE
FN:47,baseline_execution.cpp:_ZN6evmone8baseline12_GLOBAL__N_118check_requirementsILNS_6OpcodeE93EEE16evmc_status_codeRKSt5arrayIsLm256EERlPKN4intx4uintILj256EEESE_
FN:176,baseline_execution.cpp:_ZN6evmone8baseline12_GLOBAL__N_16invokeILNS_6OpcodeE94EEENS1_8PositionERKSt5arrayIsLm256EEPKN4intx4uintILj256EEES4_RlRNS_14ExecutionStateE
FN:47,baseline_execution.cpp:_ZN6evmone8baseline12_GLOBAL__N_118check_requirementsILNS_6OpcodeE94EEE16evmc_status_codeRKSt5arrayIsLm256EERlPKN4intx4uintILj256EEESE_
FN:176,baseline_execution.cpp:_ZN6evmone8baseline12_GLOBAL__N_16invokeILNS_6OpcodeE95EEENS1_8PositionERKSt5arrayIsLm256EEPKN4intx4uintILj256EEES4_RlRNS_14ExecutionStateE
FN:47,baseline_execution.cpp:_ZN6evmone8baseline12_GLOBAL__N_118check_requirementsILNS_6OpcodeE95EEE16evmc_status_codeRKSt5arrayIsLm256EERlPKN4intx4uintILj256EEESE_
FN:176,baseline_execution.cpp:_ZN6evmone8baseline12_GLOBAL__N_16invokeILNS_6OpcodeE96EEENS1_8PositionERKSt5arrayIsLm256EEPKN4intx4uintILj256EEES4_RlRNS_14ExecutionStateE
FN:47,baseline_execution.cpp:_ZN6evmone8baseline12_GLOBAL__N_118check_requirementsILNS_6OpcodeE96EEE16evmc_status_codeRKSt5arrayIsLm256EERlPKN4intx4uintILj256EEESE_
FN:176,baseline_execution.cpp:_ZN6evmone8baseline12_GLOBAL__N_16invokeILNS_6OpcodeE97EEENS1_8PositionERKSt5arrayIsLm256EEPKN4intx4uintILj256EEES4_RlRNS_14ExecutionStateE
FN:47,baseline_execution.cpp:_ZN6evmone8baseline12_GLOBAL__N_118check_requirementsILNS_6OpcodeE97EEE16evmc_status_codeRKSt5arrayIsLm256EERlPKN4intx4uintILj256EEESE_
FN:176,baseline_execution.cpp:_ZN6evmone8baseline12_GLOBAL__N_16invokeILNS_6OpcodeE98EEENS1_8PositionERKSt5arrayIsLm256EEPKN4intx4uintILj256EEES4_RlRNS_14ExecutionStateE
FN:47,baseline_execution.cpp:_ZN6evmone8baseline12_GLOBAL__N_118check_requirementsILNS_6OpcodeE98EEE16evmc_status_codeRKSt5arrayIsLm256EERlPKN4intx4uintILj256EEESE_
FN:176,baseline_execution.cpp:_ZN6evmone8baseline12_GLOBAL__N_16invokeILNS_6OpcodeE99EEENS1_8PositionERKSt5arrayIsLm256EEPKN4intx4uintILj256EEES4_RlRNS_14ExecutionStateE
FN:47,baseline_execution.cpp:_ZN6evmone8baseline12_GLOBAL__N_118check_requirementsILNS_6OpcodeE99EEE16evmc_status_codeRKSt5arrayIsLm256EERlPKN4intx4uintILj256EEESE_
FN:176,baseline_execution.cpp:_ZN6evmone8baseline12_GLOBAL__N_16invokeILNS_6OpcodeE100EEENS1_8PositionERKSt5arrayIsLm256EEPKN4intx4uintILj256EEES4_RlRNS_14ExecutionStateE
FN:47,baseline_execution.cpp:_ZN6evmone8baseline12_GLOBAL__N_118check_requirementsILNS_6OpcodeE100EEE16evmc_status_codeRKSt5arrayIsLm256EERlPKN4intx4uintILj256EEESE_
FN:176,baseline_execution.cpp:_ZN6evmone8baseline12_GLOBAL__N_16invokeILNS_6OpcodeE101EEENS1_8PositionERKSt5arrayIsLm256EEPKN4intx4uintILj256EEES4_RlRNS_14ExecutionStateE
FN:47,baseline_execution.cpp:_ZN6evmone8baseline12_GLOBAL__N_118check_requirementsILNS_6OpcodeE101EEE16evmc_status_codeRKSt5arrayIsLm256EERlPKN4intx4uintILj256EEESE_
FN:176,baseline_execution.cpp:_ZN6evmone8baseline12_GLOBAL__N_16invokeILNS_6OpcodeE102EEENS1_8PositionERKSt5arrayIsLm256EEPKN4intx4uintILj256EEES4_RlRNS_14ExecutionStateE
FN:47,baseline_execution.cpp:_ZN6evmone8baseline12_GLOBAL__N_118check_requirementsILNS_6OpcodeE102EEE16evmc_status_codeRKSt5arrayIsLm256EERlPKN4intx4uintILj256EEESE_
FN:176,baseline_execution.cpp:_ZN6evmone8baseline12_GLOBAL__N_16invokeILNS_6OpcodeE103EEENS1_8PositionERKSt5arrayIsLm256EEPKN4intx4uintILj256EEES4_RlRNS_14ExecutionStateE
FN:47,baseline_execution.cpp:_ZN6evmone8baseline12_GLOBAL__N_118check_requirementsILNS_6OpcodeE103EEE16evmc_status_codeRKSt5arrayIsLm256EERlPKN4intx4uintILj256EEESE_
FN:176,baseline_execution.cpp:_ZN6evmone8baseline12_GLOBAL__N_16invokeILNS_6OpcodeE104EEENS1_8PositionERKSt5arrayIsLm256EEPKN4intx4uintILj256EEES4_RlRNS_14ExecutionStateE
FN:47,baseline_execution.cpp:_ZN6evmone8baseline12_GLOBAL__N_118check_requirementsILNS_6OpcodeE104EEE16evmc_status_codeRKSt5arrayIsLm256EERlPKN4intx4uintILj256EEESE_
FN:176,baseline_execution.cpp:_ZN6evmone8baseline12_GLOBAL__N_16invokeILNS_6OpcodeE105EEENS1_8PositionERKSt5arrayIsLm256EEPKN4intx4uintILj256EEES4_RlRNS_14ExecutionStateE
FN:47,baseline_execution.cpp:_ZN6evmone8baseline12_GLOBAL__N_118check_requirementsILNS_6OpcodeE105EEE16evmc_status_codeRKSt5arrayIsLm256EERlPKN4intx4uintILj256EEESE_
FN:176,baseline_execution.cpp:_ZN6evmone8baseline12_GLOBAL__N_16invokeILNS_6OpcodeE106EEENS1_8PositionERKSt5arrayIsLm256EEPKN4intx4uintILj256EEES4_RlRNS_14ExecutionStateE
FN:47,baseline_execution.cpp:_ZN6evmone8baseline12_GLOBAL__N_118check_requirementsILNS_6OpcodeE106EEE16evmc_status_codeRKSt5arrayIsLm256EERlPKN4intx4uintILj256EEESE_
FN:176,baseline_execution.cpp:_ZN6evmone8baseline12_GLOBAL__N_16invokeILNS_6OpcodeE107EEENS1_8PositionERKSt5arrayIsLm256EEPKN4intx4uintILj256EEES4_RlRNS_14ExecutionStateE
FN:47,baseline_execution.cpp:_ZN6evmone8baseline12_GLOBAL__N_118check_requirementsILNS_6OpcodeE107EEE16evmc_status_codeRKSt5arrayIsLm256EERlPKN4intx4uintILj256EEESE_
FN:176,baseline_execution.cpp:_ZN6evmone8baseline12_GLOBAL__N_16invokeILNS_6OpcodeE108EEENS1_8PositionERKSt5arrayIsLm256EEPKN4intx4uintILj256EEES4_RlRNS_14ExecutionStateE
FN:47,baseline_execution.cpp:_ZN6evmone8baseline12_GLOBAL__N_118check_requirementsILNS_6OpcodeE108EEE16evmc_status_codeRKSt5arrayIsLm256EERlPKN4intx4uintILj256EEESE_
FN:176,baseline_execution.cpp:_ZN6evmone8baseline12_GLOBAL__N_16invokeILNS_6OpcodeE109EEENS1_8PositionERKSt5arrayIsLm256EEPKN4intx4uintILj256EEES4_RlRNS_14ExecutionStateE
FN:47,baseline_execution.cpp:_ZN6evmone8baseline12_GLOBAL__N_118check_requirementsILNS_6OpcodeE109EEE16evmc_status_codeRKSt5arrayIsLm256EERlPKN4intx4uintILj256EEESE_
FN:176,baseline_execution.cpp:_ZN6evmone8baseline12_GLOBAL__N_16invokeILNS_6OpcodeE110EEENS1_8PositionERKSt5arrayIsLm256EEPKN4intx4uintILj256EEES4_RlRNS_14ExecutionStateE
FN:47,baseline_execution.cpp:_ZN6evmone8baseline12_GLOBAL__N_118check_requirementsILNS_6OpcodeE110EEE16evmc_status_codeRKSt5arrayIsLm256EERlPKN4intx4uintILj256EEESE_
FN:176,baseline_execution.cpp:_ZN6evmone8baseline12_GLOBAL__N_16invokeILNS_6OpcodeE111EEENS1_8PositionERKSt5arrayIsLm256EEPKN4intx4uintILj256EEES4_RlRNS_14ExecutionStateE
FN:47,baseline_execution.cpp:_ZN6evmone8baseline12_GLOBAL__N_118check_requirementsILNS_6OpcodeE111EEE16evmc_status_codeRKSt5arrayIsLm256EERlPKN4intx4uintILj256EEESE_
FN:176,baseline_execution.cpp:_ZN6evmone8baseline12_GLOBAL__N_16invokeILNS_6OpcodeE112EEENS1_8PositionERKSt5arrayIsLm256EEPKN4intx4uintILj256EEES4_RlRNS_14ExecutionStateE
FN:47,baseline_execution.cpp:_ZN6evmone8baseline12_GLOBAL__N_118check_requirementsILNS_6OpcodeE112EEE16evmc_status_codeRKSt5arrayIsLm256EERlPKN4intx4uintILj256EEESE_
FN:176,baseline_execution.cpp:_ZN6evmone8baseline12_GLOBAL__N_16invokeILNS_6OpcodeE113EEENS1_8PositionERKSt5arrayIsLm256EEPKN4intx4uintILj256EEES4_RlRNS_14ExecutionStateE
FN:47,baseline_execution.cpp:_ZN6evmone8baseline12_GLOBAL__N_118check_requirementsILNS_6OpcodeE113EEE16evmc_status_codeRKSt5arrayIsLm256EERlPKN4intx4uintILj256EEESE_
FN:176,baseline_execution.cpp:_ZN6evmone8baseline12_GLOBAL__N_16invokeILNS_6OpcodeE114EEENS1_8PositionERKSt5arrayIsLm256EEPKN4intx4uintILj256EEES4_RlRNS_14ExecutionStateE
FN:47,baseline_execution.cpp:_ZN6evmone8baseline12_GLOBAL__N_118check_requirementsILNS_6OpcodeE114EEE16evmc_status_codeRKSt5arrayIsLm256EERlPKN4intx4uintILj256EEESE_
FN:176,baseline_execution.cpp:_ZN6evmone8baseline12_GLOBAL__N_16invokeILNS_6OpcodeE115EEENS1_8PositionERKSt5arrayIsLm256EEPKN4intx4uintILj256EEES4_RlRNS_14ExecutionStateE
FN:47,baseline_execution.cpp:_ZN6evmone8baseline12_GLOBAL__N_118check_requirementsILNS_6OpcodeE115EEE16evmc_status_codeRKSt5arrayIsLm256EERlPKN4intx4uintILj256EEESE_
FN:176,baseline_execution.cpp:_ZN6evmone8baseline12_GLOBAL__N_16invokeILNS_6OpcodeE116EEENS1_8PositionERKSt5arrayIsLm256EEPKN4intx4uintILj256EEES4_RlRNS_14ExecutionStateE
FN:47,baseline_execution.cpp:_ZN6evmone8baseline12_GLOBAL__N_118check_requirementsILNS_6OpcodeE116EEE16evmc_status_codeRKSt5arrayIsLm256EERlPKN4intx4uintILj256EEESE_
FN:176,baseline_execution.cpp:_ZN6evmone8baseline12_GLOBAL__N_16invokeILNS_6OpcodeE117EEENS1_8PositionERKSt5arrayIsLm256EEPKN4intx4uintILj256EEES4_RlRNS_14ExecutionStateE
FN:47,baseline_execution.cpp:_ZN6evmone8baseline12_GLOBAL__N_118check_requirementsILNS_6OpcodeE117EEE16evmc_status_codeRKSt5arrayIsLm256EERlPKN4intx4uintILj256EEESE_
FN:176,baseline_execution.cpp:_ZN6evmone8baseline12_GLOBAL__N_16invokeILNS_6OpcodeE118EEENS1_8PositionERKSt5arrayIsLm256EEPKN4intx4uintILj256EEES4_RlRNS_14ExecutionStateE
FN:47,baseline_execution.cpp:_ZN6evmone8baseline12_GLOBAL__N_118check_requirementsILNS_6OpcodeE118EEE16evmc_status_codeRKSt5arrayIsLm256EERlPKN4intx4uintILj256EEESE_
FN:176,baseline_execution.cpp:_ZN6evmone8baseline12_GLOBAL__N_16invokeILNS_6OpcodeE119EEENS1_8PositionERKSt5arrayIsLm256EEPKN4intx4uintILj256EEES4_RlRNS_14ExecutionStateE
FN:47,baseline_execution.cpp:_ZN6evmone8baseline12_GLOBAL__N_118check_requirementsILNS_6OpcodeE119EEE16evmc_status_codeRKSt5arrayIsLm256EERlPKN4intx4uintILj256EEESE_
FN:176,baseline_execution.cpp:_ZN6evmone8baseline12_GLOBAL__N_16invokeILNS_6OpcodeE120EEENS1_8PositionERKSt5arrayIsLm256EEPKN4intx4uintILj256EEES4_RlRNS_14ExecutionStateE
FN:47,baseline_execution.cpp:_ZN6evmone8baseline12_GLOBAL__N_118check_requirementsILNS_6OpcodeE120EEE16evmc_status_codeRKSt5arrayIsLm256EERlPKN4intx4uintILj256EEESE_
FN:176,baseline_execution.cpp:_ZN6evmone8baseline12_GLOBAL__N_16invokeILNS_6OpcodeE121EEENS1_8PositionERKSt5arrayIsLm256EEPKN4intx4uintILj256EEES4_RlRNS_14ExecutionStateE
FN:47,baseline_execution.cpp:_ZN6evmone8baseline12_GLOBAL__N_118check_requirementsILNS_6OpcodeE121EEE16evmc_status_codeRKSt5arrayIsLm256EERlPKN4intx4uintILj256EEESE_
FN:176,baseline_execution.cpp:_ZN6evmone8baseline12_GLOBAL__N_16invokeILNS_6OpcodeE122EEENS1_8PositionERKSt5arrayIsLm256EEPKN4intx4uintILj256EEES4_RlRNS_14ExecutionStateE
FN:47,baseline_execution.cpp:_ZN6evmone8baseline12_GLOBAL__N_118check_requirementsILNS_6OpcodeE122EEE16evmc_status_codeRKSt5arrayIsLm256EERlPKN4intx4uintILj256EEESE_
FN:176,baseline_execution.cpp:_ZN6evmone8baseline12_GLOBAL__N_16invokeILNS_6OpcodeE123EEENS1_8PositionERKSt5arrayIsLm256EEPKN4intx4uintILj256EEES4_RlRNS_14ExecutionStateE
FN:47,baseline_execution.cpp:_ZN6evmone8baseline12_GLOBAL__N_118check_requirementsILNS_6OpcodeE123EEE16evmc_status_codeRKSt5arrayIsLm256EERlPKN4intx4uintILj256EEESE_
FN:176,baseline_execution.cpp:_ZN6evmone8baseline12_GLOBAL__N_16invokeILNS_6OpcodeE124EEENS1_8PositionERKSt5arrayIsLm256EEPKN4intx4uintILj256EEES4_RlRNS_14ExecutionStateE
FN:47,baseline_execution.cpp:_ZN6evmone8baseline12_GLOBAL__N_118check_requirementsILNS_6OpcodeE124EEE16evmc_status_codeRKSt5arrayIsLm256EERlPKN4intx4uintILj256EEESE_
FN:176,baseline_execution.cpp:_ZN6evmone8baseline12_GLOBAL__N_16invokeILNS_6OpcodeE125EEENS1_8PositionERKSt5arrayIsLm256EEPKN4intx4uintILj256EEES4_RlRNS_14ExecutionStateE
FN:47,baseline_execution.cpp:_ZN6evmone8baseline12_GLOBAL__N_118check_requirementsILNS_6OpcodeE125EEE16evmc_status_codeRKSt5arrayIsLm256EERlPKN4intx4uintILj256EEESE_
FN:176,baseline_execution.cpp:_ZN6evmone8baseline12_GLOBAL__N_16invokeILNS_6OpcodeE126EEENS1_8PositionERKSt5arrayIsLm256EEPKN4intx4uintILj256EEES4_RlRNS_14ExecutionStateE
FN:47,baseline_execution.cpp:_ZN6evmone8baseline12_GLOBAL__N_118check_requirementsILNS_6OpcodeE126EEE16evmc_status_codeRKSt5arrayIsLm256EERlPKN4intx4uintILj256EEESE_
FN:176,baseline_execution.cpp:_ZN6evmone8baseline12_GLOBAL__N_16invokeILNS_6OpcodeE127EEENS1_8PositionERKSt5arrayIsLm256EEPKN4intx4uintILj256EEES4_RlRNS_14ExecutionStateE
FN:47,baseline_execution.cpp:_ZN6evmone8baseline12_GLOBAL__N_118check_requirementsILNS_6OpcodeE127EEE16evmc_status_codeRKSt5arrayIsLm256EERlPKN4intx4uintILj256EEESE_
FN:176,baseline_execution.cpp:_ZN6evmone8baseline12_GLOBAL__N_16invokeILNS_6OpcodeE128EEENS1_8PositionERKSt5arrayIsLm256EEPKN4intx4uintILj256EEES4_RlRNS_14ExecutionStateE
FN:47,baseline_execution.cpp:_ZN6evmone8baseline12_GLOBAL__N_118check_requirementsILNS_6OpcodeE128EEE16evmc_status_codeRKSt5arrayIsLm256EERlPKN4intx4uintILj256EEESE_
FN:176,baseline_execution.cpp:_ZN6evmone8baseline12_GLOBAL__N_16invokeILNS_6OpcodeE129EEENS1_8PositionERKSt5arrayIsLm256EEPKN4intx4uintILj256EEES4_RlRNS_14ExecutionStateE
FN:47,baseline_execution.cpp:_ZN6evmone8baseline12_GLOBAL__N_118check_requirementsILNS_6OpcodeE129EEE16evmc_status_codeRKSt5arrayIsLm256EERlPKN4intx4uintILj256EEESE_
FN:176,baseline_execution.cpp:_ZN6evmone8baseline12_GLOBAL__N_16invokeILNS_6OpcodeE130EEENS1_8PositionERKSt5arrayIsLm256EEPKN4intx4uintILj256EEES4_RlRNS_14ExecutionStateE
FN:47,baseline_execution.cpp:_ZN6evmone8baseline12_GLOBAL__N_118check_requirementsILNS_6OpcodeE130EEE16evmc_status_codeRKSt5arrayIsLm256EERlPKN4intx4uintILj256EEESE_
FN:176,baseline_execution.cpp:_ZN6evmone8baseline12_GLOBAL__N_16invokeILNS_6OpcodeE131EEENS1_8PositionERKSt5arrayIsLm256EEPKN4intx4uintILj256EEES4_RlRNS_14ExecutionStateE
FN:47,baseline_execution.cpp:_ZN6evmone8baseline12_GLOBAL__N_118check_requirementsILNS_6OpcodeE131EEE16evmc_status_codeRKSt5arrayIsLm256EERlPKN4intx4uintILj256EEESE_
FN:176,baseline_execution.cpp:_ZN6evmone8baseline12_GLOBAL__N_16invokeILNS_6OpcodeE132EEENS1_8PositionERKSt5arrayIsLm256EEPKN4intx4uintILj256EEES4_RlRNS_14ExecutionStateE
FN:47,baseline_execution.cpp:_ZN6evmone8baseline12_GLOBAL__N_118check_requirementsILNS_6OpcodeE132EEE16evmc_status_codeRKSt5arrayIsLm256EERlPKN4intx4uintILj256EEESE_
FN:176,baseline_execution.cpp:_ZN6evmone8baseline12_GLOBAL__N_16invokeILNS_6OpcodeE133EEENS1_8PositionERKSt5arrayIsLm256EEPKN4intx4uintILj256EEES4_RlRNS_14ExecutionStateE
FN:47,baseline_execution.cpp:_ZN6evmone8baseline12_GLOBAL__N_118check_requirementsILNS_6OpcodeE133EEE16evmc_status_codeRKSt5arrayIsLm256EERlPKN4intx4uintILj256EEESE_
FN:176,baseline_execution.cpp:_ZN6evmone8baseline12_GLOBAL__N_16invokeILNS_6OpcodeE134EEENS1_8PositionERKSt5arrayIsLm256EEPKN4intx4uintILj256EEES4_RlRNS_14ExecutionStateE
FN:47,baseline_execution.cpp:_ZN6evmone8baseline12_GLOBAL__N_118check_requirementsILNS_6OpcodeE134EEE16evmc_status_codeRKSt5arrayIsLm256EERlPKN4intx4uintILj256EEESE_
FN:176,baseline_execution.cpp:_ZN6evmone8baseline12_GLOBAL__N_16invokeILNS_6OpcodeE135EEENS1_8PositionERKSt5arrayIsLm256EEPKN4intx4uintILj256EEES4_RlRNS_14ExecutionStateE
FN:47,baseline_execution.cpp:_ZN6evmone8baseline12_GLOBAL__N_118check_requirementsILNS_6OpcodeE135EEE16evmc_status_codeRKSt5arrayIsLm256EERlPKN4intx4uintILj256EEESE_
FN:176,baseline_execution.cpp:_ZN6evmone8baseline12_GLOBAL__N_16invokeILNS_6OpcodeE136EEENS1_8PositionERKSt5arrayIsLm256EEPKN4intx4uintILj256EEES4_RlRNS_14ExecutionStateE
FN:47,baseline_execution.cpp:_ZN6evmone8baseline12_GLOBAL__N_118check_requirementsILNS_6OpcodeE136EEE16evmc_status_codeRKSt5arrayIsLm256EERlPKN4intx4uintILj256EEESE_
FN:176,baseline_execution.cpp:_ZN6evmone8baseline12_GLOBAL__N_16invokeILNS_6OpcodeE137EEENS1_8PositionERKSt5arrayIsLm256EEPKN4intx4uintILj256EEES4_RlRNS_14ExecutionStateE
FN:47,baseline_execution.cpp:_ZN6evmone8baseline12_GLOBAL__N_118check_requirementsILNS_6OpcodeE137EEE16evmc_status_codeRKSt5arrayIsLm256EERlPKN4intx4uintILj256EEESE_
FN:176,baseline_execution.cpp:_ZN6evmone8baseline12_GLOBAL__N_16invokeILNS_6OpcodeE138EEENS1_8PositionERKSt5arrayIsLm256EEPKN4intx4uintILj256EEES4_RlRNS_14ExecutionStateE
FN:47,baseline_execution.cpp:_ZN6evmone8baseline12_GLOBAL__N_118check_requirementsILNS_6OpcodeE138EEE16evmc_status_codeRKSt5arrayIsLm256EERlPKN4intx4uintILj256EEESE_
FN:176,baseline_execution.cpp:_ZN6evmone8baseline12_GLOBAL__N_16invokeILNS_6OpcodeE139EEENS1_8PositionERKSt5arrayIsLm256EEPKN4intx4uintILj256EEES4_RlRNS_14ExecutionStateE
FN:47,baseline_execution.cpp:_ZN6evmone8baseline12_GLOBAL__N_118check_requirementsILNS_6OpcodeE139EEE16evmc_status_codeRKSt5arrayIsLm256EERlPKN4intx4uintILj256EEESE_
FN:176,baseline_execution.cpp:_ZN6evmone8baseline12_GLOBAL__N_16invokeILNS_6OpcodeE140EEENS1_8PositionERKSt5arrayIsLm256EEPKN4intx4uintILj256EEES4_RlRNS_14ExecutionStateE
FN:47,baseline_execution.cpp:_ZN6evmone8baseline12_GLOBAL__N_118check_requirementsILNS_6OpcodeE140EEE16evmc_status_codeRKSt5arrayIsLm256EERlPKN4intx4uintILj256EEESE_
FN:176,baseline_execution.cpp:_ZN6evmone8baseline12_GLOBAL__N_16invokeILNS_6OpcodeE141EEENS1_8PositionERKSt5arrayIsLm256EEPKN4intx4uintILj256EEES4_RlRNS_14ExecutionStateE
FN:47,baseline_execution.cpp:_ZN6evmone8baseline12_GLOBAL__N_118check_requirementsILNS_6OpcodeE141EEE16evmc_status_codeRKSt5arrayIsLm256EERlPKN4intx4uintILj256EEESE_
FN:176,baseline_execution.cpp:_ZN6evmone8baseline12_GLOBAL__N_16invokeILNS_6OpcodeE142EEENS1_8PositionERKSt5arrayIsLm256EEPKN4intx4uintILj256EEES4_RlRNS_14ExecutionStateE
FN:47,baseline_execution.cpp:_ZN6evmone8baseline12_GLOBAL__N_118check_requirementsILNS_6OpcodeE142EEE16evmc_status_codeRKSt5arrayIsLm256EERlPKN4intx4uintILj256EEESE_
FN:176,baseline_execution.cpp:_ZN6evmone8baseline12_GLOBAL__N_16invokeILNS_6OpcodeE143EEENS1_8PositionERKSt5arrayIsLm256EEPKN4intx4uintILj256EEES4_RlRNS_14ExecutionStateE
FN:47,baseline_execution.cpp:_ZN6evmone8baseline12_GLOBAL__N_118check_requirementsILNS_6OpcodeE143EEE16evmc_status_codeRKSt5arrayIsLm256EERlPKN4intx4uintILj256EEESE_
FN:176,baseline_execution.cpp:_ZN6evmone8baseline12_GLOBAL__N_16invokeILNS_6OpcodeE144EEENS1_8PositionERKSt5arrayIsLm256EEPKN4intx4uintILj256EEES4_RlRNS_14ExecutionStateE
FN:47,baseline_execution.cpp:_ZN6evmone8baseline12_GLOBAL__N_118check_requirementsILNS_6OpcodeE144EEE16evmc_status_codeRKSt5arrayIsLm256EERlPKN4intx4uintILj256EEESE_
FN:176,baseline_execution.cpp:_ZN6evmone8baseline12_GLOBAL__N_16invokeILNS_6OpcodeE145EEENS1_8PositionERKSt5arrayIsLm256EEPKN4intx4uintILj256EEES4_RlRNS_14ExecutionStateE
FN:47,baseline_execution.cpp:_ZN6evmone8baseline12_GLOBAL__N_118check_requirementsILNS_6OpcodeE145EEE16evmc_status_codeRKSt5arrayIsLm256EERlPKN4intx4uintILj256EEESE_
FN:176,baseline_execution.cpp:_ZN6evmone8baseline12_GLOBAL__N_16invokeILNS_6OpcodeE146EEENS1_8PositionERKSt5arrayIsLm256EEPKN4intx4uintILj256EEES4_RlRNS_14ExecutionStateE
FN:47,baseline_execution.cpp:_ZN6evmone8baseline12_GLOBAL__N_118check_requirementsILNS_6OpcodeE146EEE16evmc_status_codeRKSt5arrayIsLm256EERlPKN4intx4uintILj256EEESE_
FN:176,baseline_execution.cpp:_ZN6evmone8baseline12_GLOBAL__N_16invokeILNS_6OpcodeE147EEENS1_8PositionERKSt5arrayIsLm256EEPKN4intx4uintILj256EEES4_RlRNS_14ExecutionStateE
FN:47,baseline_execution.cpp:_ZN6evmone8baseline12_GLOBAL__N_118check_requirementsILNS_6OpcodeE147EEE16evmc_status_codeRKSt5arrayIsLm256EERlPKN4intx4uintILj256EEESE_
FN:176,baseline_execution.cpp:_ZN6evmone8baseline12_GLOBAL__N_16invokeILNS_6OpcodeE148EEENS1_8PositionERKSt5arrayIsLm256EEPKN4intx4uintILj256EEES4_RlRNS_14ExecutionStateE
FN:47,baseline_execution.cpp:_ZN6evmone8baseline12_GLOBAL__N_118check_requirementsILNS_6OpcodeE148EEE16evmc_status_codeRKSt5arrayIsLm256EERlPKN4intx4uintILj256EEESE_
FN:176,baseline_execution.cpp:_ZN6evmone8baseline12_GLOBAL__N_16invokeILNS_6OpcodeE149EEENS1_8PositionERKSt5arrayIsLm256EEPKN4intx4uintILj256EEES4_RlRNS_14ExecutionStateE
FN:47,baseline_execution.cpp:_ZN6evmone8baseline12_GLOBAL__N_118check_requirementsILNS_6OpcodeE149EEE16evmc_status_codeRKSt5arrayIsLm256EERlPKN4intx4uintILj256EEESE_
FN:176,baseline_execution.cpp:_ZN6evmone8baseline12_GLOBAL__N_16invokeILNS_6OpcodeE150EEENS1_8PositionERKSt5arrayIsLm256EEPKN4intx4uintILj256EEES4_RlRNS_14ExecutionStateE
FN:47,baseline_execution.cpp:_ZN6evmone8baseline12_GLOBAL__N_118check_requirementsILNS_6OpcodeE150EEE16evmc_status_codeRKSt5arrayIsLm256EERlPKN4intx4uintILj256EEESE_
FN:176,baseline_execution.cpp:_ZN6evmone8baseline12_GLOBAL__N_16invokeILNS_6OpcodeE151EEENS1_8PositionERKSt5arrayIsLm256EEPKN4intx4uintILj256EEES4_RlRNS_14ExecutionStateE
FN:47,baseline_execution.cpp:_ZN6evmone8baseline12_GLOBAL__N_118check_requirementsILNS_6OpcodeE151EEE16evmc_status_codeRKSt5arrayIsLm256EERlPKN4intx4uintILj256EEESE_
FN:176,baseline_execution.cpp:_ZN6evmone8baseline12_GLOBAL__N_16invokeILNS_6OpcodeE152EEENS1_8PositionERKSt5arrayIsLm256EEPKN4intx4uintILj256EEES4_RlRNS_14ExecutionStateE
FN:47,baseline_execution.cpp:_ZN6evmone8baseline12_GLOBAL__N_118check_requirementsILNS_6OpcodeE152EEE16evmc_status_codeRKSt5arrayIsLm256EERlPKN4intx4uintILj256EEESE_
FN:176,baseline_execution.cpp:_ZN6evmone8baseline12_GLOBAL__N_16invokeILNS_6OpcodeE153EEENS1_8PositionERKSt5arrayIsLm256EEPKN4intx4uintILj256EEES4_RlRNS_14ExecutionStateE
FN:47,baseline_execution.cpp:_ZN6evmone8baseline12_GLOBAL__N_118check_requirementsILNS_6OpcodeE153EEE16evmc_status_codeRKSt5arrayIsLm256EERlPKN4intx4uintILj256EEESE_
FN:176,baseline_execution.cpp:_ZN6evmone8baseline12_GLOBAL__N_16invokeILNS_6OpcodeE154EEENS1_8PositionERKSt5arrayIsLm256EEPKN4intx4uintILj256EEES4_RlRNS_14ExecutionStateE
FN:47,baseline_execution.cpp:_ZN6evmone8baseline12_GLOBAL__N_118check_requirementsILNS_6OpcodeE154EEE16evmc_status_codeRKSt5arrayIsLm256EERlPKN4intx4uintILj256EEESE_
FN:176,baseline_execution.cpp:_ZN6evmone8baseline12_GLOBAL__N_16invokeILNS_6OpcodeE155EEENS1_8PositionERKSt5arrayIsLm256EEPKN4intx4uintILj256EEES4_RlRNS_14ExecutionStateE
FN:47,baseline_execution.cpp:_ZN6evmone8baseline12_GLOBAL__N_118check_requirementsILNS_6OpcodeE155EEE16evmc_status_codeRKSt5arrayIsLm256EERlPKN4intx4uintILj256EEESE_
FN:176,baseline_execution.cpp:_ZN6evmone8baseline12_GLOBAL__N_16invokeILNS_6OpcodeE156EEENS1_8PositionERKSt5arrayIsLm256EEPKN4intx4uintILj256EEES4_RlRNS_14ExecutionStateE
FN:47,baseline_execution.cpp:_ZN6evmone8baseline12_GLOBAL__N_118check_requirementsILNS_6OpcodeE156EEE16evmc_status_codeRKSt5arrayIsLm256EERlPKN4intx4uintILj256EEESE_
FN:176,baseline_execution.cpp:_ZN6evmone8baseline12_GLOBAL__N_16invokeILNS_6OpcodeE157EEENS1_8PositionERKSt5arrayIsLm256EEPKN4intx4uintILj256EEES4_RlRNS_14ExecutionStateE
FN:47,baseline_execution.cpp:_ZN6evmone8baseline12_GLOBAL__N_118check_requirementsILNS_6OpcodeE157EEE16evmc_status_codeRKSt5arrayIsLm256EERlPKN4intx4uintILj256EEESE_
FN:176,baseline_execution.cpp:_ZN6evmone8baseline12_GLOBAL__N_16invokeILNS_6OpcodeE158EEENS1_8PositionERKSt5arrayIsLm256EEPKN4intx4uintILj256EEES4_RlRNS_14ExecutionStateE
FN:47,baseline_execution.cpp:_ZN6evmone8baseline12_GLOBAL__N_118check_requirementsILNS_6OpcodeE158EEE16evmc_status_codeRKSt5arrayIsLm256EERlPKN4intx4uintILj256EEESE_
FN:176,baseline_execution.cpp:_ZN6evmone8baseline12_GLOBAL__N_16invokeILNS_6OpcodeE159EEENS1_8PositionERKSt5arrayIsLm256EEPKN4intx4uintILj256EEES4_RlRNS_14ExecutionStateE
FN:47,baseline_execution.cpp:_ZN6evmone8baseline12_GLOBAL__N_118check_requirementsILNS_6OpcodeE159EEE16evmc_status_codeRKSt5arrayIsLm256EERlPKN4intx4uintILj256EEESE_
FN:176,baseline_execution.cpp:_ZN6evmone8baseline12_GLOBAL__N_16invokeILNS_6OpcodeE160EEENS1_8PositionERKSt5arrayIsLm256EEPKN4intx4uintILj256EEES4_RlRNS_14ExecutionStateE
FN:47,baseline_execution.cpp:_ZN6evmone8baseline12_GLOBAL__N_118check_requirementsILNS_6OpcodeE160EEE16evmc_status_codeRKSt5arrayIsLm256EERlPKN4intx4uintILj256EEESE_
FN:176,baseline_execution.cpp:_ZN6evmone8baseline12_GLOBAL__N_16invokeILNS_6OpcodeE161EEENS1_8PositionERKSt5arrayIsLm256EEPKN4intx4uintILj256EEES4_RlRNS_14ExecutionStateE
FN:47,baseline_execution.cpp:_ZN6evmone8baseline12_GLOBAL__N_118check_requirementsILNS_6OpcodeE161EEE16evmc_status_codeRKSt5arrayIsLm256EERlPKN4intx4uintILj256EEESE_
FN:176,baseline_execution.cpp:_ZN6evmone8baseline12_GLOBAL__N_16invokeILNS_6OpcodeE162EEENS1_8PositionERKSt5arrayIsLm256EEPKN4intx4uintILj256EEES4_RlRNS_14ExecutionStateE
FN:47,baseline_execution.cpp:_ZN6evmone8baseline12_GLOBAL__N_118check_requirementsILNS_6OpcodeE162EEE16evmc_status_codeRKSt5arrayIsLm256EERlPKN4intx4uintILj256EEESE_
FN:176,baseline_execution.cpp:_ZN6evmone8baseline12_GLOBAL__N_16invokeILNS_6OpcodeE163EEENS1_8PositionERKSt5arrayIsLm256EEPKN4intx4uintILj256EEES4_RlRNS_14ExecutionStateE
FN:47,baseline_execution.cpp:_ZN6evmone8baseline12_GLOBAL__N_118check_requirementsILNS_6OpcodeE163EEE16evmc_status_codeRKSt5arrayIsLm256EERlPKN4intx4uintILj256EEESE_
FN:176,baseline_execution.cpp:_ZN6evmone8baseline12_GLOBAL__N_16invokeILNS_6OpcodeE164EEENS1_8PositionERKSt5arrayIsLm256EEPKN4intx4uintILj256EEES4_RlRNS_14ExecutionStateE
FN:47,baseline_execution.cpp:_ZN6evmone8baseline12_GLOBAL__N_118check_requirementsILNS_6OpcodeE164EEE16evmc_status_codeRKSt5arrayIsLm256EERlPKN4intx4uintILj256EEESE_
FN:176,baseline_execution.cpp:_ZN6evmone8baseline12_GLOBAL__N_16invokeILNS_6OpcodeE208EEENS1_8PositionERKSt5arrayIsLm256EEPKN4intx4uintILj256EEES4_RlRNS_14ExecutionStateE
FN:47,baseline_execution.cpp:_ZN6evmone8baseline12_GLOBAL__N_118check_requirementsILNS_6OpcodeE208EEE16evmc_status_codeRKSt5arrayIsLm256EERlPKN4intx4uintILj256EEESE_
FN:176,baseline_execution.cpp:_ZN6evmone8baseline12_GLOBAL__N_16invokeILNS_6OpcodeE209EEENS1_8PositionERKSt5arrayIsLm256EEPKN4intx4uintILj256EEES4_RlRNS_14ExecutionStateE
FN:47,baseline_execution.cpp:_ZN6evmone8baseline12_GLOBAL__N_118check_requirementsILNS_6OpcodeE209EEE16evmc_status_codeRKSt5arrayIsLm256EERlPKN4intx4uintILj256EEESE_
FN:176,baseline_execution.cpp:_ZN6evmone8baseline12_GLOBAL__N_16invokeILNS_6OpcodeE210EEENS1_8PositionERKSt5arrayIsLm256EEPKN4intx4uintILj256EEES4_RlRNS_14ExecutionStateE
FN:47,baseline_execution.cpp:_ZN6evmone8baseline12_GLOBAL__N_118check_requirementsILNS_6OpcodeE210EEE16evmc_status_codeRKSt5arrayIsLm256EERlPKN4intx4uintILj256EEESE_
FN:176,baseline_execution.cpp:_ZN6evmone8baseline12_GLOBAL__N_16invokeILNS_6OpcodeE211EEENS1_8PositionERKSt5arrayIsLm256EEPKN4intx4uintILj256EEES4_RlRNS_14ExecutionStateE
FN:47,baseline_execution.cpp:_ZN6evmone8baseline12_GLOBAL__N_118check_requirementsILNS_6OpcodeE211EEE16evmc_status_codeRKSt5arrayIsLm256EERlPKN4intx4uintILj256EEESE_
FN:176,baseline_execution.cpp:_ZN6evmone8baseline12_GLOBAL__N_16invokeILNS_6OpcodeE224EEENS1_8PositionERKSt5arrayIsLm256EEPKN4intx4uintILj256EEES4_RlRNS_14ExecutionStateE
FN:47,baseline_execution.cpp:_ZN6evmone8baseline12_GLOBAL__N_118check_requirementsILNS_6OpcodeE224EEE16evmc_status_codeRKSt5arrayIsLm256EERlPKN4intx4uintILj256EEESE_
FN:176,baseline_execution.cpp:_ZN6evmone8baseline12_GLOBAL__N_16invokeILNS_6OpcodeE225EEENS1_8PositionERKSt5arrayIsLm256EEPKN4intx4uintILj256EEES4_RlRNS_14ExecutionStateE
FN:47,baseline_execution.cpp:_ZN6evmone8baseline12_GLOBAL__N_118check_requirementsILNS_6OpcodeE225EEE16evmc_status_codeRKSt5arrayIsLm256EERlPKN4intx4uintILj256EEESE_
FN:176,baseline_execution.cpp:_ZN6evmone8baseline12_GLOBAL__N_16invokeILNS_6OpcodeE226EEENS1_8PositionERKSt5arrayIsLm256EEPKN4intx4uintILj256EEES4_RlRNS_14ExecutionStateE
FN:47,baseline_execution.cpp:_ZN6evmone8baseline12_GLOBAL__N_118check_requirementsILNS_6OpcodeE226EEE16evmc_status_codeRKSt5arrayIsLm256EERlPKN4intx4uintILj256EEESE_
FN:176,baseline_execution.cpp:_ZN6evmone8baseline12_GLOBAL__N_16invokeILNS_6OpcodeE227EEENS1_8PositionERKSt5arrayIsLm256EEPKN4intx4uintILj256EEES4_RlRNS_14ExecutionStateE
FN:47,baseline_execution.cpp:_ZN6evmone8baseline12_GLOBAL__N_118check_requirementsILNS_6OpcodeE227EEE16evmc_status_codeRKSt5arrayIsLm256EERlPKN4intx4uintILj256EEESE_
FN:176,baseline_execution.cpp:_ZN6evmone8baseline12_GLOBAL__N_16invokeILNS_6OpcodeE228EEENS1_8PositionERKSt5arrayIsLm256EEPKN4intx4uintILj256EEES4_RlRNS_14ExecutionStateE
FN:47,baseline_execution.cpp:_ZN6evmone8baseline12_GLOBAL__N_118check_requirementsILNS_6OpcodeE228EEE16evmc_status_codeRKSt5arrayIsLm256EERlPKN4intx4uintILj256EEESE_
FN:176,baseline_execution.cpp:_ZN6evmone8baseline12_GLOBAL__N_16invokeILNS_6OpcodeE229EEENS1_8PositionERKSt5arrayIsLm256EEPKN4intx4uintILj256EEES4_RlRNS_14ExecutionStateE
FN:47,baseline_execution.cpp:_ZN6evmone8baseline12_GLOBAL__N_118check_requirementsILNS_6OpcodeE229EEE16evmc_status_codeRKSt5arrayIsLm256EERlPKN4intx4uintILj256EEESE_
FN:176,baseline_execution.cpp:_ZN6evmone8baseline12_GLOBAL__N_16invokeILNS_6OpcodeE230EEENS1_8PositionERKSt5arrayIsLm256EEPKN4intx4uintILj256EEES4_RlRNS_14ExecutionStateE
FN:47,baseline_execution.cpp:_ZN6evmone8baseline12_GLOBAL__N_118check_requirementsILNS_6OpcodeE230EEE16evmc_status_codeRKSt5arrayIsLm256EERlPKN4intx4uintILj256EEESE_
FN:134,baseline_execution.cpp:_ZN6evmone8baseline12_GLOBAL__N_16invokeEPDoFPKhNS_8StackTopES3_ENS1_8PositionERlRNS_14ExecutionStateE
FN:176,baseline_execution.cpp:_ZN6evmone8baseline12_GLOBAL__N_16invokeILNS_6OpcodeE231EEENS1_8PositionERKSt5arrayIsLm256EEPKN4intx4uintILj256EEES4_RlRNS_14ExecutionStateE
FN:47,baseline_execution.cpp:_ZN6evmone8baseline12_GLOBAL__N_118check_requirementsILNS_6OpcodeE231EEE16evmc_status_codeRKSt5arrayIsLm256EERlPKN4intx4uintILj256EEESE_
FN:176,baseline_execution.cpp:_ZN6evmone8baseline12_GLOBAL__N_16invokeILNS_6OpcodeE232EEENS1_8PositionERKSt5arrayIsLm256EEPKN4intx4uintILj256EEES4_RlRNS_14ExecutionStateE
FN:47,baseline_execution.cpp:_ZN6evmone8baseline12_GLOBAL__N_118check_requirementsILNS_6OpcodeE232EEE16evmc_status_codeRKSt5arrayIsLm256EERlPKN4intx4uintILj256EEESE_
FN:176,baseline_execution.cpp:_ZN6evmone8baseline12_GLOBAL__N_16invokeILNS_6OpcodeE236EEENS1_8PositionERKSt5arrayIsLm256EEPKN4intx4uintILj256EEES4_RlRNS_14ExecutionStateE
FN:47,baseline_execution.cpp:_ZN6evmone8baseline12_GLOBAL__N_118check_requirementsILNS_6OpcodeE236EEE16evmc_status_codeRKSt5arrayIsLm256EERlPKN4intx4uintILj256EEESE_
FN:151,baseline_execution.cpp:_ZN6evmone8baseline12_GLOBAL__N_16invokeEPDoFNS_6ResultENS_8StackTopElRNS_14ExecutionStateERPKhENS1_8PositionERlS5_
FN:176,baseline_execution.cpp:_ZN6evmone8baseline12_GLOBAL__N_16invokeILNS_6OpcodeE237EEENS1_8PositionERKSt5arrayIsLm256EEPKN4intx4uintILj256EEES4_RlRNS_14ExecutionStateE
FN:47,baseline_execution.cpp:_ZN6evmone8baseline12_GLOBAL__N_118check_requirementsILNS_6OpcodeE237EEE16evmc_status_codeRKSt5arrayIsLm256EERlPKN4intx4uintILj256EEESE_
FN:176,baseline_execution.cpp:_ZN6evmone8baseline12_GLOBAL__N_16invokeILNS_6OpcodeE238EEENS1_8PositionERKSt5arrayIsLm256EEPKN4intx4uintILj256EEES4_RlRNS_14ExecutionStateE
FN:47,baseline_execution.cpp:_ZN6evmone8baseline12_GLOBAL__N_118check_requirementsILNS_6OpcodeE238EEE16evmc_status_codeRKSt5arrayIsLm256EERlPKN4intx4uintILj256EEESE_
FN:165,baseline_execution.cpp:_ZN6evmone8baseline12_GLOBAL__N_16invokeEPDoFNS_10TermResultENS_8StackTopElRNS_14ExecutionStateEPKhENS1_8PositionERlS5_
FN:176,baseline_execution.cpp:_ZN6evmone8baseline12_GLOBAL__N_16invokeILNS_6OpcodeE240EEENS1_8PositionERKSt5arrayIsLm256EEPKN4intx4uintILj256EEES4_RlRNS_14ExecutionStateE
FN:47,baseline_execution.cpp:_ZN6evmone8baseline12_GLOBAL__N_118check_requirementsILNS_6OpcodeE240EEE16evmc_status_codeRKSt5arrayIsLm256EERlPKN4intx4uintILj256EEESE_
FN:176,baseline_execution.cpp:_ZN6evmone8baseline12_GLOBAL__N_16invokeILNS_6OpcodeE241EEENS1_8PositionERKSt5arrayIsLm256EEPKN4intx4uintILj256EEES4_RlRNS_14ExecutionStateE
FN:47,baseline_execution.cpp:_ZN6evmone8baseline12_GLOBAL__N_118check_requirementsILNS_6OpcodeE241EEE16evmc_status_codeRKSt5arrayIsLm256EERlPKN4intx4uintILj256EEESE_
FN:176,baseline_execution.cpp:_ZN6evmone8baseline12_GLOBAL__N_16invokeILNS_6OpcodeE242EEENS1_8PositionERKSt5arrayIsLm256EEPKN4intx4uintILj256EEES4_RlRNS_14ExecutionStateE
FN:47,baseline_execution.cpp:_ZN6evmone8baseline12_GLOBAL__N_118check_requirementsILNS_6OpcodeE242EEE16evmc_status_codeRKSt5arrayIsLm256EERlPKN4intx4uintILj256EEESE_
FN:176,baseline_execution.cpp:_ZN6evmone8baseline12_GLOBAL__N_16invokeILNS_6OpcodeE243EEENS1_8PositionERKSt5arrayIsLm256EEPKN4intx4uintILj256EEES4_RlRNS_14ExecutionStateE
FN:47,baseline_execution.cpp:_ZN6evmone8baseline12_GLOBAL__N_118check_requirementsILNS_6OpcodeE243EEE16evmc_status_codeRKSt5arrayIsLm256EERlPKN4intx4uintILj256EEESE_
FN:176,baseline_execution.cpp:_ZN6evmone8baseline12_GLOBAL__N_16invokeILNS_6OpcodeE244EEENS1_8PositionERKSt5arrayIsLm256EEPKN4intx4uintILj256EEES4_RlRNS_14ExecutionStateE
FN:47,baseline_execution.cpp:_ZN6evmone8baseline12_GLOBAL__N_118check_requirementsILNS_6OpcodeE244EEE16evmc_status_codeRKSt5arrayIsLm256EERlPKN4intx4uintILj256EEESE_
FN:176,baseline_execution.cpp:_ZN6evmone8baseline12_GLOBAL__N_16invokeILNS_6OpcodeE245EEENS1_8PositionERKSt5arrayIsLm256EEPKN4intx4uintILj256EEES4_RlRNS_14ExecutionStateE
FN:47,baseline_execution.cpp:_ZN6evmone8baseline12_GLOBAL__N_118check_requirementsILNS_6OpcodeE245EEE16evmc_status_codeRKSt5arrayIsLm256EERlPKN4intx4uintILj256EEESE_
FN:176,baseline_execution.cpp:_ZN6evmone8baseline12_GLOBAL__N_16invokeILNS_6OpcodeE247EEENS1_8PositionERKSt5arrayIsLm256EEPKN4intx4uintILj256EEES4_RlRNS_14ExecutionStateE
FN:47,baseline_execution.cpp:_ZN6evmone8baseline12_GLOBAL__N_118check_requirementsILNS_6OpcodeE247EEE16evmc_status_codeRKSt5arrayIsLm256EERlPKN4intx4uintILj256EEESE_
FN:176,baseline_execution.cpp:_ZN6evmone8baseline12_GLOBAL__N_16invokeILNS_6OpcodeE248EEENS1_8PositionERKSt5arrayIsLm256EEPKN4intx4uintILj256EEES4_RlRNS_14ExecutionStateE
FN:47,baseline_execution.cpp:_ZN6evmone8baseline12_GLOBAL__N_118check_requirementsILNS_6OpcodeE248EEE16evmc_status_codeRKSt5arrayIsLm256EERlPKN4intx4uintILj256EEESE_
FN:176,baseline_execution.cpp:_ZN6evmone8baseline12_GLOBAL__N_16invokeILNS_6OpcodeE249EEENS1_8PositionERKSt5arrayIsLm256EEPKN4intx4uintILj256EEES4_RlRNS_14ExecutionStateE
FN:47,baseline_execution.cpp:_ZN6evmone8baseline12_GLOBAL__N_118check_requirementsILNS_6OpcodeE249EEE16evmc_status_codeRKSt5arrayIsLm256EERlPKN4intx4uintILj256EEESE_
FN:176,baseline_execution.cpp:_ZN6evmone8baseline12_GLOBAL__N_16invokeILNS_6OpcodeE250EEENS1_8PositionERKSt5arrayIsLm256EEPKN4intx4uintILj256EEES4_RlRNS_14ExecutionStateE
FN:47,baseline_execution.cpp:_ZN6evmone8baseline12_GLOBAL__N_118check_requirementsILNS_6OpcodeE250EEE16evmc_status_codeRKSt5arrayIsLm256EERlPKN4intx4uintILj256EEESE_
FN:176,baseline_execution.cpp:_ZN6evmone8baseline12_GLOBAL__N_16invokeILNS_6OpcodeE251EEENS1_8PositionERKSt5arrayIsLm256EEPKN4intx4uintILj256EEES4_RlRNS_14ExecutionStateE
FN:47,baseline_execution.cpp:_ZN6evmone8baseline12_GLOBAL__N_118check_requirementsILNS_6OpcodeE251EEE16evmc_status_codeRKSt5arrayIsLm256EERlPKN4intx4uintILj256EEESE_
FN:176,baseline_execution.cpp:_ZN6evmone8baseline12_GLOBAL__N_16invokeILNS_6OpcodeE253EEENS1_8PositionERKSt5arrayIsLm256EEPKN4intx4uintILj256EEES4_RlRNS_14ExecutionStateE
FN:47,baseline_execution.cpp:_ZN6evmone8baseline12_GLOBAL__N_118check_requirementsILNS_6OpcodeE253EEE16evmc_status_codeRKSt5arrayIsLm256EERlPKN4intx4uintILj256EEESE_
FN:176,baseline_execution.cpp:_ZN6evmone8baseline12_GLOBAL__N_16invokeILNS_6OpcodeE254EEENS1_8PositionERKSt5arrayIsLm256EEPKN4intx4uintILj256EEES4_RlRNS_14ExecutionStateE
FN:47,baseline_execution.cpp:_ZN6evmone8baseline12_GLOBAL__N_118check_requirementsILNS_6OpcodeE254EEE16evmc_status_codeRKSt5arrayIsLm256EERlPKN4intx4uintILj256EEESE_
FN:176,baseline_execution.cpp:_ZN6evmone8baseline12_GLOBAL__N_16invokeILNS_6OpcodeE255EEENS1_8PositionERKSt5arrayIsLm256EEPKN4intx4uintILj256EEES4_RlRNS_14ExecutionStateE
FN:47,baseline_execution.cpp:_ZN6evmone8baseline12_GLOBAL__N_118check_requirementsILNS_6OpcodeE255EEE16evmc_status_codeRKSt5arrayIsLm256EERlPKN4intx4uintILj256EEESE_
FN:192,baseline_execution.cpp:_ZN6evmone8baseline12_GLOBAL__N_18dispatchILb1EEElRKSt5arrayIsLm256EERNS_14ExecutionStateElPKhPNS_6TracerE
FN:192,baseline_execution.cpp:_ZN6evmone8baseline12_GLOBAL__N_18dispatchILb0EEElRKSt5arrayIsLm256EERNS_14ExecutionStateElPKhPNS_6TracerE
FNDA:2751709,_ZN6evmone8baseline7executeERNS_2VMERK19evmc_host_interfaceP17evmc_host_context13evmc_revisionRK12evmc_messageRKNS0_12CodeAnalysisE
FNDA:2751709,_ZN6evmone8baseline7executeEP7evmc_vmPK19evmc_host_interfaceP17evmc_host_context13evmc_revisionPK12evmc_messagePKhm
FNDA:2751709,baseline_execution.cpp:_ZN6evmone8baseline12_GLOBAL__N_114dispatch_cgotoERKSt5arrayIsLm256EERNS_14ExecutionStateElPKh
FNDA:1406674,baseline_execution.cpp:_ZN6evmone8baseline12_GLOBAL__N_16invokeILNS_6OpcodeE0EEENS1_8PositionERKSt5arrayIsLm256EEPKN4intx4uintILj256EEES4_RlRNS_14ExecutionStateE
FNDA:1406674,baseline_execution.cpp:_ZN6evmone8baseline12_GLOBAL__N_118check_requirementsILNS_6OpcodeE0EEE16evmc_status_codeRKSt5arrayIsLm256EERlPKN4intx4uintILj256EEESE_
FNDA:1967689,baseline_execution.cpp:_ZN6evmone8baseline12_GLOBAL__N_16invokeEPDoFNS_10TermResultENS_8StackTopElRNS_14ExecutionStateEENS1_8PositionERlS5_
FNDA:15691155,baseline_execution.cpp:_ZN6evmone8baseline12_GLOBAL__N_16invokeILNS_6OpcodeE1EEENS1_8PositionERKSt5arrayIsLm256EEPKN4intx4uintILj256EEES4_RlRNS_14ExecutionStateE
FNDA:15691155,baseline_execution.cpp:_ZN6evmone8baseline12_GLOBAL__N_118check_requirementsILNS_6OpcodeE1EEE16evmc_status_codeRKSt5arrayIsLm256EERlPKN4intx4uintILj256EEESE_
FNDA:72444625,baseline_execution.cpp:_ZN6evmone8baseline12_GLOBAL__N_16invokeEPDoFvNS_8StackTopEENS1_8PositionERlRNS_14ExecutionStateE
FNDA:236950,baseline_execution.cpp:_ZN6evmone8baseline12_GLOBAL__N_16invokeILNS_6OpcodeE2EEENS1_8PositionERKSt5arrayIsLm256EEPKN4intx4uintILj256EEES4_RlRNS_14ExecutionStateE
FNDA:236950,baseline_execution.cpp:_ZN6evmone8baseline12_GLOBAL__N_118check_requirementsILNS_6OpcodeE2EEE16evmc_status_codeRKSt5arrayIsLm256EERlPKN4intx4uintILj256EEESE_
FNDA:3127763,baseline_execution.cpp:_ZN6evmone8baseline12_GLOBAL__N_16invokeILNS_6OpcodeE3EEENS1_8PositionERKSt5arrayIsLm256EEPKN4intx4uintILj256EEES4_RlRNS_14ExecutionStateE
FNDA:3127763,baseline_execution.cpp:_ZN6evmone8baseline12_GLOBAL__N_118check_requirementsILNS_6OpcodeE3EEE16evmc_status_codeRKSt5arrayIsLm256EERlPKN4intx4uintILj256EEESE_
FNDA:46616,baseline_execution.cpp:_ZN6evmone8baseline12_GLOBAL__N_16invokeILNS_6OpcodeE4EEENS1_8PositionERKSt5arrayIsLm256EEPKN4intx4uintILj256EEES4_RlRNS_14ExecutionStateE
FNDA:46616,baseline_execution.cpp:_ZN6evmone8baseline12_GLOBAL__N_118check_requirementsILNS_6OpcodeE4EEE16evmc_status_codeRKSt5arrayIsLm256EERlPKN4intx4uintILj256EEESE_
FNDA:4038,baseline_execution.cpp:_ZN6evmone8baseline12_GLOBAL__N_16invokeILNS_6OpcodeE5EEENS1_8PositionERKSt5arrayIsLm256EEPKN4intx4uintILj256EEES4_RlRNS_14ExecutionStateE
FNDA:4038,baseline_execution.cpp:_ZN6evmone8baseline12_GLOBAL__N_118check_requirementsILNS_6OpcodeE5EEE16evmc_status_codeRKSt5arrayIsLm256EERlPKN4intx4uintILj256EEESE_
FNDA:155025,baseline_execution.cpp:_ZN6evmone8baseline12_GLOBAL__N_16invokeILNS_6OpcodeE6EEENS1_8PositionERKSt5arrayIsLm256EEPKN4intx4uintILj256EEES4_RlRNS_14ExecutionStateE
FNDA:155025,baseline_execution.cpp:_ZN6evmone8baseline12_GLOBAL__N_118check_requirementsILNS_6OpcodeE6EEE16evmc_status_codeRKSt5arrayIsLm256EERlPKN4intx4uintILj256EEESE_
FNDA:3532,baseline_execution.cpp:_ZN6evmone8baseline12_GLOBAL__N_16invokeILNS_6OpcodeE7EEENS1_8PositionERKSt5arrayIsLm256EEPKN4intx4uintILj256EEES4_RlRNS_14ExecutionStateE
FNDA:3532,baseline_execution.cpp:_ZN6evmone8baseline12_GLOBAL__N_118check_requirementsILNS_6OpcodeE7EEE16evmc_status_codeRKSt5arrayIsLm256EERlPKN4intx4uintILj256EEESE_
FNDA:2018,baseline_execution.cpp:_ZN6evmone8baseline12_GLOBAL__N_16invokeILNS_6OpcodeE8EEENS1_8PositionERKSt5arrayIsLm256EEPKN4intx4uintILj256EEES4_RlRNS_14ExecutionStateE
FNDA:2018,baseline_execution.cpp:_ZN6evmone8baseline12_GLOBAL__N_118check_requirementsILNS_6OpcodeE8EEE16evmc_status_codeRKSt5arrayIsLm256EERlPKN4intx4uintILj256EEESE_
FNDA:2292,baseline_execution.cpp:_ZN6evmone8baseline12_GLOBAL__N_16invokeILNS_6OpcodeE9EEENS1_8PositionERKSt5arrayIsLm256EEPKN4intx4uintILj256EEES4_RlRNS_14ExecutionStateE
FNDA:2292,baseline_execution.cpp:_ZN6evmone8baseline12_GLOBAL__N_118check_requirementsILNS_6OpcodeE9EEE16evmc_status_codeRKSt5arrayIsLm256EERlPKN4intx4uintILj256EEESE_
FNDA:37190,baseline_execution.cpp:_ZN6evmone8baseline12_GLOBAL__N_16invokeILNS_6OpcodeE10EEENS1_8PositionERKSt5arrayIsLm256EEPKN4intx4uintILj256EEES4_RlRNS_14ExecutionStateE
FNDA:37190,baseline_execution.cpp:_ZN6evmone8baseline12_GLOBAL__N_118check_requirementsILNS_6OpcodeE10EEE16evmc_status_codeRKSt5arrayIsLm256EERlPKN4intx4uintILj256EEESE_
FNDA:56974659,baseline_execution.cpp:_ZN6evmone8baseline12_GLOBAL__N_16invokeEPDoFNS_6ResultENS_8StackTopElRNS_14ExecutionStateEENS1_8PositionERlS5_
FNDA:2548,baseline_execution.cpp:_ZN6evmone8baseline12_GLOBAL__N_16invokeILNS_6OpcodeE11EEENS1_8PositionERKSt5arrayIsLm256EEPKN4intx4uintILj256EEES4_RlRNS_14ExecutionStateE
FNDA:2548,baseline_execution.cpp:_ZN6evmone8baseline12_GLOBAL__N_118check_requirementsILNS_6OpcodeE11EEE16evmc_status_codeRKSt5arrayIsLm256EERlPKN4intx4uintILj256EEESE_
FNDA:2941174,baseline_execution.cpp:_ZN6evmone8baseline12_GLOBAL__N_16invokeILNS_6OpcodeE16EEENS1_8PositionERKSt5arrayIsLm256EEPKN4intx4uintILj256EEES4_RlRNS_14ExecutionStateE
FNDA:2941174,baseline_execution.cpp:_ZN6evmone8baseline12_GLOBAL__N_118check_requirementsILNS_6OpcodeE16EEE16evmc_status_codeRKSt5arrayIsLm256EERlPKN4intx4uintILj256EEESE_
FNDA:394215,baseline_execution.cpp:_ZN6evmone8baseline12_GLOBAL__N_16invokeILNS_6OpcodeE17EEENS1_8PositionERKSt5arrayIsLm256EEPKN4intx4uintILj256EEES4_RlRNS_14ExecutionStateE
FNDA:394215,baseline_execution.cpp:_ZN6evmone8baseline12_GLOBAL__N_118check_requirementsILNS_6OpcodeE17EEE16evmc_status_codeRKSt5arrayIsLm256EERlPKN4intx4uintILj256EEESE_
FNDA:6530,baseline_execution.cpp:_ZN6evmone8baseline12_GLOBAL__N_16invokeILNS_6OpcodeE18EEENS1_8PositionERKSt5arrayIsLm256EEPKN4intx4uintILj256EEES4_RlRNS_14ExecutionStateE
FNDA:6530,baseline_execution.cpp:_ZN6evmone8baseline12_GLOBAL__N_118check_requirementsILNS_6OpcodeE18EEE16evmc_status_codeRKSt5arrayIsLm256EERlPKN4intx4uintILj256EEESE_
FNDA:6170,baseline_execution.cpp:_ZN6evmone8baseline12_GLOBAL__N_16invokeILNS_6OpcodeE19EEENS1_8PositionERKSt5arrayIsLm256EEPKN4intx4uintILj256EEES4_RlRNS_14ExecutionStateE
FNDA:6170,baseline_execution.cpp:_ZN6evmone8baseline12_GLOBAL__N_118check_requirementsILNS_6OpcodeE19EEE16evmc_status_codeRKSt5arrayIsLm256EERlPKN4intx4uintILj256EEESE_
FNDA:825139,baseline_execution.cpp:_ZN6evmone8baseline12_GLOBAL__N_16invokeILNS_6OpcodeE20EEENS1_8PositionERKSt5arrayIsLm256EEPKN4intx4uintILj256EEES4_RlRNS_14ExecutionStateE
FNDA:825139,baseline_execution.cpp:_ZN6evmone8baseline12_GLOBAL__N_118check_requirementsILNS_6OpcodeE20EEE16evmc_status_codeRKSt5arrayIsLm256EERlPKN4intx4uintILj256EEESE_
FNDA:5107102,baseline_execution.cpp:_ZN6evmone8baseline12_GLOBAL__N_16invokeILNS_6OpcodeE21EEENS1_8PositionERKSt5arrayIsLm256EEPKN4intx4uintILj256EEES4_RlRNS_14ExecutionStateE
FNDA:5107102,baseline_execution.cpp:_ZN6evmone8baseline12_GLOBAL__N_118check_requirementsILNS_6OpcodeE21EEE16evmc_status_codeRKSt5arrayIsLm256EERlPKN4intx4uintILj256EEESE_
FNDA:128373,baseline_execution.cpp:_ZN6evmone8baseline12_GLOBAL__N_16invokeILNS_6OpcodeE22EEENS1_8PositionERKSt5arrayIsLm256EEPKN4intx4uintILj256EEES4_RlRNS_14ExecutionStateE
FNDA:128373,baseline_execution.cpp:_ZN6evmone8baseline12_GLOBAL__N_118check_requirementsILNS_6OpcodeE22EEE16evmc_status_codeRKSt5arrayIsLm256EERlPKN4intx4uintILj256EEESE_
FNDA:51800,baseline_execution.cpp:_ZN6evmone8baseline12_GLOBAL__N_16invokeILNS_6OpcodeE23EEENS1_8PositionERKSt5arrayIsLm256EEPKN4intx4uintILj256EEES4_RlRNS_14ExecutionStateE
FNDA:51800,baseline_execution.cpp:_ZN6evmone8baseline12_GLOBAL__N_118check_requirementsILNS_6OpcodeE23EEE16evmc_status_codeRKSt5arrayIsLm256EERlPKN4intx4uintILj256EEESE_
FNDA:1634,baseline_execution.cpp:_ZN6evmone8baseline12_GLOBAL__N_16invokeILNS_6OpcodeE24EEENS1_8PositionERKSt5arrayIsLm256EEPKN4intx4uintILj256EEES4_RlRNS_14ExecutionStateE
FNDA:1634,baseline_execution.cpp:_ZN6evmone8baseline12_GLOBAL__N_118check_requirementsILNS_6OpcodeE24EEE16evmc_status_codeRKSt5arrayIsLm256EERlPKN4intx4uintILj256EEESE_
FNDA:70330,baseline_execution.cpp:_ZN6evmone8baseline12_GLOBAL__N_16invokeILNS_6OpcodeE25EEENS1_8PositionERKSt5arrayIsLm256EEPKN4intx4uintILj256EEES4_RlRNS_14ExecutionStateE
FNDA:70330,baseline_execution.cpp:_ZN6evmone8baseline12_GLOBAL__N_118check_requirementsILNS_6OpcodeE25EEE16evmc_status_codeRKSt5arrayIsLm256EERlPKN4intx4uintILj256EEESE_
FNDA:78260,baseline_execution.cpp:_ZN6evmone8baseline12_GLOBAL__N_16invokeILNS_6OpcodeE26EEENS1_8PositionERKSt5arrayIsLm256EEPKN4intx4uintILj256EEES4_RlRNS_14ExecutionStateE
FNDA:78260,baseline_execution.cpp:_ZN6evmone8baseline12_GLOBAL__N_118check_requirementsILNS_6OpcodeE26EEE16evmc_status_codeRKSt5arrayIsLm256EERlPKN4intx4uintILj256EEESE_
FNDA:3468647,baseline_execution.cpp:_ZN6evmone8baseline12_GLOBAL__N_16invokeILNS_6OpcodeE27EEENS1_8PositionERKSt5arrayIsLm256EEPKN4intx4uintILj256EEES4_RlRNS_14ExecutionStateE
FNDA:3468647,baseline_execution.cpp:_ZN6evmone8baseline12_GLOBAL__N_118check_requirementsILNS_6OpcodeE27EEE16evmc_status_codeRKSt5arrayIsLm256EERlPKN4intx4uintILj256EEESE_
FNDA:18691,baseline_execution.cpp:_ZN6evmone8baseline12_GLOBAL__N_16invokeILNS_6OpcodeE28EEENS1_8PositionERKSt5arrayIsLm256EEPKN4intx4uintILj256EEES4_RlRNS_14ExecutionStateE
FNDA:18691,baseline_execution.cpp:_ZN6evmone8baseline12_GLOBAL__N_118check_requirementsILNS_6OpcodeE28EEE16evmc_status_codeRKSt5arrayIsLm256EERlPKN4intx4uintILj256EEESE_
FNDA:8339,baseline_execution.cpp:_ZN6evmone8baseline12_GLOBAL__N_16invokeILNS_6OpcodeE29EEENS1_8PositionERKSt5arrayIsLm256EEPKN4intx4uintILj256EEES4_RlRNS_14ExecutionStateE
FNDA:8339,baseline_execution.cpp:_ZN6evmone8baseline12_GLOBAL__N_118check_requirementsILNS_6OpcodeE29EEE16evmc_status_codeRKSt5arrayIsLm256EERlPKN4intx4uintILj256EEESE_
FNDA:3288,baseline_execution.cpp:_ZN6evmone8baseline12_GLOBAL__N_16invokeILNS_6OpcodeE30EEENS1_8PositionERKSt5arrayIsLm256EEPKN4intx4uintILj256EEES4_RlRNS_14ExecutionStateE
FNDA:3288,baseline_execution.cpp:_ZN6evmone8baseline12_GLOBAL__N_118check_requirementsILNS_6OpcodeE30EEE16evmc_status_codeRKSt5arrayIsLm256EERlPKN4intx4uintILj256EEESE_
FNDA:15555,baseline_execution.cpp:_ZN6evmone8baseline12_GLOBAL__N_16invokeILNS_6OpcodeE32EEENS1_8PositionERKSt5arrayIsLm256EEPKN4intx4uintILj256EEES4_RlRNS_14ExecutionStateE
FNDA:15555,baseline_execution.cpp:_ZN6evmone8baseline12_GLOBAL__N_118check_requirementsILNS_6OpcodeE32EEE16evmc_status_codeRKSt5arrayIsLm256EERlPKN4intx4uintILj256EEESE_
FNDA:56902,baseline_execution.cpp:_ZN6evmone8baseline12_GLOBAL__N_16invokeILNS_6OpcodeE48EEENS1_8PositionERKSt5arrayIsLm256EEPKN4intx4uintILj256EEES4_RlRNS_14ExecutionStateE
FNDA:56902,baseline_execution.cpp:_ZN6evmone8baseline12_GLOBAL__N_118check_requirementsILNS_6OpcodeE48EEE16evmc_status_codeRKSt5arrayIsLm256EERlPKN4intx4uintILj256EEESE_
FNDA:4717451,baseline_execution.cpp:_ZN6evmone8baseline12_GLOBAL__N_16invokeEPDoFvNS_8StackTopERNS_14ExecutionStateEENS1_8PositionERlS4_
FNDA:7861,baseline_execution.cpp:_ZN6evmone8baseline12_GLOBAL__N_16invokeILNS_6OpcodeE49EEENS1_8PositionERKSt5arrayIsLm256EEPKN4intx4uintILj256EEES4_RlRNS_14ExecutionStateE
FNDA:7861,baseline_execution.cpp:_ZN6evmone8baseline12_GLOBAL__N_118check_requirementsILNS_6OpcodeE49EEE16evmc_status_codeRKSt5arrayIsLm256EERlPKN4intx4uintILj256EEESE_
FNDA:23616,baseline_execution.cpp:_ZN6evmone8baseline12_GLOBAL__N_16invokeILNS_6OpcodeE50EEENS1_8PositionERKSt5arrayIsLm256EEPKN4intx4uintILj256EEES4_RlRNS_14ExecutionStateE
FNDA:23616,baseline_execution.cpp:_ZN6evmone8baseline12_GLOBAL__N_118check_requirementsILNS_6OpcodeE50EEE16evmc_status_codeRKSt5arrayIsLm256EERlPKN4intx4uintILj256EEESE_
FNDA:269597,baseline_execution.cpp:_ZN6evmone8baseline12_GLOBAL__N_16invokeILNS_6OpcodeE51EEENS1_8PositionERKSt5arrayIsLm256EEPKN4intx4uintILj256EEES4_RlRNS_14ExecutionStateE
FNDA:269597,baseline_execution.cpp:_ZN6evmone8baseline12_GLOBAL__N_118check_requirementsILNS_6OpcodeE51EEE16evmc_status_codeRKSt5arrayIsLm256EERlPKN4intx4uintILj256EEESE_
FNDA:24906,baseline_execution.cpp:_ZN6evmone8baseline12_GLOBAL__N_16invokeILNS_6OpcodeE52EEENS1_8PositionERKSt5arrayIsLm256EEPKN4intx4uintILj256EEES4_RlRNS_14ExecutionStateE
FNDA:24906,baseline_execution.cpp:_ZN6evmone8baseline12_GLOBAL__N_118check_requirementsILNS_6OpcodeE52EEE16evmc_status_codeRKSt5arrayIsLm256EERlPKN4intx4uintILj256EEESE_
FNDA:1822707,baseline_execution.cpp:_ZN6evmone8baseline12_GLOBAL__N_16invokeILNS_6OpcodeE53EEENS1_8PositionERKSt5arrayIsLm256EEPKN4intx4uintILj256EEES4_RlRNS_14ExecutionStateE
FNDA:1822707,baseline_execution.cpp:_ZN6evmone8baseline12_GLOBAL__N_118check_requirementsILNS_6OpcodeE53EEE16evmc_status_codeRKSt5arrayIsLm256EERlPKN4intx4uintILj256EEESE_
FNDA:107557,baseline_execution.cpp:_ZN6evmone8baseline12_GLOBAL__N_16invokeILNS_6OpcodeE54EEENS1_8PositionERKSt5arrayIsLm256EEPKN4intx4uintILj256EEES4_RlRNS_14ExecutionStateE
FNDA:107557,baseline_execution.cpp:_ZN6evmone8baseline12_GLOBAL__N_118check_requirementsILNS_6OpcodeE54EEE16evmc_status_codeRKSt5arrayIsLm256EERlPKN4intx4uintILj256EEESE_
FNDA:121294,baseline_execution.cpp:_ZN6evmone8baseline12_GLOBAL__N_16invokeILNS_6OpcodeE55EEENS1_8PositionERKSt5arrayIsLm256EEPKN4intx4uintILj256EEES4_RlRNS_14ExecutionStateE
FNDA:121294,baseline_execution.cpp:_ZN6evmone8baseline12_GLOBAL__N_118check_requirementsILNS_6OpcodeE55EEE16evmc_status_codeRKSt5arrayIsLm256EERlPKN4intx4uintILj256EEESE_
FNDA:21250,baseline_execution.cpp:_ZN6evmone8baseline12_GLOBAL__N_16invokeILNS_6OpcodeE56EEENS1_8PositionERKSt5arrayIsLm256EEPKN4intx4uintILj256EEES4_RlRNS_14ExecutionStateE
FNDA:21250,baseline_execution.cpp:_ZN6evmone8baseline12_GLOBAL__N_118check_requirementsILNS_6OpcodeE56EEE16evmc_status_codeRKSt5arrayIsLm256EERlPKN4intx4uintILj256EEESE_
FNDA:23268,baseline_execution.cpp:_ZN6evmone8baseline12_GLOBAL__N_16invokeILNS_6OpcodeE57EEENS1_8PositionERKSt5arrayIsLm256EEPKN4intx4uintILj256EEES4_RlRNS_14ExecutionStateE
FNDA:23268,baseline_execution.cpp:_ZN6evmone8baseline12_GLOBAL__N_118check_requirementsILNS_6OpcodeE57EEE16evmc_status_codeRKSt5arrayIsLm256EERlPKN4intx4uintILj256EEESE_
FNDA:13412,baseline_execution.cpp:_ZN6evmone8baseline12_GLOBAL__N_16invokeILNS_6OpcodeE58EEENS1_8PositionERKSt5arrayIsLm256EEPKN4intx4uintILj256EEES4_RlRNS_14ExecutionStateE
FNDA:13412,baseline_execution.cpp:_ZN6evmone8baseline12_GLOBAL__N_118check_requirementsILNS_6OpcodeE58EEE16evmc_status_codeRKSt5arrayIsLm256EERlPKN4intx4uintILj256EEESE_
FNDA:470980,baseline_execution.cpp:_ZN6evmone8baseline12_GLOBAL__N_16invokeILNS_6OpcodeE59EEENS1_8PositionERKSt5arrayIsLm256EEPKN4intx4uintILj256EEES4_RlRNS_14ExecutionStateE
FNDA:470980,baseline_execution.cpp:_ZN6evmone8baseline12_GLOBAL__N_118check_requirementsILNS_6OpcodeE59EEE16evmc_status_codeRKSt5arrayIsLm256EERlPKN4intx4uintILj256EEESE_
FNDA:12882,baseline_execution.cpp:_ZN6evmone8baseline12_GLOBAL__N_16invokeILNS_6OpcodeE60EEENS1_8PositionERKSt5arrayIsLm256EEPKN4intx4uintILj256EEES4_RlRNS_14ExecutionStateE
FNDA:12882,baseline_execution.cpp:_ZN6evmone8baseline12_GLOBAL__N_118check_requirementsILNS_6OpcodeE60EEE16evmc_status_codeRKSt5arrayIsLm256EERlPKN4intx4uintILj256EEESE_
FNDA:58653,baseline_execution.cpp:_ZN6evmone8baseline12_GLOBAL__N_16invokeILNS_6OpcodeE61EEENS1_8PositionERKSt5arrayIsLm256EEPKN4intx4uintILj256EEES4_RlRNS_14ExecutionStateE
FNDA:58653,baseline_execution.cpp:_ZN6evmone8baseline12_GLOBAL__N_118check_requirementsILNS_6OpcodeE61EEE16evmc_status_codeRKSt5arrayIsLm256EERlPKN4intx4uintILj256EEESE_
FNDA:8977,baseline_execution.cpp:_ZN6evmone8baseline12_GLOBAL__N_16invokeILNS_6OpcodeE62EEENS1_8PositionERKSt5arrayIsLm256EEPKN4intx4uintILj256EEES4_RlRNS_14ExecutionStateE
FNDA:8977,baseline_execution.cpp:_ZN6evmone8baseline12_GLOBAL__N_118check_requirementsILNS_6OpcodeE62EEE16evmc_status_codeRKSt5arrayIsLm256EERlPKN4intx4uintILj256EEESE_
FNDA:3503,baseline_execution.cpp:_ZN6evmone8baseline12_GLOBAL__N_16invokeILNS_6OpcodeE63EEENS1_8PositionERKSt5arrayIsLm256EEPKN4intx4uintILj256EEES4_RlRNS_14ExecutionStateE
FNDA:3503,baseline_execution.cpp:_ZN6evmone8baseline12_GLOBAL__N_118check_requirementsILNS_6OpcodeE63EEE16evmc_status_codeRKSt5arrayIsLm256EERlPKN4intx4uintILj256EEESE_
FNDA:69796,baseline_execution.cpp:_ZN6evmone8baseline12_GLOBAL__N_16invokeILNS_6OpcodeE64EEENS1_8PositionERKSt5arrayIsLm256EEPKN4intx4uintILj256EEES4_RlRNS_14ExecutionStateE
FNDA:69796,baseline_execution.cpp:_ZN6evmone8baseline12_GLOBAL__N_118check_requirementsILNS_6OpcodeE64EEE16evmc_status_codeRKSt5arrayIsLm256EERlPKN4intx4uintILj256EEESE_
FNDA:14924,baseline_execution.cpp:_ZN6evmone8baseline12_GLOBAL__N_16invokeILNS_6OpcodeE65EEENS1_8PositionERKSt5arrayIsLm256EEPKN4intx4uintILj256EEES4_RlRNS_14ExecutionStateE
FNDA:14924,baseline_execution.cpp:_ZN6evmone8baseline12_GLOBAL__N_118check_requirementsILNS_6OpcodeE65EEE16evmc_status_codeRKSt5arrayIsLm256EERlPKN4intx4uintILj256EEESE_
FNDA:147101,baseline_execution.cpp:_ZN6evmone8baseline12_GLOBAL__N_16invokeILNS_6OpcodeE66EEENS1_8PositionERKSt5arrayIsLm256EEPKN4intx4uintILj256EEES4_RlRNS_14ExecutionStateE
FNDA:147101,baseline_execution.cpp:_ZN6evmone8baseline12_GLOBAL__N_118check_requirementsILNS_6OpcodeE66EEE16evmc_status_codeRKSt5arrayIsLm256EERlPKN4intx4uintILj256EEESE_
FNDA:133379,baseline_execution.cpp:_ZN6evmone8baseline12_GLOBAL__N_16invokeILNS_6OpcodeE67EEENS1_8PositionERKSt5arrayIsLm256EEPKN4intx4uintILj256EEES4_RlRNS_14ExecutionStateE
FNDA:133379,baseline_execution.cpp:_ZN6evmone8baseline12_GLOBAL__N_118check_requirementsILNS_6OpcodeE67EEE16evmc_status_codeRKSt5arrayIsLm256EERlPKN4intx4uintILj256EEESE_
FNDA:13782,baseline_execution.cpp:_ZN6evmone8baseline12_GLOBAL__N_16invokeILNS_6OpcodeE68EEENS1_8PositionERKSt5arrayIsLm256EEPKN4intx4uintILj256EEES4_RlRNS_14ExecutionStateE
FNDA:13782,baseline_execution.cpp:_ZN6evmone8baseline12_GLOBAL__N_118check_requirementsILNS_6OpcodeE68EEE16evmc_status_codeRKSt5arrayIsLm256EERlPKN4intx4uintILj256EEESE_
FNDA:15246,baseline_execution.cpp:_ZN6evmone8baseline12_GLOBAL__N_16invokeILNS_6OpcodeE69EEENS1_8PositionERKSt5arrayIsLm256EEPKN4intx4uintILj256EEES4_RlRNS_14ExecutionStateE
FNDA:15246,baseline_execution.cpp:_ZN6evmone8baseline12_GLOBAL__N_118check_requirementsILNS_6OpcodeE69EEE16evmc_status_codeRKSt5arrayIsLm256EERlPKN4intx4uintILj256EEESE_
FNDA:652,baseline_execution.cpp:_ZN6evmone8baseline12_GLOBAL__N_16invokeILNS_6OpcodeE70EEENS1_8PositionERKSt5arrayIsLm256EEPKN4intx4uintILj256EEES4_RlRNS_14ExecutionStateE
FNDA:652,baseline_execution.cpp:_ZN6evmone8baseline12_GLOBAL__N_118check_requirementsILNS_6OpcodeE70EEE16evmc_status_codeRKSt5arrayIsLm256EERlPKN4intx4uintILj256EEESE_
FNDA:1764,baseline_execution.cpp:_ZN6evmone8baseline12_GLOBAL__N_16invokeILNS_6OpcodeE71EEENS1_8PositionERKSt5arrayIsLm256EEPKN4intx4uintILj256EEES4_RlRNS_14ExecutionStateE
FNDA:1764,baseline_execution.cpp:_ZN6evmone8baseline12_GLOBAL__N_118check_requirementsILNS_6OpcodeE71EEE16evmc_status_codeRKSt5arrayIsLm256EERlPKN4intx4uintILj256EEESE_
FNDA:926,baseline_execution.cpp:_ZN6evmone8baseline12_GLOBAL__N_16invokeILNS_6OpcodeE72EEENS1_8PositionERKSt5arrayIsLm256EEPKN4intx4uintILj256EEES4_RlRNS_14ExecutionStateE
FNDA:926,baseline_execution.cpp:_ZN6evmone8baseline12_GLOBAL__N_118check_requirementsILNS_6OpcodeE72EEE16evmc_status_codeRKSt5arrayIsLm256EERlPKN4intx4uintILj256EEESE_
FNDA:3522,baseline_execution.cpp:_ZN6evmone8baseline12_GLOBAL__N_16invokeILNS_6OpcodeE73EEENS1_8PositionERKSt5arrayIsLm256EEPKN4intx4uintILj256EEES4_RlRNS_14ExecutionStateE
FNDA:3522,baseline_execution.cpp:_ZN6evmone8baseline12_GLOBAL__N_118check_requirementsILNS_6OpcodeE73EEE16evmc_status_codeRKSt5arrayIsLm256EERlPKN4intx4uintILj256EEESE_
FNDA:13428,baseline_execution.cpp:_ZN6evmone8baseline12_GLOBAL__N_16invokeILNS_6OpcodeE74EEENS1_8PositionERKSt5arrayIsLm256EEPKN4intx4uintILj256EEES4_RlRNS_14ExecutionStateE
FNDA:13428,baseline_execution.cpp:_ZN6evmone8baseline12_GLOBAL__N_118check_requirementsILNS_6OpcodeE74EEE16evmc_status_codeRKSt5arrayIsLm256EERlPKN4intx4uintILj256EEESE_
FNDA:4526437,baseline_execution.cpp:_ZN6evmone8baseline12_GLOBAL__N_16invokeILNS_6OpcodeE80EEENS1_8PositionERKSt5arrayIsLm256EEPKN4intx4uintILj256EEES4_RlRNS_14ExecutionStateE
FNDA:4526437,baseline_execution.cpp:_ZN6evmone8baseline12_GLOBAL__N_118check_requirementsILNS_6OpcodeE80EEE16evmc_status_codeRKSt5arrayIsLm256EERlPKN4intx4uintILj256EEESE_
FNDA:11969026,baseline_execution.cpp:_ZN6evmone8baseline12_GLOBAL__N_16invokeILNS_6OpcodeE81EEENS1_8PositionERKSt5arrayIsLm256EEPKN4intx4uintILj256EEES4_RlRNS_14ExecutionStateE
FNDA:11969026,baseline_execution.cpp:_ZN6evmone8baseline12_GLOBAL__N_118check_requirementsILNS_6OpcodeE81EEE16evmc_status_codeRKSt5arrayIsLm256EERlPKN4intx4uintILj256EEESE_
FNDA:8580978,baseline_execution.cpp:_ZN6evmone8baseline12_GLOBAL__N_16invokeILNS_6OpcodeE82EEENS1_8PositionERKSt5arrayIsLm256EEPKN4intx4uintILj256EEES4_RlRNS_14ExecutionStateE
FNDA:8580978,baseline_execution.cpp:_ZN6evmone8baseline12_GLOBAL__N_118check_requirementsILNS_6OpcodeE82EEE16evmc_status_codeRKSt5arrayIsLm256EERlPKN4intx4uintILj256EEESE_
FNDA:155548,baseline_execution.cpp:_ZN6evmone8baseline12_GLOBAL__N_16invokeILNS_6OpcodeE83EEENS1_8PositionERKSt5arrayIsLm256EEPKN4intx4uintILj256EEES4_RlRNS_14ExecutionStateE
FNDA:155548,baseline_execution.cpp:_ZN6evmone8baseline12_GLOBAL__N_118check_requirementsILNS_6OpcodeE83EEE16evmc_status_codeRKSt5arrayIsLm256EERlPKN4intx4uintILj256EEESE_
FNDA:1014967,baseline_execution.cpp:_ZN6evmone8baseline12_GLOBAL__N_16invokeILNS_6OpcodeE84EEENS1_8PositionERKSt5arrayIsLm256EEPKN4intx4uintILj256EEES4_RlRNS_14ExecutionStateE
FNDA:1014967,baseline_execution.cpp:_ZN6evmone8baseline12_GLOBAL__N_118check_requirementsILNS_6OpcodeE84EEE16evmc_status_codeRKSt5arrayIsLm256EERlPKN4intx4uintILj256EEESE_
FNDA:4690435,baseline_execution.cpp:_ZN6evmone8baseline12_GLOBAL__N_16invokeILNS_6OpcodeE85EEENS1_8PositionERKSt5arrayIsLm256EEPKN4intx4uintILj256EEES4_RlRNS_14ExecutionStateE
FNDA:4690435,baseline_execution.cpp:_ZN6evmone8baseline12_GLOBAL__N_118check_requirementsILNS_6OpcodeE85EEE16evmc_status_codeRKSt5arrayIsLm256EERlPKN4intx4uintILj256EEESE_
FNDA:5332136,baseline_execution.cpp:_ZN6evmone8baseline12_GLOBAL__N_16invokeILNS_6OpcodeE86EEENS1_8PositionERKSt5arrayIsLm256EEPKN4intx4uintILj256EEES4_RlRNS_14ExecutionStateE
FNDA:5332136,baseline_execution.cpp:_ZN6evmone8baseline12_GLOBAL__N_118check_requirementsILNS_6OpcodeE86EEE16evmc_status_codeRKSt5arrayIsLm256EERlPKN4intx4uintILj256EEESE_
FNDA:109114373,baseline_execution.cpp:_ZN6evmone8baseline12_GLOBAL__N_16invokeEPDoFPKhNS_8StackTopERNS_14ExecutionStateES3_ENS1_8PositionERlS6_
FNDA:6931154,baseline_execution.cpp:_ZN6evmone8baseline12_GLOBAL__N_16invokeILNS_6OpcodeE87EEENS1_8PositionERKSt5arrayIsLm256EEPKN4intx4uintILj256EEES4_RlRNS_14ExecutionStateE
FNDA:6931154,baseline_execution.cpp:_ZN6evmone8baseline12_GLOBAL__N_118check_requirementsILNS_6OpcodeE87EEE16evmc_status_codeRKSt5arrayIsLm256EERlPKN4intx4uintILj256EEESE_
FNDA:5498410,baseline_execution.cpp:_ZN6evmone8baseline12_GLOBAL__N_16invokeILNS_6OpcodeE88EEENS1_8PositionERKSt5arrayIsLm256EEPKN4intx4uintILj256EEES4_RlRNS_14ExecutionStateE
FNDA:5498410,baseline_execution.cpp:_ZN6evmone8baseline12_GLOBAL__N_118check_requirementsILNS_6OpcodeE88EEE16evmc_status_codeRKSt5arrayIsLm256EERlPKN4intx4uintILj256EEESE_
FNDA:16596,baseline_execution.cpp:_ZN6evmone8baseline12_GLOBAL__N_16invokeILNS_6OpcodeE89EEENS1_8PositionERKSt5arrayIsLm256EEPKN4intx4uintILj256EEES4_RlRNS_14ExecutionStateE
FNDA:16596,baseline_execution.cpp:_ZN6evmone8baseline12_GLOBAL__N_118check_requirementsILNS_6OpcodeE89EEE16evmc_status_codeRKSt5arrayIsLm256EERlPKN4intx4uintILj256EEESE_
FNDA:16581265,baseline_execution.cpp:_ZN6evmone8baseline12_GLOBAL__N_16invokeILNS_6OpcodeE90EEENS1_8PositionERKSt5arrayIsLm256EEPKN4intx4uintILj256EEES4_RlRNS_14ExecutionStateE
FNDA:16581265,baseline_execution.cpp:_ZN6evmone8baseline12_GLOBAL__N_118check_requirementsILNS_6OpcodeE90EEE16evmc_status_codeRKSt5arrayIsLm256EERlPKN4intx4uintILj256EEESE_
FNDA:23873842,baseline_execution.cpp:_ZN6evmone8baseline12_GLOBAL__N_16invokeILNS_6OpcodeE91EEENS1_8PositionERKSt5arrayIsLm256EEPKN4intx4uintILj256EEES4_RlRNS_14ExecutionStateE
FNDA:23873842,baseline_execution.cpp:_ZN6evmone8baseline12_GLOBAL__N_118check_requirementsILNS_6OpcodeE91EEE16evmc_status_codeRKSt5arrayIsLm256EERlPKN4intx4uintILj256EEESE_
FNDA:1890843,baseline_execution.cpp:_ZN6evmone8baseline12_GLOBAL__N_16invokeILNS_6OpcodeE92EEENS1_8PositionERKSt5arrayIsLm256EEPKN4intx4uintILj256EEES4_RlRNS_14ExecutionStateE
FNDA:1890843,baseline_execution.cpp:_ZN6evmone8baseline12_GLOBAL__N_118check_requirementsILNS_6OpcodeE92EEE16evmc_status_codeRKSt5arrayIsLm256EERlPKN4intx4uintILj256EEESE_
FNDA:9080014,baseline_execution.cpp:_ZN6evmone8baseline12_GLOBAL__N_16invokeILNS_6OpcodeE93EEENS1_8PositionERKSt5arrayIsLm256EEPKN4intx4uintILj256EEES4_RlRNS_14ExecutionStateE
FNDA:9080014,baseline_execution.cpp:_ZN6evmone8baseline12_GLOBAL__N_118check_requirementsILNS_6OpcodeE93EEE16evmc_status_codeRKSt5arrayIsLm256EERlPKN4intx4uintILj256EEESE_
FNDA:2245,baseline_execution.cpp:_ZN6evmone8baseline12_GLOBAL__N_16invokeILNS_6OpcodeE94EEENS1_8PositionERKSt5arrayIsLm256EEPKN4intx4uintILj256EEES4_RlRNS_14ExecutionStateE
FNDA:2245,baseline_execution.cpp:_ZN6evmone8baseline12_GLOBAL__N_118check_requirementsILNS_6OpcodeE94EEE16evmc_status_codeRKSt5arrayIsLm256EERlPKN4intx4uintILj256EEESE_
FNDA:1157264,baseline_execution.cpp:_ZN6evmone8baseline12_GLOBAL__N_16invokeILNS_6OpcodeE95EEENS1_8PositionERKSt5arrayIsLm256EEPKN4intx4uintILj256EEES4_RlRNS_14ExecutionStateE
FNDA:1157264,baseline_execution.cpp:_ZN6evmone8baseline12_GLOBAL__N_118check_requirementsILNS_6OpcodeE95EEE16evmc_status_codeRKSt5arrayIsLm256EERlPKN4intx4uintILj256EEESE_
FNDA:76204629,baseline_execution.cpp:_ZN6evmone8baseline12_GLOBAL__N_16invokeILNS_6OpcodeE96EEENS1_8PositionERKSt5arrayIsLm256EEPKN4intx4uintILj256EEES4_RlRNS_14ExecutionStateE
FNDA:76204629,baseline_execution.cpp:_ZN6evmone8baseline12_GLOBAL__N_118check_requirementsILNS_6OpcodeE96EEE16evmc_status_codeRKSt5arrayIsLm256EERlPKN4intx4uintILj256EEESE_
FNDA:10043405,baseline_execution.cpp:_ZN6evmone8baseline12_GLOBAL__N_16invokeILNS_6OpcodeE97EEENS1_8PositionERKSt5arrayIsLm256EEPKN4intx4uintILj256EEES4_RlRNS_14ExecutionStateE
FNDA:10043405,baseline_execution.cpp:_ZN6evmone8baseline12_GLOBAL__N_118check_requirementsILNS_6OpcodeE97EEE16evmc_status_codeRKSt5arrayIsLm256EERlPKN4intx4uintILj256EEESE_
FNDA:1327055,baseline_execution.cpp:_ZN6evmone8baseline12_GLOBAL__N_16invokeILNS_6OpcodeE98EEENS1_8PositionERKSt5arrayIsLm256EEPKN4intx4uintILj256EEES4_RlRNS_14ExecutionStateE
FNDA:1327055,baseline_execution.cpp:_ZN6evmone8baseline12_GLOBAL__N_118check_requirementsILNS_6OpcodeE98EEE16evmc_status_codeRKSt5arrayIsLm256EERlPKN4intx4uintILj256EEESE_
FNDA:119400,baseline_execution.cpp:_ZN6evmone8baseline12_GLOBAL__N_16invokeILNS_6OpcodeE99EEENS1_8PositionERKSt5arrayIsLm256EEPKN4intx4uintILj256EEES4_RlRNS_14ExecutionStateE
FNDA:119400,baseline_execution.cpp:_ZN6evmone8baseline12_GLOBAL__N_118check_requirementsILNS_6OpcodeE99EEE16evmc_status_codeRKSt5arrayIsLm256EERlPKN4intx4uintILj256EEESE_
FNDA:58207,baseline_execution.cpp:_ZN6evmone8baseline12_GLOBAL__N_16invokeILNS_6OpcodeE100EEENS1_8PositionERKSt5arrayIsLm256EEPKN4intx4uintILj256EEES4_RlRNS_14ExecutionStateE
FNDA:58207,baseline_execution.cpp:_ZN6evmone8baseline12_GLOBAL__N_118check_requirementsILNS_6OpcodeE100EEE16evmc_status_codeRKSt5arrayIsLm256EERlPKN4intx4uintILj256EEESE_
FNDA:111196,baseline_execution.cpp:_ZN6evmone8baseline12_GLOBAL__N_16invokeILNS_6OpcodeE101EEENS1_8PositionERKSt5arrayIsLm256EEPKN4intx4uintILj256EEES4_RlRNS_14ExecutionStateE
FNDA:111196,baseline_execution.cpp:_ZN6evmone8baseline12_GLOBAL__N_118check_requirementsILNS_6OpcodeE101EEE16evmc_status_codeRKSt5arrayIsLm256EERlPKN4intx4uintILj256EEESE_
FNDA:46652,baseline_execution.cpp:_ZN6evmone8baseline12_GLOBAL__N_16invokeILNS_6OpcodeE102EEENS1_8PositionERKSt5arrayIsLm256EEPKN4intx4uintILj256EEES4_RlRNS_14ExecutionStateE
FNDA:46652,baseline_execution.cpp:_ZN6evmone8baseline12_GLOBAL__N_118check_requirementsILNS_6OpcodeE102EEE16evmc_status_codeRKSt5arrayIsLm256EERlPKN4intx4uintILj256EEESE_
FNDA:47340,baseline_execution.cpp:_ZN6evmone8baseline12_GLOBAL__N_16invokeILNS_6OpcodeE103EEENS1_8PositionERKSt5arrayIsLm256EEPKN4intx4uintILj256EEES4_RlRNS_14ExecutionStateE
FNDA:47340,baseline_execution.cpp:_ZN6evmone8baseline12_GLOBAL__N_118check_requirementsILNS_6OpcodeE103EEE16evmc_status_codeRKSt5arrayIsLm256EERlPKN4intx4uintILj256EEESE_
FNDA:40406,baseline_execution.cpp:_ZN6evmone8baseline12_GLOBAL__N_16invokeILNS_6OpcodeE104EEENS1_8PositionERKSt5arrayIsLm256EEPKN4intx4uintILj256EEES4_RlRNS_14ExecutionStateE
FNDA:40406,baseline_execution.cpp:_ZN6evmone8baseline12_GLOBAL__N_118check_requirementsILNS_6OpcodeE104EEE16evmc_status_codeRKSt5arrayIsLm256EERlPKN4intx4uintILj256EEESE_
FNDA:34722,baseline_execution.cpp:_ZN6evmone8baseline12_GLOBAL__N_16invokeILNS_6OpcodeE105EEENS1_8PositionERKSt5arrayIsLm256EEPKN4intx4uintILj256EEES4_RlRNS_14ExecutionStateE
FNDA:34722,baseline_execution.cpp:_ZN6evmone8baseline12_GLOBAL__N_118check_requirementsILNS_6OpcodeE105EEE16evmc_status_codeRKSt5arrayIsLm256EERlPKN4intx4uintILj256EEESE_
FNDA:28844,baseline_execution.cpp:_ZN6evmone8baseline12_GLOBAL__N_16invokeILNS_6OpcodeE106EEENS1_8PositionERKSt5arrayIsLm256EEPKN4intx4uintILj256EEES4_RlRNS_14ExecutionStateE
FNDA:28844,baseline_execution.cpp:_ZN6evmone8baseline12_GLOBAL__N_118check_requirementsILNS_6OpcodeE106EEE16evmc_status_codeRKSt5arrayIsLm256EERlPKN4intx4uintILj256EEESE_
FNDA:40496,baseline_execution.cpp:_ZN6evmone8baseline12_GLOBAL__N_16invokeILNS_6OpcodeE107EEENS1_8PositionERKSt5arrayIsLm256EEPKN4intx4uintILj256EEES4_RlRNS_14ExecutionStateE
FNDA:40496,baseline_execution.cpp:_ZN6evmone8baseline12_GLOBAL__N_118check_requirementsILNS_6OpcodeE107EEE16evmc_status_codeRKSt5arrayIsLm256EERlPKN4intx4uintILj256EEESE_
FNDA:38807,baseline_execution.cpp:_ZN6evmone8baseline12_GLOBAL__N_16invokeILNS_6OpcodeE108EEENS1_8PositionERKSt5arrayIsLm256EEPKN4intx4uintILj256EEES4_RlRNS_14ExecutionStateE
FNDA:38807,baseline_execution.cpp:_ZN6evmone8baseline12_GLOBAL__N_118check_requirementsILNS_6OpcodeE108EEE16evmc_status_codeRKSt5arrayIsLm256EERlPKN4intx4uintILj256EEESE_
FNDA:34124,baseline_execution.cpp:_ZN6evmone8baseline12_GLOBAL__N_16invokeILNS_6OpcodeE109EEENS1_8PositionERKSt5arrayIsLm256EEPKN4intx4uintILj256EEES4_RlRNS_14ExecutionStateE
FNDA:34124,baseline_execution.cpp:_ZN6evmone8baseline12_GLOBAL__N_118check_requirementsILNS_6OpcodeE109EEE16evmc_status_codeRKSt5arrayIsLm256EERlPKN4intx4uintILj256EEESE_
FNDA:29056,baseline_execution.cpp:_ZN6evmone8baseline12_GLOBAL__N_16invokeILNS_6OpcodeE110EEENS1_8PositionERKSt5arrayIsLm256EEPKN4intx4uintILj256EEES4_RlRNS_14ExecutionStateE
FNDA:29056,baseline_execution.cpp:_ZN6evmone8baseline12_GLOBAL__N_118check_requirementsILNS_6OpcodeE110EEE16evmc_status_codeRKSt5arrayIsLm256EERlPKN4intx4uintILj256EEESE_
FNDA:48524,baseline_execution.cpp:_ZN6evmone8baseline12_GLOBAL__N_16invokeILNS_6OpcodeE111EEENS1_8PositionERKSt5arrayIsLm256EEPKN4intx4uintILj256EEES4_RlRNS_14ExecutionStateE
FNDA:48524,baseline_execution.cpp:_ZN6evmone8baseline12_GLOBAL__N_118check_requirementsILNS_6OpcodeE111EEE16evmc_status_codeRKSt5arrayIsLm256EERlPKN4intx4uintILj256EEESE_
FNDA:21254,baseline_execution.cpp:_ZN6evmone8baseline12_GLOBAL__N_16invokeILNS_6OpcodeE112EEENS1_8PositionERKSt5arrayIsLm256EEPKN4intx4uintILj256EEES4_RlRNS_14ExecutionStateE
FNDA:21254,baseline_execution.cpp:_ZN6evmone8baseline12_GLOBAL__N_118check_requirementsILNS_6OpcodeE112EEE16evmc_status_codeRKSt5arrayIsLm256EERlPKN4intx4uintILj256EEESE_
FNDA:66230,baseline_execution.cpp:_ZN6evmone8baseline12_GLOBAL__N_16invokeILNS_6OpcodeE113EEENS1_8PositionERKSt5arrayIsLm256EEPKN4intx4uintILj256EEES4_RlRNS_14ExecutionStateE
FNDA:66230,baseline_execution.cpp:_ZN6evmone8baseline12_GLOBAL__N_118check_requirementsILNS_6OpcodeE113EEE16evmc_status_codeRKSt5arrayIsLm256EERlPKN4intx4uintILj256EEESE_
FNDA:30732,baseline_execution.cpp:_ZN6evmone8baseline12_GLOBAL__N_16invokeILNS_6OpcodeE114EEENS1_8PositionERKSt5arrayIsLm256EEPKN4intx4uintILj256EEES4_RlRNS_14ExecutionStateE
FNDA:30732,baseline_execution.cpp:_ZN6evmone8baseline12_GLOBAL__N_118check_requirementsILNS_6OpcodeE114EEE16evmc_status_codeRKSt5arrayIsLm256EERlPKN4intx4uintILj256EEESE_
FNDA:2238546,baseline_execution.cpp:_ZN6evmone8baseline12_GLOBAL__N_16invokeILNS_6OpcodeE115EEENS1_8PositionERKSt5arrayIsLm256EEPKN4intx4uintILj256EEES4_RlRNS_14ExecutionStateE
FNDA:2238546,baseline_execution.cpp:_ZN6evmone8baseline12_GLOBAL__N_118check_requirementsILNS_6OpcodeE115EEE16evmc_status_codeRKSt5arrayIsLm256EERlPKN4intx4uintILj256EEESE_
FNDA:45012,baseline_execution.cpp:_ZN6evmone8baseline12_GLOBAL__N_16invokeILNS_6OpcodeE116EEENS1_8PositionERKSt5arrayIsLm256EEPKN4intx4uintILj256EEES4_RlRNS_14ExecutionStateE
FNDA:45012,baseline_execution.cpp:_ZN6evmone8baseline12_GLOBAL__N_118check_requirementsILNS_6OpcodeE116EEE16evmc_status_codeRKSt5arrayIsLm256EERlPKN4intx4uintILj256EEESE_
FNDA:37374,baseline_execution.cpp:_ZN6evmone8baseline12_GLOBAL__N_16invokeILNS_6OpcodeE117EEENS1_8PositionERKSt5arrayIsLm256EEPKN4intx4uintILj256EEES4_RlRNS_14ExecutionStateE
FNDA:37374,baseline_execution.cpp:_ZN6evmone8baseline12_GLOBAL__N_118check_requirementsILNS_6OpcodeE117EEE16evmc_status_codeRKSt5arrayIsLm256EERlPKN4intx4uintILj256EEESE_
FNDA:37961,baseline_execution.cpp:_ZN6evmone8baseline12_GLOBAL__N_16invokeILNS_6OpcodeE118EEENS1_8PositionERKSt5arrayIsLm256EEPKN4intx4uintILj256EEES4_RlRNS_14ExecutionStateE
FNDA:37961,baseline_execution.cpp:_ZN6evmone8baseline12_GLOBAL__N_118check_requirementsILNS_6OpcodeE118EEE16evmc_status_codeRKSt5arrayIsLm256EERlPKN4intx4uintILj256EEESE_
FNDA:31832,baseline_execution.cpp:_ZN6evmone8baseline12_GLOBAL__N_16invokeILNS_6OpcodeE119EEENS1_8PositionERKSt5arrayIsLm256EEPKN4intx4uintILj256EEES4_RlRNS_14ExecutionStateE
FNDA:31832,baseline_execution.cpp:_ZN6evmone8baseline12_GLOBAL__N_118check_requirementsILNS_6OpcodeE119EEE16evmc_status_codeRKSt5arrayIsLm256EERlPKN4intx4uintILj256EEESE_
FNDA:30162,baseline_execution.cpp:_ZN6evmone8baseline12_GLOBAL__N_16invokeILNS_6OpcodeE120EEENS1_8PositionERKSt5arrayIsLm256EEPKN4intx4uintILj256EEES4_RlRNS_14ExecutionStateE
FNDA:30162,baseline_execution.cpp:_ZN6evmone8baseline12_GLOBAL__N_118check_requirementsILNS_6OpcodeE120EEE16evmc_status_codeRKSt5arrayIsLm256EERlPKN4intx4uintILj256EEESE_
FNDA:41061,baseline_execution.cpp:_ZN6evmone8baseline12_GLOBAL__N_16invokeILNS_6OpcodeE121EEENS1_8PositionERKSt5arrayIsLm256EEPKN4intx4uintILj256EEES4_RlRNS_14ExecutionStateE
FNDA:41061,baseline_execution.cpp:_ZN6evmone8baseline12_GLOBAL__N_118check_requirementsILNS_6OpcodeE121EEE16evmc_status_codeRKSt5arrayIsLm256EERlPKN4intx4uintILj256EEESE_
FNDA:42094,baseline_execution.cpp:_ZN6evmone8baseline12_GLOBAL__N_16invokeILNS_6OpcodeE122EEENS1_8PositionERKSt5arrayIsLm256EEPKN4intx4uintILj256EEES4_RlRNS_14ExecutionStateE
FNDA:42094,baseline_execution.cpp:_ZN6evmone8baseline12_GLOBAL__N_118check_requirementsILNS_6OpcodeE122EEE16evmc_status_codeRKSt5arrayIsLm256EERlPKN4intx4uintILj256EEESE_
FNDA:28734,baseline_execution.cpp:_ZN6evmone8baseline12_GLOBAL__N_16invokeILNS_6OpcodeE123EEENS1_8PositionERKSt5arrayIsLm256EEPKN4intx4uintILj256EEES4_RlRNS_14ExecutionStateE
FNDA:28734,baseline_execution.cpp:_ZN6evmone8baseline12_GLOBAL__N_118check_requirementsILNS_6OpcodeE123EEE16evmc_status_codeRKSt5arrayIsLm256EERlPKN4intx4uintILj256EEESE_
FNDA:34402,baseline_execution.cpp:_ZN6evmone8baseline12_GLOBAL__N_16invokeILNS_6OpcodeE124EEENS1_8PositionERKSt5arrayIsLm256EEPKN4intx4uintILj256EEES4_RlRNS_14ExecutionStateE
FNDA:34402,baseline_execution.cpp:_ZN6evmone8baseline12_GLOBAL__N_118check_requirementsILNS_6OpcodeE124EEE16evmc_status_codeRKSt5arrayIsLm256EERlPKN4intx4uintILj256EEESE_
FNDA:24972,baseline_execution.cpp:_ZN6evmone8baseline12_GLOBAL__N_16invokeILNS_6OpcodeE125EEENS1_8PositionERKSt5arrayIsLm256EEPKN4intx4uintILj256EEES4_RlRNS_14ExecutionStateE
FNDA:24972,baseline_execution.cpp:_ZN6evmone8baseline12_GLOBAL__N_118check_requirementsILNS_6OpcodeE125EEE16evmc_status_codeRKSt5arrayIsLm256EERlPKN4intx4uintILj256EEESE_
FNDA:93288,baseline_execution.cpp:_ZN6evmone8baseline12_GLOBAL__N_16invokeILNS_6OpcodeE126EEENS1_8PositionERKSt5arrayIsLm256EEPKN4intx4uintILj256EEES4_RlRNS_14ExecutionStateE
FNDA:93288,baseline_execution.cpp:_ZN6evmone8baseline12_GLOBAL__N_118check_requirementsILNS_6OpcodeE126EEE16evmc_status_codeRKSt5arrayIsLm256EERlPKN4intx4uintILj256EEESE_
FNDA:301134,baseline_execution.cpp:_ZN6evmone8baseline12_GLOBAL__N_16invokeILNS_6OpcodeE127EEENS1_8PositionERKSt5arrayIsLm256EEPKN4intx4uintILj256EEES4_RlRNS_14ExecutionStateE
FNDA:301134,baseline_execution.cpp:_ZN6evmone8baseline12_GLOBAL__N_118check_requirementsILNS_6OpcodeE127EEE16evmc_status_codeRKSt5arrayIsLm256EERlPKN4intx4uintILj256EEESE_
FNDA:5878371,baseline_execution.cpp:_ZN6evmone8baseline12_GLOBAL__N_16invokeILNS_6OpcodeE128EEENS1_8PositionERKSt5arrayIsLm256EEPKN4intx4uintILj256EEES4_RlRNS_14ExecutionStateE
FNDA:5878371,baseline_execution.cpp:_ZN6evmone8baseline12_GLOBAL__N_118check_requirementsILNS_6OpcodeE128EEE16evmc_status_codeRKSt5arrayIsLm256EERlPKN4intx4uintILj256EEESE_
FNDA:1256499,baseline_execution.cpp:_ZN6evmone8baseline12_GLOBAL__N_16invokeILNS_6OpcodeE129EEENS1_8PositionERKSt5arrayIsLm256EEPKN4intx4uintILj256EEES4_RlRNS_14ExecutionStateE
FNDA:1256499,baseline_execution.cpp:_ZN6evmone8baseline12_GLOBAL__N_118check_requirementsILNS_6OpcodeE129EEE16evmc_status_codeRKSt5arrayIsLm256EERlPKN4intx4uintILj256EEESE_
FNDA:617183,baseline_execution.cpp:_ZN6evmone8baseline12_GLOBAL__N_16invokeILNS_6OpcodeE130EEENS1_8PositionERKSt5arrayIsLm256EEPKN4intx4uintILj256EEES4_RlRNS_14ExecutionStateE
FNDA:617183,baseline_execution.cpp:_ZN6evmone8baseline12_GLOBAL__N_118check_requirementsILNS_6OpcodeE130EEE16evmc_status_codeRKSt5arrayIsLm256EERlPKN4intx4uintILj256EEESE_
FNDA:291970,baseline_execution.cpp:_ZN6evmone8baseline12_GLOBAL__N_16invokeILNS_6OpcodeE131EEENS1_8PositionERKSt5arrayIsLm256EEPKN4intx4uintILj256EEES4_RlRNS_14ExecutionStateE
FNDA:291970,baseline_execution.cpp:_ZN6evmone8baseline12_GLOBAL__N_118check_requirementsILNS_6OpcodeE131EEE16evmc_status_codeRKSt5arrayIsLm256EERlPKN4intx4uintILj256EEESE_
FNDA:126874,baseline_execution.cpp:_ZN6evmone8baseline12_GLOBAL__N_16invokeILNS_6OpcodeE132EEENS1_8PositionERKSt5arrayIsLm256EEPKN4intx4uintILj256EEES4_RlRNS_14ExecutionStateE
FNDA:126874,baseline_execution.cpp:_ZN6evmone8baseline12_GLOBAL__N_118check_requirementsILNS_6OpcodeE132EEE16evmc_status_codeRKSt5arrayIsLm256EERlPKN4intx4uintILj256EEESE_
FNDA:64904,baseline_execution.cpp:_ZN6evmone8baseline12_GLOBAL__N_16invokeILNS_6OpcodeE133EEENS1_8PositionERKSt5arrayIsLm256EEPKN4intx4uintILj256EEES4_RlRNS_14ExecutionStateE
FNDA:64904,baseline_execution.cpp:_ZN6evmone8baseline12_GLOBAL__N_118check_requirementsILNS_6OpcodeE133EEE16evmc_status_codeRKSt5arrayIsLm256EERlPKN4intx4uintILj256EEESE_
FNDA:47832,baseline_execution.cpp:_ZN6evmone8baseline12_GLOBAL__N_16invokeILNS_6OpcodeE134EEENS1_8PositionERKSt5arrayIsLm256EEPKN4intx4uintILj256EEES4_RlRNS_14ExecutionStateE
FNDA:47832,baseline_execution.cpp:_ZN6evmone8baseline12_GLOBAL__N_118check_requirementsILNS_6OpcodeE134EEE16evmc_status_codeRKSt5arrayIsLm256EERlPKN4intx4uintILj256EEESE_
FNDA:443802,baseline_execution.cpp:_ZN6evmone8baseline12_GLOBAL__N_16invokeILNS_6OpcodeE135EEENS1_8PositionERKSt5arrayIsLm256EEPKN4intx4uintILj256EEES4_RlRNS_14ExecutionStateE
FNDA:443802,baseline_execution.cpp:_ZN6evmone8baseline12_GLOBAL__N_118check_requirementsILNS_6OpcodeE135EEE16evmc_status_codeRKSt5arrayIsLm256EERlPKN4intx4uintILj256EEESE_
FNDA:27016,baseline_execution.cpp:_ZN6evmone8baseline12_GLOBAL__N_16invokeILNS_6OpcodeE136EEENS1_8PositionERKSt5arrayIsLm256EEPKN4intx4uintILj256EEES4_RlRNS_14ExecutionStateE
FNDA:27016,baseline_execution.cpp:_ZN6evmone8baseline12_GLOBAL__N_118check_requirementsILNS_6OpcodeE136EEE16evmc_status_codeRKSt5arrayIsLm256EERlPKN4intx4uintILj256EEESE_
FNDA:53318,baseline_execution.cpp:_ZN6evmone8baseline12_GLOBAL__N_16invokeILNS_6OpcodeE137EEENS1_8PositionERKSt5arrayIsLm256EEPKN4intx4uintILj256EEES4_RlRNS_14ExecutionStateE
FNDA:53318,baseline_execution.cpp:_ZN6evmone8baseline12_GLOBAL__N_118check_requirementsILNS_6OpcodeE137EEE16evmc_status_codeRKSt5arrayIsLm256EERlPKN4intx4uintILj256EEESE_
FNDA:24970,baseline_execution.cpp:_ZN6evmone8baseline12_GLOBAL__N_16invokeILNS_6OpcodeE138EEENS1_8PositionERKSt5arrayIsLm256EEPKN4intx4uintILj256EEES4_RlRNS_14ExecutionStateE
FNDA:24970,baseline_execution.cpp:_ZN6evmone8baseline12_GLOBAL__N_118check_requirementsILNS_6OpcodeE138EEE16evmc_status_codeRKSt5arrayIsLm256EERlPKN4intx4uintILj256EEESE_
FNDA:16598,baseline_execution.cpp:_ZN6evmone8baseline12_GLOBAL__N_16invokeILNS_6OpcodeE139EEENS1_8PositionERKSt5arrayIsLm256EEPKN4intx4uintILj256EEES4_RlRNS_14ExecutionStateE
FNDA:16598,baseline_execution.cpp:_ZN6evmone8baseline12_GLOBAL__N_118check_requirementsILNS_6OpcodeE139EEE16evmc_status_codeRKSt5arrayIsLm256EERlPKN4intx4uintILj256EEESE_
FNDA:30584,baseline_execution.cpp:_ZN6evmone8baseline12_GLOBAL__N_16invokeILNS_6OpcodeE140EEENS1_8PositionERKSt5arrayIsLm256EEPKN4intx4uintILj256EEES4_RlRNS_14ExecutionStateE
FNDA:30584,baseline_execution.cpp:_ZN6evmone8baseline12_GLOBAL__N_118check_requirementsILNS_6OpcodeE140EEE16evmc_status_codeRKSt5arrayIsLm256EERlPKN4intx4uintILj256EEESE_
FNDA:15046,baseline_execution.cpp:_ZN6evmone8baseline12_GLOBAL__N_16invokeILNS_6OpcodeE141EEENS1_8PositionERKSt5arrayIsLm256EEPKN4intx4uintILj256EEES4_RlRNS_14ExecutionStateE
FNDA:15046,baseline_execution.cpp:_ZN6evmone8baseline12_GLOBAL__N_118check_requirementsILNS_6OpcodeE141EEE16evmc_status_codeRKSt5arrayIsLm256EERlPKN4intx4uintILj256EEESE_
FNDA:25232,baseline_execution.cpp:_ZN6evmone8baseline12_GLOBAL__N_16invokeILNS_6OpcodeE142EEENS1_8PositionERKSt5arrayIsLm256EEPKN4intx4uintILj256EEES4_RlRNS_14ExecutionStateE
FNDA:25232,baseline_execution.cpp:_ZN6evmone8baseline12_GLOBAL__N_118check_requirementsILNS_6OpcodeE142EEE16evmc_status_codeRKSt5arrayIsLm256EERlPKN4intx4uintILj256EEESE_
FNDA:17384,baseline_execution.cpp:_ZN6evmone8baseline12_GLOBAL__N_16invokeILNS_6OpcodeE143EEENS1_8PositionERKSt5arrayIsLm256EEPKN4intx4uintILj256EEES4_RlRNS_14ExecutionStateE
FNDA:17384,baseline_execution.cpp:_ZN6evmone8baseline12_GLOBAL__N_118check_requirementsILNS_6OpcodeE143EEE16evmc_status_codeRKSt5arrayIsLm256EERlPKN4intx4uintILj256EEESE_
FNDA:722971,baseline_execution.cpp:_ZN6evmone8baseline12_GLOBAL__N_16invokeILNS_6OpcodeE144EEENS1_8PositionERKSt5arrayIsLm256EEPKN4intx4uintILj256EEES4_RlRNS_14ExecutionStateE
FNDA:722971,baseline_execution.cpp:_ZN6evmone8baseline12_GLOBAL__N_118check_requirementsILNS_6OpcodeE144EEE16evmc_status_codeRKSt5arrayIsLm256EERlPKN4intx4uintILj256EEESE_
FNDA:402714,baseline_execution.cpp:_ZN6evmone8baseline12_GLOBAL__N_16invokeILNS_6OpcodeE145EEENS1_8PositionERKSt5arrayIsLm256EEPKN4intx4uintILj256EEES4_RlRNS_14ExecutionStateE
FNDA:402714,baseline_execution.cpp:_ZN6evmone8baseline12_GLOBAL__N_118check_requirementsILNS_6OpcodeE145EEE16evmc_status_codeRKSt5arrayIsLm256EERlPKN4intx4uintILj256EEESE_
FNDA:271324,baseline_execution.cpp:_ZN6evmone8baseline12_GLOBAL__N_16invokeILNS_6OpcodeE146EEENS1_8PositionERKSt5arrayIsLm256EEPKN4intx4uintILj256EEES4_RlRNS_14ExecutionStateE
FNDA:271324,baseline_execution.cpp:_ZN6evmone8baseline12_GLOBAL__N_118check_requirementsILNS_6OpcodeE146EEE16evmc_status_codeRKSt5arrayIsLm256EERlPKN4intx4uintILj256EEESE_
FNDA:87302,baseline_execution.cpp:_ZN6evmone8baseline12_GLOBAL__N_16invokeILNS_6OpcodeE147EEENS1_8PositionERKSt5arrayIsLm256EEPKN4intx4uintILj256EEES4_RlRNS_14ExecutionStateE
FNDA:87302,baseline_execution.cpp:_ZN6evmone8baseline12_GLOBAL__N_118check_requirementsILNS_6OpcodeE147EEE16evmc_status_codeRKSt5arrayIsLm256EERlPKN4intx4uintILj256EEESE_
FNDA:36994,baseline_execution.cpp:_ZN6evmone8baseline12_GLOBAL__N_16invokeILNS_6OpcodeE148EEENS1_8PositionERKSt5arrayIsLm256EEPKN4intx4uintILj256EEES4_RlRNS_14ExecutionStateE
FNDA:36994,baseline_execution.cpp:_ZN6evmone8baseline12_GLOBAL__N_118check_requirementsILNS_6OpcodeE148EEE16evmc_status_codeRKSt5arrayIsLm256EERlPKN4intx4uintILj256EEESE_
FNDA:8232,baseline_execution.cpp:_ZN6evmone8baseline12_GLOBAL__N_16invokeILNS_6OpcodeE149EEENS1_8PositionERKSt5arrayIsLm256EEPKN4intx4uintILj256EEES4_RlRNS_14ExecutionStateE
FNDA:8232,baseline_execution.cpp:_ZN6evmone8baseline12_GLOBAL__N_118check_requirementsILNS_6OpcodeE149EEE16evmc_status_codeRKSt5arrayIsLm256EERlPKN4intx4uintILj256EEESE_
FNDA:3820,baseline_execution.cpp:_ZN6evmone8baseline12_GLOBAL__N_16invokeILNS_6OpcodeE150EEENS1_8PositionERKSt5arrayIsLm256EEPKN4intx4uintILj256EEES4_RlRNS_14ExecutionStateE
FNDA:3820,baseline_execution.cpp:_ZN6evmone8baseline12_GLOBAL__N_118check_requirementsILNS_6OpcodeE150EEE16evmc_status_codeRKSt5arrayIsLm256EERlPKN4intx4uintILj256EEESE_
FNDA:7730,baseline_execution.cpp:_ZN6evmone8baseline12_GLOBAL__N_16invokeILNS_6OpcodeE151EEENS1_8PositionERKSt5arrayIsLm256EEPKN4intx4uintILj256EEES4_RlRNS_14ExecutionStateE
FNDA:7730,baseline_execution.cpp:_ZN6evmone8baseline12_GLOBAL__N_118check_requirementsILNS_6OpcodeE151EEE16evmc_status_codeRKSt5arrayIsLm256EERlPKN4intx4uintILj256EEESE_
FNDA:5860,baseline_execution.cpp:_ZN6evmone8baseline12_GLOBAL__N_16invokeILNS_6OpcodeE152EEENS1_8PositionERKSt5arrayIsLm256EEPKN4intx4uintILj256EEES4_RlRNS_14ExecutionStateE
FNDA:5860,baseline_execution.cpp:_ZN6evmone8baseline12_GLOBAL__N_118check_requirementsILNS_6OpcodeE152EEE16evmc_status_codeRKSt5arrayIsLm256EERlPKN4intx4uintILj256EEESE_
FNDA:2246,baseline_execution.cpp:_ZN6evmone8baseline12_GLOBAL__N_16invokeILNS_6OpcodeE153EEENS1_8PositionERKSt5arrayIsLm256EEPKN4intx4uintILj256EEES4_RlRNS_14ExecutionStateE
FNDA:2246,baseline_execution.cpp:_ZN6evmone8baseline12_GLOBAL__N_118check_requirementsILNS_6OpcodeE153EEE16evmc_status_codeRKSt5arrayIsLm256EERlPKN4intx4uintILj256EEESE_
FNDA:2676,baseline_execution.cpp:_ZN6evmone8baseline12_GLOBAL__N_16invokeILNS_6OpcodeE154EEENS1_8PositionERKSt5arrayIsLm256EEPKN4intx4uintILj256EEES4_RlRNS_14ExecutionStateE
FNDA:2676,baseline_execution.cpp:_ZN6evmone8baseline12_GLOBAL__N_118check_requirementsILNS_6OpcodeE154EEE16evmc_status_codeRKSt5arrayIsLm256EERlPKN4intx4uintILj256EEESE_
FNDA:6732,baseline_execution.cpp:_ZN6evmone8baseline12_GLOBAL__N_16invokeILNS_6OpcodeE155EEENS1_8PositionERKSt5arrayIsLm256EEPKN4intx4uintILj256EEES4_RlRNS_14ExecutionStateE
FNDA:6732,baseline_execution.cpp:_ZN6evmone8baseline12_GLOBAL__N_118check_requirementsILNS_6OpcodeE155EEE16evmc_status_codeRKSt5arrayIsLm256EERlPKN4intx4uintILj256EEESE_
FNDA:4186,baseline_execution.cpp:_ZN6evmone8baseline12_GLOBAL__N_16invokeILNS_6OpcodeE156EEENS1_8PositionERKSt5arrayIsLm256EEPKN4intx4uintILj256EEES4_RlRNS_14ExecutionStateE
FNDA:4186,baseline_execution.cpp:_ZN6evmone8baseline12_GLOBAL__N_118check_requirementsILNS_6OpcodeE156EEE16evmc_status_codeRKSt5arrayIsLm256EERlPKN4intx4uintILj256EEESE_
FNDA:3602,baseline_execution.cpp:_ZN6evmone8baseline12_GLOBAL__N_16invokeILNS_6OpcodeE157EEENS1_8PositionERKSt5arrayIsLm256EEPKN4intx4uintILj256EEES4_RlRNS_14ExecutionStateE
FNDA:3602,baseline_execution.cpp:_ZN6evmone8baseline12_GLOBAL__N_118check_requirementsILNS_6OpcodeE157EEE16evmc_status_codeRKSt5arrayIsLm256EERlPKN4intx4uintILj256EEESE_
FNDA:2352,baseline_execution.cpp:_ZN6evmone8baseline12_GLOBAL__N_16invokeILNS_6OpcodeE158EEENS1_8PositionERKSt5arrayIsLm256EEPKN4intx4uintILj256EEES4_RlRNS_14ExecutionStateE
FNDA:2352,baseline_execution.cpp:_ZN6evmone8baseline12_GLOBAL__N_118check_requirementsILNS_6OpcodeE158EEE16evmc_status_codeRKSt5arrayIsLm256EERlPKN4intx4uintILj256EEESE_
FNDA:2358,baseline_execution.cpp:_ZN6evmone8baseline12_GLOBAL__N_16invokeILNS_6OpcodeE159EEENS1_8PositionERKSt5arrayIsLm256EEPKN4intx4uintILj256EEES4_RlRNS_14ExecutionStateE
FNDA:2358,baseline_execution.cpp:_ZN6evmone8baseline12_GLOBAL__N_118check_requirementsILNS_6OpcodeE159EEE16evmc_status_codeRKSt5arrayIsLm256EERlPKN4intx4uintILj256EEESE_
FNDA:9386,baseline_execution.cpp:_ZN6evmone8baseline12_GLOBAL__N_16invokeILNS_6OpcodeE160EEENS1_8PositionERKSt5arrayIsLm256EEPKN4intx4uintILj256EEES4_RlRNS_14ExecutionStateE
FNDA:9386,baseline_execution.cpp:_ZN6evmone8baseline12_GLOBAL__N_118check_requirementsILNS_6OpcodeE160EEE16evmc_status_codeRKSt5arrayIsLm256EERlPKN4intx4uintILj256EEESE_
FNDA:8225,baseline_execution.cpp:_ZN6evmone8baseline12_GLOBAL__N_16invokeILNS_6OpcodeE161EEENS1_8PositionERKSt5arrayIsLm256EEPKN4intx4uintILj256EEES4_RlRNS_14ExecutionStateE
FNDA:8225,baseline_execution.cpp:_ZN6evmone8baseline12_GLOBAL__N_118check_requirementsILNS_6OpcodeE161EEE16evmc_status_codeRKSt5arrayIsLm256EERlPKN4intx4uintILj256EEESE_
FNDA:4609,baseline_execution.cpp:_ZN6evmone8baseline12_GLOBAL__N_16invokeILNS_6OpcodeE162EEENS1_8PositionERKSt5arrayIsLm256EEPKN4intx4uintILj256EEES4_RlRNS_14ExecutionStateE
FNDA:4609,baseline_execution.cpp:_ZN6evmone8baseline12_GLOBAL__N_118check_requirementsILNS_6OpcodeE162EEE16evmc_status_codeRKSt5arrayIsLm256EERlPKN4intx4uintILj256EEESE_
FNDA:6785,baseline_execution.cpp:_ZN6evmone8baseline12_GLOBAL__N_16invokeILNS_6OpcodeE163EEENS1_8PositionERKSt5arrayIsLm256EEPKN4intx4uintILj256EEES4_RlRNS_14ExecutionStateE
FNDA:6785,baseline_execution.cpp:_ZN6evmone8baseline12_GLOBAL__N_118check_requirementsILNS_6OpcodeE163EEE16evmc_status_codeRKSt5arrayIsLm256EERlPKN4intx4uintILj256EEESE_
FNDA:767,baseline_execution.cpp:_ZN6evmone8baseline12_GLOBAL__N_16invokeILNS_6OpcodeE164EEENS1_8PositionERKSt5arrayIsLm256EEPKN4intx4uintILj256EEES4_RlRNS_14ExecutionStateE
FNDA:767,baseline_execution.cpp:_ZN6evmone8baseline12_GLOBAL__N_118check_requirementsILNS_6OpcodeE164EEE16evmc_status_codeRKSt5arrayIsLm256EERlPKN4intx4uintILj256EEESE_
FNDA:476,baseline_execution.cpp:_ZN6evmone8baseline12_GLOBAL__N_16invokeILNS_6OpcodeE208EEENS1_8PositionERKSt5arrayIsLm256EEPKN4intx4uintILj256EEES4_RlRNS_14ExecutionStateE
FNDA:476,baseline_execution.cpp:_ZN6evmone8baseline12_GLOBAL__N_118check_requirementsILNS_6OpcodeE208EEE16evmc_status_codeRKSt5arrayIsLm256EERlPKN4intx4uintILj256EEESE_
FNDA:476,baseline_execution.cpp:_ZN6evmone8baseline12_GLOBAL__N_16invokeILNS_6OpcodeE209EEENS1_8PositionERKSt5arrayIsLm256EEPKN4intx4uintILj256EEES4_RlRNS_14ExecutionStateE
FNDA:476,baseline_execution.cpp:_ZN6evmone8baseline12_GLOBAL__N_118check_requirementsILNS_6OpcodeE209EEE16evmc_status_codeRKSt5arrayIsLm256EERlPKN4intx4uintILj256EEESE_
FNDA:476,baseline_execution.cpp:_ZN6evmone8baseline12_GLOBAL__N_16invokeILNS_6OpcodeE210EEENS1_8PositionERKSt5arrayIsLm256EEPKN4intx4uintILj256EEES4_RlRNS_14ExecutionStateE
FNDA:476,baseline_execution.cpp:_ZN6evmone8baseline12_GLOBAL__N_118check_requirementsILNS_6OpcodeE210EEE16evmc_status_codeRKSt5arrayIsLm256EERlPKN4intx4uintILj256EEESE_
FNDA:476,baseline_execution.cpp:_ZN6evmone8baseline12_GLOBAL__N_16invokeILNS_6OpcodeE211EEENS1_8PositionERKSt5arrayIsLm256EEPKN4intx4uintILj256EEES4_RlRNS_14ExecutionStateE
FNDA:476,baseline_execution.cpp:_ZN6evmone8baseline12_GLOBAL__N_118check_requirementsILNS_6OpcodeE211EEE16evmc_status_codeRKSt5arrayIsLm256EERlPKN4intx4uintILj256EEESE_
FNDA:476,baseline_execution.cpp:_ZN6evmone8baseline12_GLOBAL__N_16invokeILNS_6OpcodeE224EEENS1_8PositionERKSt5arrayIsLm256EEPKN4intx4uintILj256EEES4_RlRNS_14ExecutionStateE
FNDA:476,baseline_execution.cpp:_ZN6evmone8baseline12_GLOBAL__N_118check_requirementsILNS_6OpcodeE224EEE16evmc_status_codeRKSt5arrayIsLm256EERlPKN4intx4uintILj256EEESE_
FNDA:476,baseline_execution.cpp:_ZN6evmone8baseline12_GLOBAL__N_16invokeILNS_6OpcodeE225EEENS1_8PositionERKSt5arrayIsLm256EEPKN4intx4uintILj256EEES4_RlRNS_14ExecutionStateE
FNDA:476,baseline_execution.cpp:_ZN6evmone8baseline12_GLOBAL__N_118check_requirementsILNS_6OpcodeE225EEE16evmc_status_codeRKSt5arrayIsLm256EERlPKN4intx4uintILj256EEESE_
FNDA:476,baseline_execution.cpp:_ZN6evmone8baseline12_GLOBAL__N_16invokeILNS_6OpcodeE226EEENS1_8PositionERKSt5arrayIsLm256EEPKN4intx4uintILj256EEES4_RlRNS_14ExecutionStateE
FNDA:476,baseline_execution.cpp:_ZN6evmone8baseline12_GLOBAL__N_118check_requirementsILNS_6OpcodeE226EEE16evmc_status_codeRKSt5arrayIsLm256EERlPKN4intx4uintILj256EEESE_
FNDA:482,baseline_execution.cpp:_ZN6evmone8baseline12_GLOBAL__N_16invokeILNS_6OpcodeE227EEENS1_8PositionERKSt5arrayIsLm256EEPKN4intx4uintILj256EEES4_RlRNS_14ExecutionStateE
FNDA:482,baseline_execution.cpp:_ZN6evmone8baseline12_GLOBAL__N_118check_requirementsILNS_6OpcodeE227EEE16evmc_status_codeRKSt5arrayIsLm256EERlPKN4intx4uintILj256EEESE_
FNDA:476,baseline_execution.cpp:_ZN6evmone8baseline12_GLOBAL__N_16invokeILNS_6OpcodeE228EEENS1_8PositionERKSt5arrayIsLm256EEPKN4intx4uintILj256EEES4_RlRNS_14ExecutionStateE
FNDA:476,baseline_execution.cpp:_ZN6evmone8baseline12_GLOBAL__N_118check_requirementsILNS_6OpcodeE228EEE16evmc_status_codeRKSt5arrayIsLm256EERlPKN4intx4uintILj256EEESE_
FNDA:476,baseline_execution.cpp:_ZN6evmone8baseline12_GLOBAL__N_16invokeILNS_6OpcodeE229EEENS1_8PositionERKSt5arrayIsLm256EEPKN4intx4uintILj256EEES4_RlRNS_14ExecutionStateE
FNDA:476,baseline_execution.cpp:_ZN6evmone8baseline12_GLOBAL__N_118check_requirementsILNS_6OpcodeE229EEE16evmc_status_codeRKSt5arrayIsLm256EERlPKN4intx4uintILj256EEESE_
FNDA:476,baseline_execution.cpp:_ZN6evmone8baseline12_GLOBAL__N_16invokeILNS_6OpcodeE230EEENS1_8PositionERKSt5arrayIsLm256EEPKN4intx4uintILj256EEES4_RlRNS_14ExecutionStateE
FNDA:476,baseline_execution.cpp:_ZN6evmone8baseline12_GLOBAL__N_118check_requirementsILNS_6OpcodeE230EEE16evmc_status_codeRKSt5arrayIsLm256EERlPKN4intx4uintILj256EEESE_
FNDA:0,baseline_execution.cpp:_ZN6evmone8baseline12_GLOBAL__N_16invokeEPDoFPKhNS_8StackTopES3_ENS1_8PositionERlRNS_14ExecutionStateE
FNDA:476,baseline_execution.cpp:_ZN6evmone8baseline12_GLOBAL__N_16invokeILNS_6OpcodeE231EEENS1_8PositionERKSt5arrayIsLm256EEPKN4intx4uintILj256EEES4_RlRNS_14ExecutionStateE
FNDA:476,baseline_execution.cpp:_ZN6evmone8baseline12_GLOBAL__N_118check_requirementsILNS_6OpcodeE231EEE16evmc_status_codeRKSt5arrayIsLm256EERlPKN4intx4uintILj256EEESE_
FNDA:476,baseline_execution.cpp:_ZN6evmone8baseline12_GLOBAL__N_16invokeILNS_6OpcodeE232EEENS1_8PositionERKSt5arrayIsLm256EEPKN4intx4uintILj256EEES4_RlRNS_14ExecutionStateE
FNDA:476,baseline_execution.cpp:_ZN6evmone8baseline12_GLOBAL__N_118check_requirementsILNS_6OpcodeE232EEE16evmc_status_codeRKSt5arrayIsLm256EERlPKN4intx4uintILj256EEESE_
FNDA:476,baseline_execution.cpp:_ZN6evmone8baseline12_GLOBAL__N_16invokeILNS_6OpcodeE236EEENS1_8PositionERKSt5arrayIsLm256EEPKN4intx4uintILj256EEES4_RlRNS_14ExecutionStateE
FNDA:476,baseline_execution.cpp:_ZN6evmone8baseline12_GLOBAL__N_118check_requirementsILNS_6OpcodeE236EEE16evmc_status_codeRKSt5arrayIsLm256EERlPKN4intx4uintILj256EEESE_
FNDA:0,baseline_execution.cpp:_ZN6evmone8baseline12_GLOBAL__N_16invokeEPDoFNS_6ResultENS_8StackTopElRNS_14ExecutionStateERPKhENS1_8PositionERlS5_
FNDA:476,baseline_execution.cpp:_ZN6evmone8baseline12_GLOBAL__N_16invokeILNS_6OpcodeE237EEENS1_8PositionERKSt5arrayIsLm256EEPKN4intx4uintILj256EEES4_RlRNS_14ExecutionStateE
FNDA:476,baseline_execution.cpp:_ZN6evmone8baseline12_GLOBAL__N_118check_requirementsILNS_6OpcodeE237EEE16evmc_status_codeRKSt5arrayIsLm256EERlPKN4intx4uintILj256EEESE_
FNDA:476,baseline_execution.cpp:_ZN6evmone8baseline12_GLOBAL__N_16invokeILNS_6OpcodeE238EEENS1_8PositionERKSt5arrayIsLm256EEPKN4intx4uintILj256EEES4_RlRNS_14ExecutionStateE
FNDA:476,baseline_execution.cpp:_ZN6evmone8baseline12_GLOBAL__N_118check_requirementsILNS_6OpcodeE238EEE16evmc_status_codeRKSt5arrayIsLm256EERlPKN4intx4uintILj256EEESE_
FNDA:0,baseline_execution.cpp:_ZN6evmone8baseline12_GLOBAL__N_16invokeEPDoFNS_10TermResultENS_8StackTopElRNS_14ExecutionStateEPKhENS1_8PositionERlS5_
FNDA:24083,baseline_execution.cpp:_ZN6evmone8baseline12_GLOBAL__N_16invokeILNS_6OpcodeE240EEENS1_8PositionERKSt5arrayIsLm256EEPKN4intx4uintILj256EEES4_RlRNS_14ExecutionStateE
FNDA:24083,baseline_execution.cpp:_ZN6evmone8baseline12_GLOBAL__N_118check_requirementsILNS_6OpcodeE240EEE16evmc_status_codeRKSt5arrayIsLm256EERlPKN4intx4uintILj256EEESE_
FNDA:875924,baseline_execution.cpp:_ZN6evmone8baseline12_GLOBAL__N_16invokeILNS_6OpcodeE241EEENS1_8PositionERKSt5arrayIsLm256EEPKN4intx4uintILj256EEES4_RlRNS_14ExecutionStateE
FNDA:875924,baseline_execution.cpp:_ZN6evmone8baseline12_GLOBAL__N_118check_requirementsILNS_6OpcodeE241EEE16evmc_status_codeRKSt5arrayIsLm256EERlPKN4intx4uintILj256EEESE_
FNDA:83114,baseline_execution.cpp:_ZN6evmone8baseline12_GLOBAL__N_16invokeILNS_6OpcodeE242EEENS1_8PositionERKSt5arrayIsLm256EEPKN4intx4uintILj256EEES4_RlRNS_14ExecutionStateE
FNDA:83114,baseline_execution.cpp:_ZN6evmone8baseline12_GLOBAL__N_118check_requirementsILNS_6OpcodeE242EEE16evmc_status_codeRKSt5arrayIsLm256EERlPKN4intx4uintILj256EEESE_
FNDA:526000,baseline_execution.cpp:_ZN6evmone8baseline12_GLOBAL__N_16invokeILNS_6OpcodeE243EEENS1_8PositionERKSt5arrayIsLm256EEPKN4intx4uintILj256EEES4_RlRNS_14ExecutionStateE
FNDA:526000,baseline_execution.cpp:_ZN6evmone8baseline12_GLOBAL__N_118check_requirementsILNS_6OpcodeE243EEE16evmc_status_codeRKSt5arrayIsLm256EERlPKN4intx4uintILj256EEESE_
FNDA:101455,baseline_execution.cpp:_ZN6evmone8baseline12_GLOBAL__N_16invokeILNS_6OpcodeE244EEENS1_8PositionERKSt5arrayIsLm256EEPKN4intx4uintILj256EEES4_RlRNS_14ExecutionStateE
FNDA:101455,baseline_execution.cpp:_ZN6evmone8baseline12_GLOBAL__N_118check_requirementsILNS_6OpcodeE244EEE16evmc_status_codeRKSt5arrayIsLm256EERlPKN4intx4uintILj256EEESE_
FNDA:27081,baseline_execution.cpp:_ZN6evmone8baseline12_GLOBAL__N_16invokeILNS_6OpcodeE245EEENS1_8PositionERKSt5arrayIsLm256EEPKN4intx4uintILj256EEES4_RlRNS_14ExecutionStateE
FNDA:27081,baseline_execution.cpp:_ZN6evmone8baseline12_GLOBAL__N_118check_requirementsILNS_6OpcodeE245EEE16evmc_status_codeRKSt5arrayIsLm256EERlPKN4intx4uintILj256EEESE_
FNDA:476,baseline_execution.cpp:_ZN6evmone8baseline12_GLOBAL__N_16invokeILNS_6OpcodeE247EEENS1_8PositionERKSt5arrayIsLm256EEPKN4intx4uintILj256EEES4_RlRNS_14ExecutionStateE
FNDA:476,baseline_execution.cpp:_ZN6evmone8baseline12_GLOBAL__N_118check_requirementsILNS_6OpcodeE247EEE16evmc_status_codeRKSt5arrayIsLm256EERlPKN4intx4uintILj256EEESE_
FNDA:476,baseline_execution.cpp:_ZN6evmone8baseline12_GLOBAL__N_16invokeILNS_6OpcodeE248EEENS1_8PositionERKSt5arrayIsLm256EEPKN4intx4uintILj256EEES4_RlRNS_14ExecutionStateE
FNDA:476,baseline_execution.cpp:_ZN6evmone8baseline12_GLOBAL__N_118check_requirementsILNS_6OpcodeE248EEE16evmc_status_codeRKSt5arrayIsLm256EERlPKN4intx4uintILj256EEESE_
FNDA:488,baseline_execution.cpp:_ZN6evmone8baseline12_GLOBAL__N_16invokeILNS_6OpcodeE249EEENS1_8PositionERKSt5arrayIsLm256EEPKN4intx4uintILj256EEES4_RlRNS_14ExecutionStateE
FNDA:488,baseline_execution.cpp:_ZN6evmone8baseline12_GLOBAL__N_118check_requirementsILNS_6OpcodeE249EEE16evmc_status_codeRKSt5arrayIsLm256EERlPKN4intx4uintILj256EEESE_
FNDA:3064533,baseline_execution.cpp:_ZN6evmone8baseline12_GLOBAL__N_16invokeILNS_6OpcodeE250EEENS1_8PositionERKSt5arrayIsLm256EEPKN4intx4uintILj256EEES4_RlRNS_14ExecutionStateE
FNDA:3064533,baseline_execution.cpp:_ZN6evmone8baseline12_GLOBAL__N_118check_requirementsILNS_6OpcodeE250EEE16evmc_status_codeRKSt5arrayIsLm256EERlPKN4intx4uintILj256EEESE_
FNDA:476,baseline_execution.cpp:_ZN6evmone8baseline12_GLOBAL__N_16invokeILNS_6OpcodeE251EEENS1_8PositionERKSt5arrayIsLm256EEPKN4intx4uintILj256EEES4_RlRNS_14ExecutionStateE
FNDA:476,baseline_execution.cpp:_ZN6evmone8baseline12_GLOBAL__N_118check_requirementsILNS_6OpcodeE251EEE16evmc_status_codeRKSt5arrayIsLm256EERlPKN4intx4uintILj256EEESE_
FNDA:25416,baseline_execution.cpp:_ZN6evmone8baseline12_GLOBAL__N_16invokeILNS_6OpcodeE253EEENS1_8PositionERKSt5arrayIsLm256EEPKN4intx4uintILj256EEES4_RlRNS_14ExecutionStateE
FNDA:25416,baseline_execution.cpp:_ZN6evmone8baseline12_GLOBAL__N_118check_requirementsILNS_6OpcodeE253EEE16evmc_status_codeRKSt5arrayIsLm256EERlPKN4intx4uintILj256EEESE_
FNDA:1962,baseline_execution.cpp:_ZN6evmone8baseline12_GLOBAL__N_16invokeILNS_6OpcodeE254EEENS1_8PositionERKSt5arrayIsLm256EEPKN4intx4uintILj256EEES4_RlRNS_14ExecutionStateE
FNDA:1962,baseline_execution.cpp:_ZN6evmone8baseline12_GLOBAL__N_118check_requirementsILNS_6OpcodeE254EEE16evmc_status_codeRKSt5arrayIsLm256EERlPKN4intx4uintILj256EEESE_
FNDA:420946,baseline_execution.cpp:_ZN6evmone8baseline12_GLOBAL__N_16invokeILNS_6OpcodeE255EEENS1_8PositionERKSt5arrayIsLm256EEPKN4intx4uintILj256EEES4_RlRNS_14ExecutionStateE
FNDA:420946,baseline_execution.cpp:_ZN6evmone8baseline12_GLOBAL__N_118check_requirementsILNS_6OpcodeE255EEE16evmc_status_codeRKSt5arrayIsLm256EERlPKN4intx4uintILj256EEESE_
FNDA:0,baseline_execution.cpp:_ZN6evmone8baseline12_GLOBAL__N_18dispatchILb1EEElRKSt5arrayIsLm256EERNS_14ExecutionStateElPKhPNS_6TracerE
FNDA:0,baseline_execution.cpp:_ZN6evmone8baseline12_GLOBAL__N_18dispatchILb0EEElRKSt5arrayIsLm256EERNS_14ExecutionStateElPKhPNS_6TracerE
FNF:14
FNH:10
DA:20,245660250
DA:47,245660250
DA:48,245660250
DA:49,245660250
DA:50,245660250
DA:52,245660250
DA:54,21835453
DA:55,21835453
DA:59,21835453
DA:60,15509
DA:61,21835453
DA:66,124467292
DA:67,124467292
DA:68,124467292
DA:69,124467292
DA:70,1230
DA:71,124467292
DA:73,104845201
DA:75,104845201
DA:76,104845201
DA:77,2420
DA:78,104845201
DA:80,245660250
DA:81,422294
DA:83,245237956
DA:84,245660250
DA:98,72444625
DA:99,72444625
DA:100,72444625
DA:101,72444625
DA:106,56974659
DA:107,56974659
DA:108,56974659
DA:109,56974659
DA:110,298421
DA:111,298421
DA:112,298421
DA:113,298421
DA:114,56676238
DA:115,56974659
DA:119,4717451
DA:120,4717451
DA:121,4717451
DA:122,4717451
DA:127,109114373
DA:128,109114373
DA:129,109114373
DA:134,0
DA:135,0
DA:136,0
DA:141,1967689
DA:142,1967689
DA:143,1967689
DA:144,1967689
DA:145,1967689
DA:146,1967689
DA:151,0
DA:152,0
DA:153,0
DA:154,0
DA:155,0
DA:156,0
DA:157,0
DA:158,0
DA:159,0
DA:160,0
DA:165,0
DA:166,0
DA:167,0
DA:168,0
DA:169,0
DA:170,0
DA:176,245660250
DA:177,245660250
DA:178,245660250
DA:179,441453
DA:180,441453
DA:181,441453
DA:182,441453
DA:183,245218797
DA:184,245218797
DA:185,245218797
DA:186,245660250
DA:192,0
DA:193,0
DA:196,0
DA:198,0
DA:199,0
DA:201,0
DA:202,0
DA:203,0
DA:204,0
DA:205,0
DA:206,0
DA:207,0
DA:208,0
DA:209,0
DA:211,0
DA:212,0
DA:213,0
DA:214,0
DA:215,0
DA:216,0
DA:217,0
DA:218,0
DA:219,0
DA:220,0
DA:221,0
DA:222,0
DA:223,0
DA:226,0
DA:227,0
DA:228,0
DA:230,0
DA:231,0
DA:233,0
DA:234,0
DA:235,0
DA:236,0
DA:237,0
DA:238,0
DA:239,0
DA:244,2751709
DA:245,2751709
DA:247,2751709
DA:248,467790530
DA:249,2751709
DA:250,236646974
DA:251,2751709
DA:252,2751709
DA:253,2751709
DA:254,2751709
DA:255,2751709
DA:256,2751709
DA:258,2751709
DA:261,2751709
DA:263,2751709
DA:265,2751709
DA:266,245660250
DA:267,245660250
DA:268,245660250
DA:269,245660250
DA:270,2710673
DA:271,2710673
DA:272,245660250
DA:273,245660250
DA:276,242949577
DA:277,242949577
DA:278,245660250
DA:280,488609827
DA:281,488609827
DA:283,488609827
DA:284,41036
DA:285,41036
DA:286,488609827
DA:292,2751709
DA:293,2751709
DA:294,2751709
DA:295,2751709
DA:297,2751709
DA:298,2751709
DA:300,2751709
DA:302,2751709
DA:304,2751709
DA:305,2751709
DA:306,0
DA:307,0
DA:308,0
DA:309,0
DA:310,2751709
DA:311,2751709
DA:312,2751709
DA:313,2751709
DA:314,2751709
DA:315,0
DA:316,0
DA:317,0
DA:318,2751709
DA:320,2751709
DA:321,2751709
DA:323,2751709
DA:324,2751709
DA:325,2751709
DA:326,0
DA:327,0
DA:328,2751709
DA:329,2751709
DA:330,2751709
DA:332,2751709
DA:333,0
DA:335,2751709
DA:336,2751709
DA:340,2751709
DA:341,2751709
DA:342,2751709
DA:343,2751709
DA:348,2751709
DA:349,0
DA:350,0
DA:351,0
DA:352,0
DA:353,0
DA:354,0
DA:356,2751709
DA:357,2751709
DA:358,2751709
BRDA:59,0,0,19
BRDA:59,0,1,101436
BRDA:59,1,2,476
BRDA:59,1,3,0
BRDA:59,2,4,476
BRDA:59,2,5,0
BRDA:59,3,6,662
BRDA:59,3,7,12766
BRDA:59,4,8,658
BRDA:59,4,9,2864
BRDA:59,5,10,0
BRDA:59,5,11,875924
BRDA:59,6,12,0
BRDA:59,6,13,83114
BRDA:59,7,14,406
BRDA:59,7,15,520
BRDA:59,8,16,85
BRDA:59,8,17,3468562
BRDA:59,9,18,83
BRDA:59,9,19,18608
BRDA:59,10,20,584
BRDA:59,10,21,1156680
BRDA:59,11,22,238
BRDA:59,11,23,1526
BRDA:59,12,24,83
BRDA:59,12,25,26998
BRDA:59,13,26,83
BRDA:59,13,27,8256
BRDA:59,14,28,476
BRDA:59,14,29,0
BRDA:59,15,30,238
BRDA:59,15,31,414
BRDA:59,16,32,454
BRDA:59,16,33,2834
BRDA:59,17,34,476
BRDA:59,17,35,0
BRDA:59,18,36,488
BRDA:59,18,37,0
BRDA:59,19,38,482
BRDA:59,19,39,0
BRDA:59,20,40,476
BRDA:59,20,41,0
BRDA:59,21,42,476
BRDA:59,21,43,0
BRDA:59,22,44,658
BRDA:59,22,45,1890185
BRDA:59,23,46,476
BRDA:59,23,47,0
BRDA:59,24,48,476
BRDA:59,24,49,0
BRDA:59,25,50,476
BRDA:59,25,51,0
BRDA:59,26,52,476
BRDA:59,26,53,0
BRDA:59,27,54,658
BRDA:59,27,55,9079356
BRDA:59,28,56,476
BRDA:59,28,57,0
BRDA:59,29,58,0
BRDA:59,29,59,470980
BRDA:59,30,60,476
BRDA:59,30,61,0
BRDA:59,31,62,0
BRDA:59,31,63,1014967
BRDA:59,32,64,476
BRDA:59,32,65,0
BRDA:59,33,66,476
BRDA:59,33,67,0
BRDA:59,34,68,476
BRDA:59,34,69,0
BRDA:59,35,70,658
BRDA:59,35,71,1587
BRDA:59,36,72,476
BRDA:59,36,73,0
BRDA:59,37,74,476
BRDA:59,37,75,0
BRDA:59,38,76,0
BRDA:59,38,77,12882
BRDA:59,39,78,80
BRDA:59,39,79,8897
BRDA:59,40,80,45
BRDA:59,40,81,25371
BRDA:59,41,82,80
BRDA:59,41,83,58573
BRDA:59,42,84,0
BRDA:59,42,85,420946
BRDA:59,43,86,476
BRDA:59,43,87,0
BRDA:59,44,88,0
BRDA:59,44,89,7861
BRDA:59,45,90,45
BRDA:59,45,91,3064488
BRDA:59,46,92,154
BRDA:59,46,93,3349
BRDA:69,0,0,30
BRDA:69,0,1,29026
BRDA:69,1,2,30
BRDA:69,1,3,44982
BRDA:69,2,4,30
BRDA:69,2,5,58177
BRDA:69,3,6,30
BRDA:69,3,7,34372
BRDA:69,4,8,6
BRDA:69,4,9,25226
BRDA:69,5,10,6
BRDA:69,5,11,16590
BRDA:69,6,12,30
BRDA:69,6,13,24942
BRDA:69,7,14,6
BRDA:69,7,15,1256493
BRDA:69,8,16,30
BRDA:69,8,17,47310
BRDA:69,9,18,0
BRDA:69,9,19,476
BRDA:69,10,20,30
BRDA:69,10,21,34094
BRDA:69,11,22,6
BRDA:69,11,23,5878365
BRDA:69,12,24,6
BRDA:69,12,25,13776
BRDA:69,13,26,30
BRDA:69,13,27,93258
BRDA:69,14,28,6
BRDA:69,14,29,107551
BRDA:69,15,30,6
BRDA:69,15,31,15040
BRDA:69,16,32,30
BRDA:69,16,33,301104
BRDA:69,17,34,30
BRDA:69,17,35,30132
BRDA:69,18,36,0
BRDA:69,18,37,476
BRDA:69,19,38,22
BRDA:69,19,39,5498388
BRDA:69,20,40,30
BRDA:69,20,41,37931
BRDA:69,21,42,30
BRDA:69,21,43,46622
BRDA:69,22,44,30
BRDA:69,22,45,66200
BRDA:69,23,46,30
BRDA:69,23,47,37344
BRDA:69,24,48,30
BRDA:69,24,49,31802
BRDA:69,25,50,30
BRDA:69,25,51,111166
BRDA:69,26,52,6
BRDA:69,26,53,13406
BRDA:69,27,54,30
BRDA:69,27,55,28704
BRDA:69,28,56,30
BRDA:69,28,57,21224
BRDA:69,29,58,6
BRDA:69,29,59,21244
BRDA:69,30,60,30
BRDA:69,30,61,41031
BRDA:69,31,62,0
BRDA:69,31,63,58653
BRDA:69,32,64,0
BRDA:69,32,65,476
BRDA:69,33,66,30
BRDA:69,33,67,48494
BRDA:69,34,68,30
BRDA:69,34,69,42064
BRDA:69,35,70,6
BRDA:69,35,71,17378
BRDA:69,36,72,30
BRDA:69,36,73,1327025
BRDA:69,37,74,6
BRDA:69,37,75,23610
BRDA:69,38,76,30
BRDA:69,38,77,28814
BRDA:69,39,78,0
BRDA:69,39,79,1764
BRDA:69,40,80,6
BRDA:69,40,81,64898
BRDA:69,41,82,6
BRDA:69,41,83,24964
BRDA:69,42,84,30
BRDA:69,42,85,10043375
BRDA:69,43,86,6
BRDA:69,43,87,147095
BRDA:69,44,88,6
BRDA:69,44,89,47826
BRDA:69,45,90,30
BRDA:69,45,91,119370
BRDA:69,46,92,6
BRDA:69,46,93,14918
BRDA:69,47,94,0
BRDA:69,47,95,652
BRDA:69,48,96,6
BRDA:69,48,97,53312
BRDA:69,49,98,6
BRDA:69,49,99,443796
BRDA:69,50,100,6
BRDA:69,50,101,133373
BRDA:69,51,102,30
BRDA:69,51,103,34692
BRDA:69,52,104,6
BRDA:69,52,105,15240
BRDA:69,53,106,6
BRDA:69,53,107,27010
BRDA:69,54,108,6
BRDA:69,54,109,56896
BRDA:69,55,110,30
BRDA:69,55,111,30702
BRDA:69,56,112,30
BRDA:69,56,113,40466
BRDA:69,57,114,6
BRDA:69,57,115,30578
BRDA:69,58,116,30
BRDA:69,58,117,38777
BRDA:69,59,118,30
BRDA:69,59,119,2238516
BRDA:69,60,120,6
BRDA:69,60,121,13422
BRDA:69,61,122,6
BRDA:69,61,123,617177
BRDA:69,62,124,6
BRDA:69,62,125,24900
BRDA:69,63,126,32
BRDA:69,63,127,1157232
BRDA:69,64,128,6
BRDA:69,64,129,16581259
BRDA:69,65,130,6
BRDA:69,65,131,291964
BRDA:69,66,132,30
BRDA:69,66,133,40376
BRDA:69,67,134,6
BRDA:69,67,135,16592
BRDA:69,68,136,60
BRDA:69,68,137,76204569
BRDA:69,69,138,0
BRDA:69,69,139,926
BRDA:69,70,140,6
BRDA:69,70,141,126868
BRDA:69,71,142,6
BRDA:69,71,143,269591
BRDA:76,0,0,18
BRDA:76,0,1,3514
BRDA:76,1,2,24
BRDA:76,1,3,7706
BRDA:76,2,4,12
BRDA:76,2,5,2233
BRDA:76,3,6,24
BRDA:76,3,7,3578
BRDA:76,4,8,24
BRDA:76,4,9,1890819
BRDA:76,5,10,18
BRDA:76,5,11,155007
BRDA:76,6,12,24
BRDA:76,6,13,4014
BRDA:76,7,14,48
BRDA:76,7,15,9079966
BRDA:76,8,16,30
BRDA:76,8,17,3790
BRDA:76,9,18,18
BRDA:76,9,19,46598
BRDA:76,10,20,18
BRDA:76,10,21,3127745
BRDA:76,11,22,24
BRDA:76,11,23,8208
BRDA:76,12,24,24
BRDA:76,12,25,236926
BRDA:76,13,26,334
BRDA:76,13,27,15690821
BRDA:76,14,28,24
BRDA:76,14,29,36970
BRDA:76,15,30,24
BRDA:76,15,31,7837
BRDA:76,16,32,18
BRDA:76,16,33,1616
BRDA:76,17,34,6
BRDA:76,17,35,3516
BRDA:76,18,36,24
BRDA:76,18,37,70306
BRDA:76,19,38,18
BRDA:76,19,39,78242
BRDA:76,20,40,12
BRDA:76,20,41,3468635
BRDA:76,21,42,12
BRDA:76,21,43,18679
BRDA:76,22,44,12
BRDA:76,22,45,8327
BRDA:76,23,46,4
BRDA:76,23,47,3284
BRDA:76,24,48,30
BRDA:76,24,49,15525
BRDA:76,25,50,18
BRDA:76,25,51,51782
BRDA:76,26,52,18
BRDA:76,26,53,69778
BRDA:76,27,54,12
BRDA:76,27,55,3491
BRDA:76,28,56,18
BRDA:76,28,57,1822689
BRDA:76,29,58,6
BRDA:76,29,59,8971
BRDA:76,30,60,48
BRDA:76,30,61,121246
BRDA:76,31,62,24
BRDA:76,31,63,23244
BRDA:76,32,64,18
BRDA:76,32,65,12864
BRDA:76,33,66,18
BRDA:76,33,67,470962
BRDA:76,34,68,18
BRDA:76,34,69,6512
BRDA:76,35,70,18
BRDA:76,35,71,2274
BRDA:76,36,72,24
BRDA:76,36,73,37166
BRDA:76,37,74,12
BRDA:76,37,75,6931142
BRDA:76,38,76,24
BRDA:76,38,77,2524
BRDA:76,39,78,24
BRDA:76,39,79,5332112
BRDA:76,40,80,34
BRDA:76,40,81,2941140
BRDA:76,41,82,18
BRDA:76,41,83,4690417
BRDA:76,42,84,18
BRDA:76,42,85,394197
BRDA:76,43,86,18
BRDA:76,43,87,1014949
BRDA:76,44,88,18
BRDA:76,44,89,2000
BRDA:76,45,90,18
BRDA:76,45,91,6152
BRDA:76,46,92,18
BRDA:76,46,93,155530
BRDA:76,47,94,24
BRDA:76,47,95,825115
BRDA:76,48,96,18
BRDA:76,48,97,8580960
BRDA:76,49,98,18
BRDA:76,49,99,5107084
BRDA:76,50,100,18
BRDA:76,50,101,11969008
BRDA:76,51,102,18
BRDA:76,51,103,128355
BRDA:76,52,104,48
BRDA:76,52,105,4526389
BRDA:76,53,106,24
BRDA:76,53,107,291946
BRDA:76,54,108,0
BRDA:76,54,109,476
BRDA:76,55,110,24
BRDA:76,55,111,47808
BRDA:76,56,112,12
BRDA:76,56,113,27069
BRDA:76,57,114,30
BRDA:76,57,115,101425
BRDA:76,58,116,18
BRDA:76,58,117,64886
BRDA:76,59,118,18
BRDA:76,59,119,525982
BRDA:76,60,120,42
BRDA:76,60,121,126832
BRDA:76,61,122,42
BRDA:76,61,123,83072
BRDA:76,62,124,24
BRDA:76,62,125,875900
BRDA:76,63,126,24
BRDA:76,63,127,443778
BRDA:76,64,128,24
BRDA:76,64,129,24059
BRDA:76,65,130,18
BRDA:76,65,131,617165
BRDA:76,66,132,0
BRDA:76,66,133,476
BRDA:76,67,134,0
BRDA:76,67,135,476
BRDA:76,68,136,0
BRDA:76,68,137,476
BRDA:76,69,138,18
BRDA:76,69,139,5878353
BRDA:76,70,140,0
BRDA:76,70,141,476
BRDA:76,71,142,0
BRDA:76,71,143,476
BRDA:76,72,144,0
BRDA:76,72,145,476
BRDA:76,73,146,36
BRDA:76,73,147,16562
BRDA:76,74,148,24
BRDA:76,74,149,87278
BRDA:76,75,150,24
BRDA:76,75,151,271300
BRDA:76,76,152,18
BRDA:76,76,153,402696
BRDA:76,77,154,18
BRDA:76,77,155,722953
BRDA:76,78,156,36
BRDA:76,78,157,17348
BRDA:76,79,158,36
BRDA:76,79,159,25196
BRDA:76,80,160,30
BRDA:76,80,161,15016
BRDA:76,81,162,18
BRDA:76,81,163,30566
BRDA:76,82,164,12
BRDA:76,82,165,420934
BRDA:76,83,166,24
BRDA:76,83,167,1256475
BRDA:76,84,168,24
BRDA:76,84,169,24946
BRDA:76,85,170,50
BRDA:76,85,171,25366
BRDA:76,86,172,0
BRDA:76,86,173,476
BRDA:76,87,174,24
BRDA:76,87,175,53294
BRDA:76,88,176,12
BRDA:76,88,177,3064521
BRDA:76,89,178,36
BRDA:76,89,179,26980
BRDA:76,90,180,0
BRDA:76,90,181,488
BRDA:76,91,182,0
BRDA:76,91,183,476
BRDA:76,92,184,24
BRDA:76,92,185,5836
BRDA:76,93,186,18
BRDA:76,93,187,2340
BRDA:76,94,188,0
BRDA:76,94,189,476
BRDA:76,95,190,18
BRDA:76,95,191,9368
BRDA:76,96,192,18
BRDA:76,96,193,2334
BRDA:76,97,194,18
BRDA:76,97,195,8207
BRDA:76,98,196,30
BRDA:76,98,197,4579
BRDA:76,99,198,18
BRDA:76,99,199,4168
BRDA:76,100,200,18
BRDA:76,100,201,6767
BRDA:76,101,202,24
BRDA:76,101,203,6708
BRDA:76,102,204,24
BRDA:76,102,205,2652
BRDA:76,103,206,36
BRDA:76,103,207,731
BRDA:76,104,208,24
BRDA:76,104,209,2222
BRDA:80,0,0,0
BRDA:80,0,1,402714
BRDA:80,1,2,24
BRDA:80,1,3,12858
BRDA:80,2,4,0
BRDA:80,2,5,722971
BRDA:80,3,6,0
BRDA:80,3,7,28844
BRDA:80,4,8,0
BRDA:80,4,9,133379
BRDA:80,5,10,0
BRDA:80,5,11,46652
BRDA:80,6,12,0
BRDA:80,6,13,27016
BRDA:80,7,14,18
BRDA:80,7,15,1157246
BRDA:80,8,16,0
BRDA:80,8,17,13782
BRDA:80,9,18,0
BRDA:80,9,19,107557
BRDA:80,10,20,3666
BRDA:80,10,21,76200963
BRDA:80,11,22,0
BRDA:80,11,23,443802
BRDA:80,12,24,0
BRDA:80,12,25,15246
BRDA:80,13,26,0
BRDA:80,13,27,40496
BRDA:80,14,28,0
BRDA:80,14,29,58207
BRDA:80,15,30,402
BRDA:80,15,31,470578
BRDA:80,16,32,0
BRDA:80,16,33,271324
BRDA:80,17,34,48
BRDA:80,17,35,2197
BRDA:80,18,36,0
BRDA:80,18,37,47832
BRDA:80,19,38,0
BRDA:80,19,39,34124
BRDA:80,20,40,0
BRDA:80,20,41,3503
BRDA:80,21,42,0
BRDA:80,21,43,119400
BRDA:80,22,44,0
BRDA:80,22,45,25232
BRDA:80,23,46,4
BRDA:80,23,47,47336
BRDA:80,24,48,0
BRDA:80,24,49,15046
BRDA:80,25,50,0
BRDA:80,25,51,17384
BRDA:80,26,52,0
BRDA:80,26,53,8977
BRDA:80,27,54,0
BRDA:80,27,55,30584
BRDA:80,28,56,6
BRDA:80,28,57,1327049
BRDA:80,29,58,0
BRDA:80,29,59,16598
BRDA:80,30,60,0
BRDA:80,30,61,58653
BRDA:80,31,62,0
BRDA:80,31,63,40406
BRDA:80,32,64,0
BRDA:80,32,65,69796
BRDA:80,33,66,0
BRDA:80,33,67,24970
BRDA:80,34,68,120
BRDA:80,34,69,10043285
BRDA:80,35,70,0
BRDA:80,35,71,14924
BRDA:80,36,72,0
BRDA:80,36,73,34722
BRDA:80,37,74,4
BRDA:80,37,75,53314
BRDA:80,38,76,0
BRDA:80,38,77,147101
BRDA:80,39,78,0
BRDA:80,39,79,4690435
BRDA:80,40,80,0
BRDA:80,40,81,301134
BRDA:80,41,82,0
BRDA:80,41,83,93288
BRDA:80,42,84,50
BRDA:80,42,85,8580928
BRDA:80,43,86,0
BRDA:80,43,87,24972
BRDA:80,44,88,4
BRDA:80,44,89,34398
BRDA:80,45,90,0
BRDA:80,45,91,155548
BRDA:80,46,92,0
BRDA:80,46,93,28734
BRDA:80,47,94,0
BRDA:80,47,95,42094
BRDA:80,48,96,0
BRDA:80,48,97,41061
BRDA:80,49,98,4
BRDA:80,49,99,1014963
BRDA:80,50,100,0
BRDA:80,50,101,30162
BRDA:80,51,102,6
BRDA:80,51,103,11969020
BRDA:80,52,104,0
BRDA:80,52,105,30732
BRDA:80,53,106,0
BRDA:80,53,107,31832
BRDA:80,54,108,60
BRDA:80,54,109,5332076
BRDA:80,55,110,0
BRDA:80,55,111,37961
BRDA:80,56,112,0
BRDA:80,56,113,16596
BRDA:80,57,114,8
BRDA:80,57,115,6931146
BRDA:80,58,116,0
BRDA:80,58,117,37374
BRDA:80,59,118,0
BRDA:80,59,119,45012
BRDA:80,60,120,40
BRDA:80,60,121,5498370
BRDA:80,61,122,22
BRDA:80,61,123,2238524
BRDA:80,62,124,0
BRDA:80,62,125,617183
BRDA:80,63,126,0
BRDA:80,63,127,652
BRDA:80,64,128,0
BRDA:80,64,129,64904
BRDA:80,65,130,30
BRDA:80,65,131,9079984
BRDA:80,66,132,0
BRDA:80,66,133,1764
BRDA:80,67,134,0
BRDA:80,67,135,126874
BRDA:80,68,136,0
BRDA:80,68,137,29056
BRDA:80,69,138,0
BRDA:80,69,139,291970
BRDA:80,70,140,0
BRDA:80,70,141,48524
BRDA:80,71,142,0
BRDA:80,71,143,926
BRDA:80,72,144,0
BRDA:80,72,145,1890843
BRDA:80,73,146,0
BRDA:80,73,147,38807
BRDA:80,74,148,0
BRDA:80,74,149,3522
BRDA:80,75,150,0
BRDA:80,75,151,21254
BRDA:80,76,152,0
BRDA:80,76,153,1256499
BRDA:80,77,154,0
BRDA:80,77,155,66230
BRDA:80,78,156,6
BRDA:80,78,157,13422
BRDA:80,79,158,0
BRDA:80,79,159,111196
BRDA:80,80,160,0
BRDA:80,80,161,5878371
BRDA:80,81,162,80
BRDA:80,81,163,4526357
BRDA:80,82,164,14
BRDA:80,82,165,23873828
BRDA:80,83,166,10
BRDA:80,83,167,16581255
BRDA:80,84,168,0
BRDA:80,84,169,87302
BRDA:80,85,170,2100
BRDA:80,85,171,21983
BRDA:80,86,172,12
BRDA:80,86,173,236938
BRDA:80,87,174,0
BRDA:80,87,175,825139
BRDA:80,88,176,70
BRDA:80,88,177,875854
BRDA:80,89,178,38
BRDA:80,89,179,15691117
BRDA:80,90,180,6
BRDA:80,90,181,5107096
BRDA:80,91,182,0
BRDA:80,91,183,482
BRDA:80,92,184,86
BRDA:80,92,185,83028
BRDA:80,93,186,0
BRDA:80,93,187,128373
BRDA:80,94,188,0
BRDA:80,94,189,1406674
BRDA:80,95,190,0
BRDA:80,95,191,6170
BRDA:80,96,192,0
BRDA:80,96,193,51800
BRDA:80,97,194,0
BRDA:80,97,195,526000
BRDA:80,98,196,0
BRDA:80,98,197,476
BRDA:80,99,198,0
BRDA:80,99,199,1634
BRDA:80,100,200,66
BRDA:80,100,201,101389
BRDA:80,101,202,0
BRDA:80,101,203,70330
BRDA:80,102,204,0
BRDA:80,102,205,36994
BRDA:80,103,206,0
BRDA:80,103,207,476
BRDA:80,104,208,0
BRDA:80,104,209,78260
BRDA:80,105,210,1966
BRDA:80,105,211,25115
BRDA:80,106,212,0
BRDA:80,106,213,4038
BRDA:80,107,214,0
BRDA:80,107,215,2018
BRDA:80,108,216,0
BRDA:80,108,217,476
BRDA:80,109,218,0
BRDA:80,109,219,2292
BRDA:80,110,220,0
BRDA:80,110,221,476
BRDA:80,111,222,0
BRDA:80,111,223,3532
BRDA:80,112,224,0
BRDA:80,112,225,37190
BRDA:80,113,226,0
BRDA:80,113,227,476
BRDA:80,114,228,0
BRDA:80,114,229,155025
BRDA:80,115,230,0
BRDA:80,115,231,476
BRDA:80,116,232,0
BRDA:80,116,233,2548
BRDA:80,117,234,0
BRDA:80,117,235,8232
BRDA:80,118,236,0
BRDA:80,118,237,476
BRDA:80,119,238,0
BRDA:80,119,239,2941174
BRDA:80,120,240,0
BRDA:80,120,241,46616
BRDA:80,121,242,0
BRDA:80,121,243,476
BRDA:80,122,244,0
BRDA:80,122,245,394215
BRDA:80,123,246,0
BRDA:80,123,247,476
BRDA:80,124,248,0
BRDA:80,124,249,6530
BRDA:80,125,250,0
BRDA:80,125,251,3127763
BRDA:80,126,252,0
BRDA:80,126,253,476
BRDA:80,127,254,0
BRDA:80,127,255,767
BRDA:80,128,256,0
BRDA:80,128,257,25416
BRDA:80,129,258,6
BRDA:80,129,259,269591
BRDA:80,130,260,0
BRDA:80,130,261,6732
BRDA:80,131,262,4
BRDA:80,131,263,4182
BRDA:80,132,264,0
BRDA:80,132,265,24906
BRDA:80,133,266,0
BRDA:80,133,267,1962
BRDA:80,134,268,6
BRDA:80,134,269,1822701
BRDA:80,135,270,0
BRDA:80,135,271,476
BRDA:80,136,272,413184
BRDA:80,136,273,7762
BRDA:80,137,274,0
BRDA:80,137,275,3602
BRDA:80,138,276,0
BRDA:80,138,277,476
BRDA:80,139,278,0
BRDA:80,139,279,2352
BRDA:80,140,280,0
BRDA:80,140,281,121294
BRDA:80,141,282,0
BRDA:80,141,283,2358
BRDA:80,142,284,0
BRDA:80,142,285,21250
BRDA:80,143,286,0
BRDA:80,143,287,6785
BRDA:80,144,288,4
BRDA:80,144,289,9382
BRDA:80,145,290,0
BRDA:80,145,291,23268
BRDA:80,146,292,0
BRDA:80,146,293,4609
BRDA:80,147,294,0
BRDA:80,147,295,8225
BRDA:80,148,296,0
BRDA:80,148,297,13412
BRDA:80,149,298,0
BRDA:80,149,299,23616
BRDA:80,150,300,0
BRDA:80,150,301,3820
BRDA:80,151,302,0
BRDA:80,151,303,18691
BRDA:80,152,304,0
BRDA:80,152,305,476
BRDA:80,153,306,0
BRDA:80,153,307,476
BRDA:80,154,308,0
BRDA:80,154,309,8339
BRDA:80,155,310,0
BRDA:80,155,311,476
BRDA:80,156,312,0
BRDA:80,156,313,7730
BRDA:80,157,314,16
BRDA:80,157,315,3272
BRDA:80,158,316,0
BRDA:80,158,317,476
BRDA:80,159,318,0
BRDA:80,159,319,488
BRDA:80,160,320,0
BRDA:80,160,321,15555
BRDA:80,161,322,0
BRDA:80,161,323,5860
BRDA:80,162,324,0
BRDA:80,162,325,2246
BRDA:80,163,326,0
BRDA:80,163,327,56902
BRDA:80,164,328,104
BRDA:80,164,329,3064429
BRDA:80,165,330,0
BRDA:80,165,331,476
BRDA:80,166,332,0
BRDA:80,166,333,7861
BRDA:80,167,334,0
BRDA:80,167,335,476
BRDA:80,168,336,0
BRDA:80,168,337,2676
BRDA:80,169,338,0
BRDA:80,169,339,3468647
BRDA:109,0,0,298421
BRDA:109,0,1,56676238
BRDA:154,0,0,-
BRDA:154,0,1,-
BRDA:178,0,0,34
BRDA:178,0,1,53284
BRDA:178,1,2,30
BRDA:178,1,3,44982
BRDA:178,2,4,476
BRDA:178,2,5,0
BRDA:178,3,6,0
BRDA:178,3,7,1962
BRDA:178,4,8,95
BRDA:178,4,9,25321
BRDA:178,5,10,30
BRDA:178,5,11,37344
BRDA:178,6,12,30
BRDA:178,6,13,24940
BRDA:178,7,14,476
BRDA:178,7,15,0
BRDA:178,8,16,476
BRDA:178,8,17,0
BRDA:178,9,18,42
BRDA:178,9,19,16556
BRDA:178,10,20,30
BRDA:178,10,21,37931
BRDA:178,11,22,476
BRDA:178,11,23,0
BRDA:178,12,24,161
BRDA:178,12,25,3064372
BRDA:178,13,26,488
BRDA:178,13,27,0
BRDA:178,14,28,30
BRDA:178,14,29,31802
BRDA:178,15,30,42
BRDA:178,15,31,26974
BRDA:178,16,32,476
BRDA:178,16,33,0
BRDA:178,17,34,476
BRDA:178,17,35,0
BRDA:178,18,36,30
BRDA:178,18,37,30702
BRDA:178,19,38,30
BRDA:178,19,39,4579
BRDA:178,20,40,24
BRDA:178,20,41,87278
BRDA:178,21,42,24
BRDA:178,21,43,271300
BRDA:178,22,44,30
BRDA:178,22,45,66200
BRDA:178,23,46,18
BRDA:178,23,47,402696
BRDA:178,24,48,18
BRDA:178,24,49,6767
BRDA:178,25,50,18
BRDA:178,25,51,722953
BRDA:178,26,52,42
BRDA:178,26,53,17342
BRDA:178,27,54,30
BRDA:178,27,55,443772
BRDA:178,28,56,36
BRDA:178,28,57,731
BRDA:178,29,58,42
BRDA:178,29,59,25190
BRDA:178,30,60,36
BRDA:178,30,61,15010
BRDA:178,31,62,52
BRDA:178,31,63,2238494
BRDA:178,32,64,24
BRDA:178,32,65,30560
BRDA:178,33,66,476
BRDA:178,33,67,0
BRDA:178,34,68,413196
BRDA:178,34,69,7750
BRDA:178,35,70,476
BRDA:178,35,71,0
BRDA:178,36,72,30
BRDA:178,36,73,291940
BRDA:178,37,74,34
BRDA:178,37,75,34368
BRDA:178,38,76,2124
BRDA:178,38,77,21959
BRDA:178,39,78,476
BRDA:178,39,79,0
BRDA:178,40,80,476
BRDA:178,40,81,0
BRDA:178,41,82,24
BRDA:178,41,83,617159
BRDA:178,42,84,30
BRDA:178,42,85,24942
BRDA:178,43,86,476
BRDA:178,43,87,0
BRDA:178,44,88,94
BRDA:178,44,89,875830
BRDA:178,45,90,22
BRDA:178,45,91,4164
BRDA:178,46,92,30
BRDA:178,46,93,1256469
BRDA:178,47,94,30
BRDA:178,47,95,93258
BRDA:178,48,96,476
BRDA:178,48,97,0
BRDA:178,49,98,476
BRDA:178,49,99,0
BRDA:178,50,100,24
BRDA:178,50,101,5878347
BRDA:178,51,102,30
BRDA:178,51,103,301104
BRDA:178,52,104,24
BRDA:178,52,105,64880
BRDA:178,53,106,30
BRDA:178,53,107,30132
BRDA:178,54,108,476
BRDA:178,54,109,0
BRDA:178,55,110,476
BRDA:178,55,111,0
BRDA:178,56,112,2061
BRDA:178,56,113,25020
BRDA:178,57,114,30
BRDA:178,57,115,41031
BRDA:178,58,116,30
BRDA:178,58,117,47802
BRDA:178,59,118,476
BRDA:178,59,119,0
BRDA:178,60,120,115
BRDA:178,60,121,101340
BRDA:178,61,122,476
BRDA:178,61,123,0
BRDA:178,62,124,30
BRDA:178,62,125,42064
BRDA:178,63,126,482
BRDA:178,63,127,0
BRDA:178,64,128,18
BRDA:178,64,129,525982
BRDA:178,65,130,128
BRDA:178,65,131,82986
BRDA:178,66,132,30
BRDA:178,66,133,28704
BRDA:178,67,134,48
BRDA:178,67,135,126826
BRDA:178,68,136,476
BRDA:178,68,137,0
BRDA:178,69,138,24
BRDA:178,69,139,11969002
BRDA:178,70,140,238
BRDA:178,70,141,1526
BRDA:178,71,142,95
BRDA:178,71,143,18596
BRDA:178,72,144,406
BRDA:178,72,145,520
BRDA:178,73,146,97
BRDA:178,73,147,3468550
BRDA:178,74,148,18
BRDA:178,74,149,78242
BRDA:178,75,150,664
BRDA:178,75,151,2858
BRDA:178,76,152,24
BRDA:178,76,153,70306
BRDA:178,77,154,674
BRDA:178,77,155,12754
BRDA:178,78,156,18
BRDA:178,78,157,1616
BRDA:178,79,158,18
BRDA:178,79,159,51782
BRDA:178,80,160,128
BRDA:178,80,161,4526309
BRDA:178,81,162,18
BRDA:178,81,163,128355
BRDA:178,82,164,95
BRDA:178,82,165,8244
BRDA:178,83,166,24
BRDA:178,83,167,5107078
BRDA:178,84,168,68
BRDA:178,84,169,8580910
BRDA:178,85,170,24
BRDA:178,85,171,825115
BRDA:178,86,172,18
BRDA:178,86,173,155530
BRDA:178,87,174,18
BRDA:178,87,175,6152
BRDA:178,88,176,22
BRDA:178,88,177,1014945
BRDA:178,89,178,18
BRDA:178,89,179,6512
BRDA:178,90,180,18
BRDA:178,90,181,4690417
BRDA:178,91,182,18
BRDA:178,91,183,394197
BRDA:178,92,184,84
BRDA:178,92,185,5332052
BRDA:178,93,186,34
BRDA:178,93,187,2941140
BRDA:178,94,188,20
BRDA:178,94,189,6931134
BRDA:178,95,190,6
BRDA:178,95,191,14918
BRDA:178,96,192,42
BRDA:178,96,193,12840
BRDA:178,97,194,6
BRDA:178,97,195,13406
BRDA:178,98,196,24
BRDA:178,98,197,23244
BRDA:178,99,198,80
BRDA:178,99,199,58573
BRDA:178,100,200,6
BRDA:178,100,201,21244
BRDA:178,101,202,86
BRDA:178,101,203,8891
BRDA:178,102,204,48
BRDA:178,102,205,121246
BRDA:178,103,206,6
BRDA:178,103,207,107551
BRDA:178,104,208,166
BRDA:178,104,209,3337
BRDA:178,105,210,24
BRDA:178,105,211,1822683
BRDA:178,106,212,18
BRDA:178,106,213,69778
BRDA:178,107,214,6
BRDA:178,107,215,24900
BRDA:178,108,216,18
BRDA:178,108,217,8207
BRDA:178,109,218,12
BRDA:178,109,219,269585
BRDA:178,110,220,6
BRDA:178,110,221,147095
BRDA:178,111,222,6
BRDA:178,111,223,23610
BRDA:178,112,224,6
BRDA:178,112,225,133373
BRDA:178,113,226,24
BRDA:178,113,227,7837
BRDA:178,114,228,6
BRDA:178,114,229,13776
BRDA:178,115,230,6
BRDA:178,115,231,56896
BRDA:178,116,232,6
BRDA:178,116,233,15240
BRDA:178,117,234,30
BRDA:178,117,235,15525
BRDA:178,118,236,238
BRDA:178,118,237,414
BRDA:178,119,238,474
BRDA:178,119,239,2814
BRDA:178,120,240,24
BRDA:178,120,241,6708
BRDA:178,121,242,24
BRDA:178,121,243,8208
BRDA:178,122,244,30
BRDA:178,122,245,58177
BRDA:178,123,246,30
BRDA:178,123,247,3790
BRDA:178,124,248,30
BRDA:178,124,249,111166
BRDA:178,125,250,24
BRDA:178,125,251,7706
BRDA:178,126,252,30
BRDA:178,126,253,46622
BRDA:178,127,254,24
BRDA:178,127,255,5836
BRDA:178,128,256,34
BRDA:178,128,257,47306
BRDA:178,129,258,24
BRDA:178,129,259,2222
BRDA:178,130,260,30
BRDA:178,130,261,40376
BRDA:178,131,262,24
BRDA:178,131,263,2652
BRDA:178,132,264,30
BRDA:178,132,265,34692
BRDA:178,133,266,62
BRDA:178,133,267,5498348
BRDA:178,134,268,30
BRDA:178,134,269,28814
BRDA:178,135,270,420
BRDA:178,135,271,470560
BRDA:178,136,272,30
BRDA:178,136,273,40466
BRDA:178,137,274,24
BRDA:178,137,275,3578
BRDA:178,138,276,30
BRDA:178,138,277,38777
BRDA:178,139,278,18
BRDA:178,139,279,2334
BRDA:178,140,280,30
BRDA:178,140,281,34094
BRDA:178,141,282,18
BRDA:178,141,283,2340
BRDA:178,142,284,30
BRDA:178,142,285,29026
BRDA:178,143,286,22
BRDA:178,143,287,9364
BRDA:178,144,288,30
BRDA:178,144,289,48494
BRDA:178,145,290,30
BRDA:178,145,291,21224
BRDA:178,146,292,24
BRDA:178,146,293,36970
BRDA:178,147,294,24
BRDA:178,147,295,2524
BRDA:178,148,296,24
BRDA:178,148,297,37166
BRDA:178,149,298,6
BRDA:178,149,299,16590
BRDA:178,150,300,18
BRDA:178,150,301,2274
BRDA:178,151,302,16
BRDA:178,151,303,16581249
BRDA:178,152,304,18
BRDA:178,152,305,2000
BRDA:178,153,306,14
BRDA:178,153,307,23873828
BRDA:178,154,308,682
BRDA:178,154,309,1890161
BRDA:178,155,310,18
BRDA:178,155,311,3514
BRDA:178,156,312,18
BRDA:178,156,313,155007
BRDA:178,157,314,736
BRDA:178,157,315,9079278
BRDA:178,158,316,718
BRDA:178,158,317,1527
BRDA:178,159,318,150
BRDA:178,159,319,10043255
BRDA:178,160,320,0
BRDA:178,160,321,1406674
BRDA:178,161,322,372
BRDA:178,161,323,15690783
BRDA:178,162,324,36
BRDA:178,162,325,1327019
BRDA:178,163,326,3726
BRDA:178,163,327,76200903
BRDA:178,164,328,30
BRDA:178,164,329,119370
BRDA:178,165,330,24
BRDA:178,165,331,4014
BRDA:178,166,332,36
BRDA:178,166,333,236914
BRDA:178,167,334,634
BRDA:178,167,335,1156630
BRDA:178,168,336,18
BRDA:178,168,337,3127745
BRDA:178,169,338,18
BRDA:178,169,339,46598
BRDA:198,0,0,-
BRDA:198,0,1,-
BRDA:198,1,2,-
BRDA:198,1,3,-
BRDA:204,0,0,-
BRDA:204,0,1,-
BRDA:215,0,0,-
BRDA:215,0,1,-
BRDA:215,1,2,-
BRDA:215,1,3,-
BRDA:215,2,4,-
BRDA:215,2,5,-
BRDA:215,3,6,-
BRDA:215,3,7,-
BRDA:215,4,8,-
BRDA:215,4,9,-
BRDA:215,5,10,-
BRDA:215,5,11,-
BRDA:215,6,12,-
BRDA:215,6,13,-
BRDA:215,7,14,-
BRDA:215,7,15,-
BRDA:215,8,16,-
BRDA:215,8,17,-
BRDA:215,9,18,-
BRDA:215,9,19,-
BRDA:215,10,20,-
BRDA:215,10,21,-
BRDA:215,11,22,-
BRDA:215,11,23,-
BRDA:215,12,24,-
BRDA:215,12,25,-
BRDA:215,13,26,-
BRDA:215,13,27,-
BRDA:215,14,28,-
BRDA:215,14,29,-
BRDA:215,15,30,-
BRDA:215,15,31,-
BRDA:215,16,32,-
BRDA:215,16,33,-
BRDA:215,17,34,-
BRDA:215,17,35,-
BRDA:215,18,36,-
BRDA:215,18,37,-
BRDA:215,19,38,-
BRDA:215,19,39,-
BRDA:215,20,40,-
BRDA:215,20,41,-
BRDA:215,21,42,-
BRDA:215,21,43,-
BRDA:215,22,44,-
BRDA:215,22,45,-
BRDA:215,23,46,-
BRDA:215,23,47,-
BRDA:215,24,48,-
BRDA:215,24,49,-
BRDA:215,25,50,-
BRDA:215,25,51,-
BRDA:215,26,52,-
BRDA:215,26,53,-
BRDA:215,27,54,-
BRDA:215,27,55,-
BRDA:215,28,56,-
BRDA:215,28,57,-
BRDA:215,29,58,-
BRDA:215,29,59,-
BRDA:215,30,60,-
BRDA:215,30,61,-
BRDA:215,31,62,-
BRDA:215,31,63,-
BRDA:215,32,64,-
BRDA:215,32,65,-
BRDA:215,33,66,-
BRDA:215,33,67,-
BRDA:215,34,68,-
BRDA:215,34,69,-
BRDA:215,35,70,-
BRDA:215,35,71,-
BRDA:215,36,72,-
BRDA:215,36,73,-
BRDA:215,37,74,-
BRDA:215,37,75,-
BRDA:215,38,76,-
BRDA:215,38,77,-
BRDA:215,39,78,-
BRDA:215,39,79,-
BRDA:215,40,80,-
BRDA:215,40,81,-
BRDA:215,41,82,-
BRDA:215,41,83,-
BRDA:215,42,84,-
BRDA:215,42,85,-
BRDA:215,43,86,-
BRDA:215,43,87,-
BRDA:215,44,88,-
BRDA:215,44,89,-
BRDA:215,45,90,-
BRDA:215,45,91,-
BRDA:215,46,92,-
BRDA:215,46,93,-
BRDA:215,47,94,-
BRDA:215,47,95,-
BRDA:215,48,96,-
BRDA:215,48,97,-
BRDA:215,49,98,-
BRDA:215,49,99,-
BRDA:215,50,100,-
BRDA:215,50,101,-
BRDA:215,51,102,-
BRDA:215,51,103,-
BRDA:215,52,104,-
BRDA:215,52,105,-
BRDA:215,53,106,-
BRDA:215,53,107,-
BRDA:215,54,108,-
BRDA:215,54,109,-
BRDA:215,55,110,-
BRDA:215,55,111,-
BRDA:215,56,112,-
BRDA:215,56,113,-
BRDA:215,57,114,-
BRDA:215,57,115,-
BRDA:215,58,116,-
BRDA:215,58,117,-
BRDA:215,59,118,-
BRDA:215,59,119,-
BRDA:215,60,120,-
BRDA:215,60,121,-
BRDA:215,61,122,-
BRDA:215,61,123,-
BRDA:215,62,124,-
BRDA:215,62,125,-
BRDA:215,63,126,-
BRDA:215,63,127,-
BRDA:215,64,128,-
BRDA:215,64,129,-
BRDA:215,65,130,-
BRDA:215,65,131,-
BRDA:215,66,132,-
BRDA:215,66,133,-
BRDA:215,67,134,-
BRDA:215,67,135,-
BRDA:215,68,136,-
BRDA:215,68,137,-
BRDA:215,69,138,-
BRDA:215,69,139,-
BRDA:215,70,140,-
BRDA:215,70,141,-
BRDA:215,71,142,-
BRDA:215,71,143,-
BRDA:215,72,144,-
BRDA:215,72,145,-
BRDA:215,73,146,-
BRDA:215,73,147,-
BRDA:215,74,148,-
BRDA:215,74,149,-
BRDA:215,75,150,-
BRDA:215,75,151,-
BRDA:215,76,152,-
BRDA:215,76,153,-
BRDA:215,77,154,-
BRDA:215,77,155,-
BRDA:215,78,156,-
BRDA:215,78,157,-
BRDA:215,79,158,-
BRDA:215,79,159,-
BRDA:215,80,160,-
BRDA:215,80,161,-
BRDA:215,81,162,-
BRDA:215,81,163,-
BRDA:215,82,164,-
BRDA:215,82,165,-
BRDA:215,83,166,-
BRDA:215,83,167,-
BRDA:215,84,168,-
BRDA:215,84,169,-
BRDA:215,85,170,-
BRDA:215,85,171,-
BRDA:215,86,172,-
BRDA:215,86,173,-
BRDA:215,87,174,-
BRDA:215,87,175,-
BRDA:215,88,176,-
BRDA:215,88,177,-
BRDA:215,89,178,-
BRDA:215,89,179,-
BRDA:215,90,180,-
BRDA:215,90,181,-
BRDA:215,91,182,-
BRDA:215,91,183,-
BRDA:215,92,184,-
BRDA:215,92,185,-
BRDA:215,93,186,-
BRDA:215,93,187,-
BRDA:215,94,188,-
BRDA:215,94,189,-
BRDA:215,95,190,-
BRDA:215,95,191,-
BRDA:215,96,192,-
BRDA:215,96,193,-
BRDA:215,97,194,-
BRDA:215,97,195,-
BRDA:215,98,196,-
BRDA:215,98,197,-
BRDA:215,99,198,-
BRDA:215,99,199,-
BRDA:215,100,200,-
BRDA:215,100,201,-
BRDA:215,101,202,-
BRDA:215,101,203,-
BRDA:215,102,204,-
BRDA:215,102,205,-
BRDA:215,103,206,-
BRDA:215,103,207,-
BRDA:215,104,208,-
BRDA:215,104,209,-
BRDA:215,105,210,-
BRDA:215,105,211,-
BRDA:215,106,212,-
BRDA:215,106,213,-
BRDA:215,107,214,-
BRDA:215,107,215,-
BRDA:215,108,216,-
BRDA:215,108,217,-
BRDA:215,109,218,-
BRDA:215,109,219,-
BRDA:215,110,220,-
BRDA:215,110,221,-
BRDA:215,111,222,-
BRDA:215,111,223,-
BRDA:215,112,224,-
BRDA:215,112,225,-
BRDA:215,113,226,-
BRDA:215,113,227,-
BRDA:215,114,228,-
BRDA:215,114,229,-
BRDA:215,115,230,-
BRDA:215,115,231,-
BRDA:215,116,232,-
BRDA:215,116,233,-
BRDA:215,117,234,-
BRDA:215,117,235,-
BRDA:215,118,236,-
BRDA:215,118,237,-
BRDA:215,119,238,-
BRDA:215,119,239,-
BRDA:215,120,240,-
BRDA:215,120,241,-
BRDA:215,121,242,-
BRDA:215,121,243,-
BRDA:215,122,244,-
BRDA:215,122,245,-
BRDA:215,123,246,-
BRDA:215,123,247,-
BRDA:215,124,248,-
BRDA:215,124,249,-
BRDA:215,125,250,-
BRDA:215,125,251,-
BRDA:215,126,252,-
BRDA:215,126,253,-
BRDA:215,127,254,-
BRDA:215,127,255,-
BRDA:215,128,256,-
BRDA:215,128,257,-
BRDA:215,129,258,-
BRDA:215,129,259,-
BRDA:215,130,260,-
BRDA:215,130,261,-
BRDA:215,131,262,-
BRDA:215,131,263,-
BRDA:215,132,264,-
BRDA:215,132,265,-
BRDA:215,133,266,-
BRDA:215,133,267,-
BRDA:215,134,268,-
BRDA:215,134,269,-
BRDA:215,135,270,-
BRDA:215,135,271,-
BRDA:215,136,272,-
BRDA:215,136,273,-
BRDA:215,137,274,-
BRDA:215,137,275,-
BRDA:215,138,276,-
BRDA:215,138,277,-
BRDA:215,139,278,-
BRDA:215,139,279,-
BRDA:215,140,280,-
BRDA:215,140,281,-
BRDA:215,141,282,-
BRDA:215,141,283,-
BRDA:215,142,284,-
BRDA:215,142,285,-
BRDA:215,143,286,-
BRDA:215,143,287,-
BRDA:215,144,288,-
BRDA:215,144,289,-
BRDA:215,145,290,-
BRDA:215,145,291,-
BRDA:215,146,292,-
BRDA:215,146,293,-
BRDA:215,147,294,-
BRDA:215,147,295,-
BRDA:215,148,296,-
BRDA:215,148,297,-
BRDA:215,149,298,-
BRDA:215,149,299,-
BRDA:215,150,300,-
BRDA:215,150,301,-
BRDA:215,151,302,-
BRDA:215,151,303,-
BRDA:215,152,304,-
BRDA:215,152,305,-
BRDA:215,153,306,-
BRDA:215,153,307,-
BRDA:215,154,308,-
BRDA:215,154,309,-
BRDA:215,155,310,-
BRDA:215,155,311,-
BRDA:215,156,312,-
BRDA:215,156,313,-
BRDA:215,157,314,-
BRDA:215,157,315,-
BRDA:215,158,316,-
BRDA:215,158,317,-
BRDA:215,159,318,-
BRDA:215,159,319,-
BRDA:215,160,320,-
BRDA:215,160,321,-
BRDA:215,161,322,-
BRDA:215,161,323,-
BRDA:215,162,324,-
BRDA:215,162,325,-
BRDA:215,163,326,-
BRDA:215,163,327,-
BRDA:215,164,328,-
BRDA:215,164,329,-
BRDA:215,165,330,-
BRDA:215,165,331,-
BRDA:215,166,332,-
BRDA:215,166,333,-
BRDA:215,167,334,-
BRDA:215,167,335,-
BRDA:215,168,336,-
BRDA:215,168,337,-
BRDA:215,169,338,-
BRDA:215,169,339,-
BRDA:215,170,340,-
BRDA:215,170,341,-
BRDA:215,171,342,-
BRDA:215,171,343,-
BRDA:215,172,344,-
BRDA:215,172,345,-
BRDA:215,173,346,-
BRDA:215,173,347,-
BRDA:215,174,348,-
BRDA:215,174,349,-
BRDA:215,175,350,-
BRDA:215,175,351,-
BRDA:215,176,352,-
BRDA:215,176,353,-
BRDA:215,177,354,-
BRDA:215,177,355,-
BRDA:215,178,356,-
BRDA:215,178,357,-
BRDA:215,179,358,-
BRDA:215,179,359,-
BRDA:215,180,360,-
BRDA:215,180,361,-
BRDA:215,181,362,-
BRDA:215,181,363,-
BRDA:215,182,364,-
BRDA:215,182,365,-
BRDA:215,183,366,-
BRDA:215,183,367,-
BRDA:215,184,368,-
BRDA:215,184,369,-
BRDA:215,185,370,-
BRDA:215,185,371,-
BRDA:215,186,372,-
BRDA:215,186,373,-
BRDA:215,187,374,-
BRDA:215,187,375,-
BRDA:215,188,376,-
BRDA:215,188,377,-
BRDA:215,189,378,-
BRDA:215,189,379,-
BRDA:215,190,380,-
BRDA:215,190,381,-
BRDA:215,191,382,-
BRDA:215,191,383,-
BRDA:215,192,384,-
BRDA:215,192,385,-
BRDA:215,193,386,-
BRDA:215,193,387,-
BRDA:215,194,388,-
BRDA:215,194,389,-
BRDA:215,195,390,-
BRDA:215,195,391,-
BRDA:215,196,392,-
BRDA:215,196,393,-
BRDA:215,197,394,-
BRDA:215,197,395,-
BRDA:215,198,396,-
BRDA:215,198,397,-
BRDA:215,199,398,-
BRDA:215,199,399,-
BRDA:215,200,400,-
BRDA:215,200,401,-
BRDA:215,201,402,-
BRDA:215,201,403,-
BRDA:215,202,404,-
BRDA:215,202,405,-
BRDA:215,203,406,-
BRDA:215,203,407,-
BRDA:215,204,408,-
BRDA:215,204,409,-
BRDA:215,205,410,-
BRDA:215,205,411,-
BRDA:215,206,412,-
BRDA:215,206,413,-
BRDA:215,207,414,-
BRDA:215,207,415,-
BRDA:215,208,416,-
BRDA:215,208,417,-
BRDA:215,209,418,-
BRDA:215,209,419,-
BRDA:215,210,420,-
BRDA:215,210,421,-
BRDA:215,211,422,-
BRDA:215,211,423,-
BRDA:215,212,424,-
BRDA:215,212,425,-
BRDA:215,213,426,-
BRDA:215,213,427,-
BRDA:215,214,428,-
BRDA:215,214,429,-
BRDA:215,215,430,-
BRDA:215,215,431,-
BRDA:215,216,432,-
BRDA:215,216,433,-
BRDA:215,217,434,-
BRDA:215,217,435,-
BRDA:215,218,436,-
BRDA:215,218,437,-
BRDA:215,219,438,-
BRDA:215,219,439,-
BRDA:215,220,440,-
BRDA:215,220,441,-
BRDA:215,221,442,-
BRDA:215,221,443,-
BRDA:215,222,444,-
BRDA:215,222,445,-
BRDA:215,223,446,-
BRDA:215,223,447,-
BRDA:215,224,448,-
BRDA:215,224,449,-
BRDA:215,225,450,-
BRDA:215,225,451,-
BRDA:215,226,452,-
BRDA:215,226,453,-
BRDA:215,227,454,-
BRDA:215,227,455,-
BRDA:215,228,456,-
BRDA:215,228,457,-
BRDA:215,229,458,-
BRDA:215,229,459,-
BRDA:215,230,460,-
BRDA:215,230,461,-
BRDA:215,231,462,-
BRDA:215,231,463,-
BRDA:215,232,464,-
BRDA:215,232,465,-
BRDA:215,233,466,-
BRDA:215,233,467,-
BRDA:215,234,468,-
BRDA:215,234,469,-
BRDA:215,235,470,-
BRDA:215,235,471,-
BRDA:215,236,472,-
BRDA:215,236,473,-
BRDA:215,237,474,-
BRDA:215,237,475,-
BRDA:215,238,476,-
BRDA:215,238,477,-
BRDA:215,239,478,-
BRDA:215,239,479,-
BRDA:215,240,480,-
BRDA:215,240,481,-
BRDA:215,241,482,-
BRDA:215,241,483,-
BRDA:215,242,484,-
BRDA:215,242,485,-
BRDA:215,243,486,-
BRDA:215,243,487,-
BRDA:215,244,488,-
BRDA:215,244,489,-
BRDA:215,245,490,-
BRDA:215,245,491,-
BRDA:215,246,492,-
BRDA:215,246,493,-
BRDA:215,247,494,-
BRDA:215,247,495,-
BRDA:215,248,496,-
BRDA:215,248,497,-
BRDA:215,249,498,-
BRDA:215,249,499,-
BRDA:215,250,500,-
BRDA:215,250,501,-
BRDA:215,251,502,-
BRDA:215,251,503,-
BRDA:215,252,504,-
BRDA:215,252,505,-
BRDA:215,253,506,-
BRDA:215,253,507,-
BRDA:215,254,508,-
BRDA:215,254,509,-
BRDA:215,255,510,-
BRDA:215,255,511,-
BRDA:215,256,512,-
BRDA:215,256,513,-
BRDA:215,257,514,-
BRDA:215,257,515,-
BRDA:215,258,516,-
BRDA:215,258,517,-
BRDA:215,259,518,-
BRDA:215,259,519,-
BRDA:215,260,520,-
BRDA:215,260,521,-
BRDA:215,261,522,-
BRDA:215,261,523,-
BRDA:215,262,524,-
BRDA:215,262,525,-
BRDA:215,263,526,-
BRDA:215,263,527,-
BRDA:215,264,528,-
BRDA:215,264,529,-
BRDA:215,265,530,-
BRDA:215,265,531,-
BRDA:215,266,532,-
BRDA:215,266,533,-
BRDA:215,267,534,-
BRDA:215,267,535,-
BRDA:215,268,536,-
BRDA:215,268,537,-
BRDA:215,269,538,-
BRDA:215,269,539,-
BRDA:215,270,540,-
BRDA:215,270,541,-
BRDA:215,271,542,-
BRDA:215,271,543,-
BRDA:215,272,544,-
BRDA:215,272,545,-
BRDA:215,273,546,-
BRDA:215,273,547,-
BRDA:215,274,548,-
BRDA:215,274,549,-
BRDA:215,275,550,-
BRDA:215,275,551,-
BRDA:215,276,552,-
BRDA:215,276,553,-
BRDA:215,277,554,-
BRDA:215,277,555,-
BRDA:215,278,556,-
BRDA:215,278,557,-
BRDA:215,279,558,-
BRDA:215,279,559,-
BRDA:215,280,560,-
BRDA:215,280,561,-
BRDA:215,281,562,-
BRDA:215,281,563,-
BRDA:215,282,564,-
BRDA:215,282,565,-
BRDA:215,283,566,-
BRDA:215,283,567,-
BRDA:215,284,568,-
BRDA:215,284,569,-
BRDA:215,285,570,-
BRDA:215,285,571,-
BRDA:215,286,572,-
BRDA:215,286,573,-
BRDA:215,287,574,-
BRDA:215,287,575,-
BRDA:215,288,576,-
BRDA:215,288,577,-
BRDA:215,289,578,-
BRDA:215,289,579,-
BRDA:215,290,580,-
BRDA:215,290,581,-
BRDA:215,291,582,-
BRDA:215,291,583,-
BRDA:215,292,584,-
BRDA:215,292,585,-
BRDA:215,293,586,-
BRDA:215,293,587,-
BRDA:215,294,588,-
BRDA:215,294,589,-
BRDA:215,295,590,-
BRDA:215,295,591,-
BRDA:215,296,592,-
BRDA:215,296,593,-
BRDA:215,297,594,-
BRDA:215,297,595,-
BRDA:215,298,596,-
BRDA:215,298,597,-
BRDA:215,299,598,-
BRDA:215,299,599,-
BRDA:215,300,600,-
BRDA:215,300,601,-
BRDA:215,301,602,-
BRDA:215,301,603,-
BRDA:215,302,604,-
BRDA:215,302,605,-
BRDA:215,303,606,-
BRDA:215,303,607,-
BRDA:215,304,608,-
BRDA:215,304,609,-
BRDA:215,305,610,-
BRDA:215,305,611,-
BRDA:215,306,612,-
BRDA:215,306,613,-
BRDA:215,307,614,-
BRDA:215,307,615,-
BRDA:215,308,616,-
BRDA:215,308,617,-
BRDA:215,309,618,-
BRDA:215,309,619,-
BRDA:215,310,620,-
BRDA:215,310,621,-
BRDA:215,311,622,-
BRDA:215,311,623,-
BRDA:215,312,624,-
BRDA:215,312,625,-
BRDA:215,313,626,-
BRDA:215,313,627,-
BRDA:215,314,628,-
BRDA:215,314,629,-
BRDA:215,315,630,-
BRDA:215,315,631,-
BRDA:215,316,632,-
BRDA:215,316,633,-
BRDA:215,317,634,-
BRDA:215,317,635,-
BRDA:215,318,636,-
BRDA:215,318,637,-
BRDA:215,319,638,-
BRDA:215,319,639,-
BRDA:215,320,640,-
BRDA:215,320,641,-
BRDA:215,321,642,-
BRDA:215,321,643,-
BRDA:215,322,644,-
BRDA:215,322,645,-
BRDA:215,323,646,-
BRDA:215,323,647,-
BRDA:215,324,648,-
BRDA:215,324,649,-
BRDA:215,325,650,-
BRDA:215,325,651,-
BRDA:215,326,652,-
BRDA:215,326,653,-
BRDA:215,327,654,-
BRDA:215,327,655,-
BRDA:215,328,656,-
BRDA:215,328,657,-
BRDA:215,329,658,-
BRDA:215,329,659,-
BRDA:215,330,660,-
BRDA:215,330,661,-
BRDA:215,331,662,-
BRDA:215,331,663,-
BRDA:215,332,664,-
BRDA:215,332,665,-
BRDA:215,333,666,-
BRDA:215,333,667,-
BRDA:215,334,668,-
BRDA:215,334,669,-
BRDA:215,335,670,-
BRDA:215,335,671,-
BRDA:215,336,672,-
BRDA:215,336,673,-
BRDA:215,337,674,-
BRDA:215,337,675,-
BRDA:215,338,676,-
BRDA:215,338,677,-
BRDA:215,339,678,-
BRDA:215,339,679,-
BRDA:218,0,0,-
BRDA:218,0,1,-
BRDA:218,1,2,-
BRDA:218,1,3,-
BRDA:218,2,4,-
BRDA:218,2,5,-
BRDA:218,3,6,-
BRDA:218,3,7,-
BRDA:218,4,8,-
BRDA:218,4,9,-
BRDA:218,5,10,-
BRDA:218,5,11,-
BRDA:218,6,12,-
BRDA:218,6,13,-
BRDA:218,7,14,-
BRDA:218,7,15,-
BRDA:218,8,16,-
BRDA:218,8,17,-
BRDA:218,9,18,-
BRDA:218,9,19,-
BRDA:218,10,20,-
BRDA:218,10,21,-
BRDA:218,11,22,-
BRDA:218,11,23,-
BRDA:218,12,24,-
BRDA:218,12,25,-
BRDA:218,13,26,-
BRDA:218,13,27,-
BRDA:218,14,28,-
BRDA:218,14,29,-
BRDA:218,15,30,-
BRDA:218,15,31,-
BRDA:218,16,32,-
BRDA:218,16,33,-
BRDA:218,17,34,-
BRDA:218,17,35,-
BRDA:218,18,36,-
BRDA:218,18,37,-
BRDA:218,19,38,-
BRDA:218,19,39,-
BRDA:218,20,40,-
BRDA:218,20,41,-
BRDA:218,21,42,-
BRDA:218,21,43,-
BRDA:218,22,44,-
BRDA:218,22,45,-
BRDA:218,23,46,-
BRDA:218,23,47,-
BRDA:218,24,48,-
BRDA:218,24,49,-
BRDA:218,25,50,-
BRDA:218,25,51,-
BRDA:218,26,52,-
BRDA:218,26,53,-
BRDA:218,27,54,-
BRDA:218,27,55,-
BRDA:218,28,56,-
BRDA:218,28,57,-
BRDA:218,29,58,-
BRDA:218,29,59,-
BRDA:218,30,60,-
BRDA:218,30,61,-
BRDA:218,31,62,-
BRDA:218,31,63,-
BRDA:218,32,64,-
BRDA:218,32,65,-
BRDA:218,33,66,-
BRDA:218,33,67,-
BRDA:218,34,68,-
BRDA:218,34,69,-
BRDA:218,35,70,-
BRDA:218,35,71,-
BRDA:218,36,72,-
BRDA:218,36,73,-
BRDA:218,37,74,-
BRDA:218,37,75,-
BRDA:218,38,76,-
BRDA:218,38,77,-
BRDA:218,39,78,-
BRDA:218,39,79,-
BRDA:218,40,80,-
BRDA:218,40,81,-
BRDA:218,41,82,-
BRDA:218,41,83,-
BRDA:218,42,84,-
BRDA:218,42,85,-
BRDA:218,43,86,-
BRDA:218,43,87,-
BRDA:218,44,88,-
BRDA:218,44,89,-
BRDA:218,45,90,-
BRDA:218,45,91,-
BRDA:218,46,92,-
BRDA:218,46,93,-
BRDA:218,47,94,-
BRDA:218,47,95,-
BRDA:218,48,96,-
BRDA:218,48,97,-
BRDA:218,49,98,-
BRDA:218,49,99,-
BRDA:218,50,100,-
BRDA:218,50,101,-
BRDA:218,51,102,-
BRDA:218,51,103,-
BRDA:218,52,104,-
BRDA:218,52,105,-
BRDA:218,53,106,-
BRDA:218,53,107,-
BRDA:218,54,108,-
BRDA:218,54,109,-
BRDA:218,55,110,-
BRDA:218,55,111,-
BRDA:218,56,112,-
BRDA:218,56,113,-
BRDA:218,57,114,-
BRDA:218,57,115,-
BRDA:218,58,116,-
BRDA:218,58,117,-
BRDA:218,59,118,-
BRDA:218,59,119,-
BRDA:218,60,120,-
BRDA:218,60,121,-
BRDA:218,61,122,-
BRDA:218,61,123,-
BRDA:218,62,124,-
BRDA:218,62,125,-
BRDA:218,63,126,-
BRDA:218,63,127,-
BRDA:218,64,128,-
BRDA:218,64,129,-
BRDA:218,65,130,-
BRDA:218,65,131,-
BRDA:218,66,132,-
BRDA:218,66,133,-
BRDA:218,67,134,-
BRDA:218,67,135,-
BRDA:218,68,136,-
BRDA:218,68,137,-
BRDA:218,69,138,-
BRDA:218,69,139,-
BRDA:218,70,140,-
BRDA:218,70,141,-
BRDA:218,71,142,-
BRDA:218,71,143,-
BRDA:218,72,144,-
BRDA:218,72,145,-
BRDA:218,73,146,-
BRDA:218,73,147,-
BRDA:218,74,148,-
BRDA:218,74,149,-
BRDA:218,75,150,-
BRDA:218,75,151,-
BRDA:218,76,152,-
BRDA:218,76,153,-
BRDA:218,77,154,-
BRDA:218,77,155,-
BRDA:218,78,156,-
BRDA:218,78,157,-
BRDA:218,79,158,-
BRDA:218,79,159,-
BRDA:218,80,160,-
BRDA:218,80,161,-
BRDA:218,81,162,-
BRDA:218,81,163,-
BRDA:218,82,164,-
BRDA:218,82,165,-
BRDA:218,83,166,-
BRDA:218,83,167,-
BRDA:218,84,168,-
BRDA:218,84,169,-
BRDA:218,85,170,-
BRDA:218,85,171,-
BRDA:218,86,172,-
BRDA:218,86,173,-
BRDA:218,87,174,-
BRDA:218,87,175,-
BRDA:218,88,176,-
BRDA:218,88,177,-
BRDA:218,89,178,-
BRDA:218,89,179,-
BRDA:218,90,180,-
BRDA:218,90,181,-
BRDA:218,91,182,-
BRDA:218,91,183,-
BRDA:218,92,184,-
BRDA:218,92,185,-
BRDA:218,93,186,-
BRDA:218,93,187,-
BRDA:218,94,188,-
BRDA:218,94,189,-
BRDA:218,95,190,-
BRDA:218,95,191,-
BRDA:218,96,192,-
BRDA:218,96,193,-
BRDA:218,97,194,-
BRDA:218,97,195,-
BRDA:218,98,196,-
BRDA:218,98,197,-
BRDA:218,99,198,-
BRDA:218,99,199,-
BRDA:218,100,200,-
BRDA:218,100,201,-
BRDA:218,101,202,-
BRDA:218,101,203,-
BRDA:218,102,204,-
BRDA:218,102,205,-
BRDA:218,103,206,-
BRDA:218,103,207,-
BRDA:218,104,208,-
BRDA:218,104,209,-
BRDA:218,105,210,-
BRDA:218,105,211,-
BRDA:218,106,212,-
BRDA:218,106,213,-
BRDA:218,107,214,-
BRDA:218,107,215,-
BRDA:218,108,216,-
BRDA:218,108,217,-
BRDA:218,109,218,-
BRDA:218,109,219,-
BRDA:218,110,220,-
BRDA:218,110,221,-
BRDA:218,111,222,-
BRDA:218,111,223,-
BRDA:218,112,224,-
BRDA:218,112,225,-
BRDA:218,113,226,-
BRDA:218,113,227,-
BRDA:218,114,228,-
BRDA:218,114,229,-
BRDA:218,115,230,-
BRDA:218,115,231,-
BRDA:218,116,232,-
BRDA:218,116,233,-
BRDA:218,117,234,-
BRDA:218,117,235,-
BRDA:218,118,236,-
BRDA:218,118,237,-
BRDA:218,119,238,-
BRDA:218,119,239,-
BRDA:218,120,240,-
BRDA:218,120,241,-
BRDA:218,121,242,-
BRDA:218,121,243,-
BRDA:218,122,244,-
BRDA:218,122,245,-
BRDA:218,123,246,-
BRDA:218,123,247,-
BRDA:218,124,248,-
BRDA:218,124,249,-
BRDA:218,125,250,-
BRDA:218,125,251,-
BRDA:218,126,252,-
BRDA:218,126,253,-
BRDA:218,127,254,-
BRDA:218,127,255,-
BRDA:218,128,256,-
BRDA:218,128,257,-
BRDA:218,129,258,-
BRDA:218,129,259,-
BRDA:218,130,260,-
BRDA:218,130,261,-
BRDA:218,131,262,-
BRDA:218,131,263,-
BRDA:218,132,264,-
BRDA:218,132,265,-
BRDA:218,133,266,-
BRDA:218,133,267,-
BRDA:218,134,268,-
BRDA:218,134,269,-
BRDA:218,135,270,-
BRDA:218,135,271,-
BRDA:218,136,272,-
BRDA:218,136,273,-
BRDA:218,137,274,-
BRDA:218,137,275,-
BRDA:218,138,276,-
BRDA:218,138,277,-
BRDA:218,139,278,-
BRDA:218,139,279,-
BRDA:218,140,280,-
BRDA:218,140,281,-
BRDA:218,141,282,-
BRDA:218,141,283,-
BRDA:218,142,284,-
BRDA:218,142,285,-
BRDA:218,143,286,-
BRDA:218,143,287,-
BRDA:218,144,288,-
BRDA:218,144,289,-
BRDA:218,145,290,-
BRDA:218,145,291,-
BRDA:218,146,292,-
BRDA:218,146,293,-
BRDA:218,147,294,-
BRDA:218,147,295,-
BRDA:218,148,296,-
BRDA:218,148,297,-
BRDA:218,149,298,-
BRDA:218,149,299,-
BRDA:218,150,300,-
BRDA:218,150,301,-
BRDA:218,151,302,-
BRDA:218,151,303,-
BRDA:218,152,304,-
BRDA:218,152,305,-
BRDA:218,153,306,-
BRDA:218,153,307,-
BRDA:218,154,308,-
BRDA:218,154,309,-
BRDA:218,155,310,-
BRDA:218,155,311,-
BRDA:218,156,312,-
BRDA:218,156,313,-
BRDA:218,157,314,-
BRDA:218,157,315,-
BRDA:218,158,316,-
BRDA:218,158,317,-
BRDA:218,159,318,-
BRDA:218,159,319,-
BRDA:218,160,320,-
BRDA:218,160,321,-
BRDA:218,161,322,-
BRDA:218,161,323,-
BRDA:218,162,324,-
BRDA:218,162,325,-
BRDA:218,163,326,-
BRDA:218,163,327,-
BRDA:218,164,328,-
BRDA:218,164,329,-
BRDA:218,165,330,-
BRDA:218,165,331,-
BRDA:218,166,332,-
BRDA:218,166,333,-
BRDA:218,167,334,-
BRDA:218,167,335,-
BRDA:218,168,336,-
BRDA:218,168,337,-
BRDA:218,169,338,-
BRDA:218,169,339,-
BRDA:218,170,340,-
BRDA:218,170,341,-
BRDA:218,171,342,-
BRDA:218,171,343,-
BRDA:218,172,344,-
BRDA:218,172,345,-
BRDA:218,173,346,-
BRDA:218,173,347,-
BRDA:218,174,348,-
BRDA:218,174,349,-
BRDA:218,175,350,-
BRDA:218,175,351,-
BRDA:218,176,352,-
BRDA:218,176,353,-
BRDA:218,177,354,-
BRDA:218,177,355,-
BRDA:218,178,356,-
BRDA:218,178,357,-
BRDA:218,179,358,-
BRDA:218,179,359,-
BRDA:218,180,360,-
BRDA:218,180,361,-
BRDA:218,181,362,-
BRDA:218,181,363,-
BRDA:218,182,364,-
BRDA:218,182,365,-
BRDA:218,183,366,-
BRDA:218,183,367,-
BRDA:218,184,368,-
BRDA:218,184,369,-
BRDA:218,185,370,-
BRDA:218,185,371,-
BRDA:218,186,372,-
BRDA:218,186,373,-
BRDA:218,187,374,-
BRDA:218,187,375,-
BRDA:218,188,376,-
BRDA:218,188,377,-
BRDA:218,189,378,-
BRDA:218,189,379,-
BRDA:218,190,380,-
BRDA:218,190,381,-
BRDA:218,191,382,-
BRDA:218,191,383,-
BRDA:218,192,384,-
BRDA:218,192,385,-
BRDA:218,193,386,-
BRDA:218,193,387,-
BRDA:218,194,388,-
BRDA:218,194,389,-
BRDA:218,195,390,-
BRDA:218,195,391,-
BRDA:218,196,392,-
BRDA:218,196,393,-
BRDA:218,197,394,-
BRDA:218,197,395,-
BRDA:218,198,396,-
BRDA:218,198,397,-
BRDA:218,199,398,-
BRDA:218,199,399,-
BRDA:218,200,400,-
BRDA:218,200,401,-
BRDA:218,201,402,-
BRDA:218,201,403,-
BRDA:218,202,404,-
BRDA:218,202,405,-
BRDA:218,203,406,-
BRDA:218,203,407,-
BRDA:218,204,408,-
BRDA:218,204,409,-
BRDA:218,205,410,-
BRDA:218,205,411,-
BRDA:218,206,412,-
BRDA:218,206,413,-
BRDA:218,207,414,-
BRDA:218,207,415,-
BRDA:218,208,416,-
BRDA:218,208,417,-
BRDA:218,209,418,-
BRDA:218,209,419,-
BRDA:218,210,420,-
BRDA:218,210,421,-
BRDA:218,211,422,-
BRDA:218,211,423,-
BRDA:218,212,424,-
BRDA:218,212,425,-
BRDA:218,213,426,-
BRDA:218,213,427,-
BRDA:218,214,428,-
BRDA:218,214,429,-
BRDA:218,215,430,-
BRDA:218,215,431,-
BRDA:218,216,432,-
BRDA:218,216,433,-
BRDA:218,217,434,-
BRDA:218,217,435,-
BRDA:218,218,436,-
BRDA:218,218,437,-
BRDA:218,219,438,-
BRDA:218,219,439,-
BRDA:218,220,440,-
BRDA:218,220,441,-
BRDA:218,221,442,-
BRDA:218,221,443,-
BRDA:218,222,444,-
BRDA:218,222,445,-
BRDA:218,223,446,-
BRDA:218,223,447,-
BRDA:218,224,448,-
BRDA:218,224,449,-
BRDA:218,225,450,-
BRDA:218,225,451,-
BRDA:218,226,452,-
BRDA:218,226,453,-
BRDA:218,227,454,-
BRDA:218,227,455,-
BRDA:218,228,456,-
BRDA:218,228,457,-
BRDA:218,229,458,-
BRDA:218,229,459,-
BRDA:218,230,460,-
BRDA:218,230,461,-
BRDA:218,231,462,-
BRDA:218,231,463,-
BRDA:218,232,464,-
BRDA:218,232,465,-
BRDA:218,233,466,-
BRDA:218,233,467,-
BRDA:218,234,468,-
BRDA:218,234,469,-
BRDA:218,235,470,-
BRDA:218,235,471,-
BRDA:218,236,472,-
BRDA:218,236,473,-
BRDA:218,237,474,-
BRDA:218,237,475,-
BRDA:218,238,476,-
BRDA:218,238,477,-
BRDA:218,239,478,-
BRDA:218,239,479,-
BRDA:218,240,480,-
BRDA:218,240,481,-
BRDA:218,241,482,-
BRDA:218,241,483,-
BRDA:218,242,484,-
BRDA:218,242,485,-
BRDA:218,243,486,-
BRDA:218,243,487,-
BRDA:218,244,488,-
BRDA:218,244,489,-
BRDA:218,245,490,-
BRDA:218,245,491,-
BRDA:218,246,492,-
BRDA:218,246,493,-
BRDA:218,247,494,-
BRDA:218,247,495,-
BRDA:218,248,496,-
BRDA:218,248,497,-
BRDA:218,249,498,-
BRDA:218,249,499,-
BRDA:218,250,500,-
BRDA:218,250,501,-
BRDA:218,251,502,-
BRDA:218,251,503,-
BRDA:218,252,504,-
BRDA:218,252,505,-
BRDA:218,253,506,-
BRDA:218,253,507,-
BRDA:218,254,508,-
BRDA:218,254,509,-
BRDA:218,255,510,-
BRDA:218,255,511,-
BRDA:218,256,512,-
BRDA:218,256,513,-
BRDA:218,257,514,-
BRDA:218,257,515,-
BRDA:218,258,516,-
BRDA:218,258,517,-
BRDA:218,259,518,-
BRDA:218,259,519,-
BRDA:218,260,520,-
BRDA:218,260,521,-
BRDA:218,261,522,-
BRDA:218,261,523,-
BRDA:218,262,524,-
BRDA:218,262,525,-
BRDA:218,263,526,-
BRDA:218,263,527,-
BRDA:218,264,528,-
BRDA:218,264,529,-
BRDA:218,265,530,-
BRDA:218,265,531,-
BRDA:218,266,532,-
BRDA:218,266,533,-
BRDA:218,267,534,-
BRDA:218,267,535,-
BRDA:218,268,536,-
BRDA:218,268,537,-
BRDA:218,269,538,-
BRDA:218,269,539,-
BRDA:218,270,540,-
BRDA:218,270,541,-
BRDA:218,271,542,-
BRDA:218,271,543,-
BRDA:218,272,544,-
BRDA:218,272,545,-
BRDA:218,273,546,-
BRDA:218,273,547,-
BRDA:218,274,548,-
BRDA:218,274,549,-
BRDA:218,275,550,-
BRDA:218,275,551,-
BRDA:218,276,552,-
BRDA:218,276,553,-
BRDA:218,277,554,-
BRDA:218,277,555,-
BRDA:218,278,556,-
BRDA:218,278,557,-
BRDA:218,279,558,-
BRDA:218,279,559,-
BRDA:218,280,560,-
BRDA:218,280,561,-
BRDA:218,281,562,-
BRDA:218,281,563,-
BRDA:218,282,564,-
BRDA:218,282,565,-
BRDA:218,283,566,-
BRDA:218,283,567,-
BRDA:218,284,568,-
BRDA:218,284,569,-
BRDA:218,285,570,-
BRDA:218,285,571,-
BRDA:218,286,572,-
BRDA:218,286,573,-
BRDA:218,287,574,-
BRDA:218,287,575,-
BRDA:218,288,576,-
BRDA:218,288,577,-
BRDA:218,289,578,-
BRDA:218,289,579,-
BRDA:218,290,580,-
BRDA:218,290,581,-
BRDA:218,291,582,-
BRDA:218,291,583,-
BRDA:218,292,584,-
BRDA:218,292,585,-
BRDA:218,293,586,-
BRDA:218,293,587,-
BRDA:218,294,588,-
BRDA:218,294,589,-
BRDA:218,295,590,-
BRDA:218,295,591,-
BRDA:218,296,592,-
BRDA:218,296,593,-
BRDA:218,297,594,-
BRDA:218,297,595,-
BRDA:218,298,596,-
BRDA:218,298,597,-
BRDA:218,299,598,-
BRDA:218,299,599,-
BRDA:218,300,600,-
BRDA:218,300,601,-
BRDA:218,301,602,-
BRDA:218,301,603,-
BRDA:218,302,604,-
BRDA:218,302,605,-
BRDA:218,303,606,-
BRDA:218,303,607,-
BRDA:218,304,608,-
BRDA:218,304,609,-
BRDA:218,305,610,-
BRDA:218,305,611,-
BRDA:218,306,612,-
BRDA:218,306,613,-
BRDA:218,307,614,-
BRDA:218,307,615,-
BRDA:218,308,616,-
BRDA:218,308,617,-
BRDA:218,309,618,-
BRDA:218,309,619,-
BRDA:218,310,620,-
BRDA:218,310,621,-
BRDA:218,311,622,-
BRDA:218,311,623,-
BRDA:218,312,624,-
BRDA:218,312,625,-
BRDA:218,313,626,-
BRDA:218,313,627,-
BRDA:218,314,628,-
BRDA:218,314,629,-
BRDA:218,315,630,-
BRDA:218,315,631,-
BRDA:218,316,632,-
BRDA:218,316,633,-
BRDA:218,317,634,-
BRDA:218,317,635,-
BRDA:218,318,636,-
BRDA:218,318,637,-
BRDA:218,319,638,-
BRDA:218,319,639,-
BRDA:218,320,640,-
BRDA:218,320,641,-
BRDA:218,321,642,-
BRDA:218,321,643,-
BRDA:218,322,644,-
BRDA:218,322,645,-
BRDA:218,323,646,-
BRDA:218,323,647,-
BRDA:218,324,648,-
BRDA:218,324,649,-
BRDA:218,325,650,-
BRDA:218,325,651,-
BRDA:218,326,652,-
BRDA:218,326,653,-
BRDA:218,327,654,-
BRDA:218,327,655,-
BRDA:218,328,656,-
BRDA:218,328,657,-
BRDA:218,329,658,-
BRDA:218,329,659,-
BRDA:218,330,660,-
BRDA:218,330,661,-
BRDA:218,331,662,-
BRDA:218,331,663,-
BRDA:218,332,664,-
BRDA:218,332,665,-
BRDA:218,333,666,-
BRDA:218,333,667,-
BRDA:218,334,668,-
BRDA:218,334,669,-
BRDA:218,335,670,-
BRDA:218,335,671,-
BRDA:218,336,672,-
BRDA:218,336,673,-
BRDA:218,337,674,-
BRDA:218,337,675,-
BRDA:218,338,676,-
BRDA:218,338,677,-
BRDA:218,339,678,-
BRDA:218,339,679,-
BRDA:230,0,0,-
BRDA:230,0,1,-
BRDA:230,1,2,-
BRDA:230,1,3,-
BRDA:230,2,4,-
BRDA:230,2,5,-
BRDA:230,3,6,-
BRDA:230,3,7,-
BRDA:230,4,8,-
BRDA:230,4,9,-
BRDA:230,5,10,-
BRDA:230,5,11,-
BRDA:230,6,12,-
BRDA:230,6,13,-
BRDA:230,7,14,-
BRDA:230,7,15,-
BRDA:230,8,16,-
BRDA:230,8,17,-
BRDA:230,9,18,-
BRDA:230,9,19,-
BRDA:230,10,20,-
BRDA:230,10,21,-
BRDA:230,11,22,-
BRDA:230,11,23,-
BRDA:230,12,24,-
BRDA:230,12,25,-
BRDA:230,13,26,-
BRDA:230,13,27,-
BRDA:230,14,28,-
BRDA:230,14,29,-
BRDA:230,15,30,-
BRDA:230,15,31,-
BRDA:230,16,32,-
BRDA:230,16,33,-
BRDA:230,17,34,-
BRDA:230,17,35,-
BRDA:230,18,36,-
BRDA:230,18,37,-
BRDA:230,19,38,-
BRDA:230,19,39,-
BRDA:230,20,40,-
BRDA:230,20,41,-
BRDA:230,21,42,-
BRDA:230,21,43,-
BRDA:230,22,44,-
BRDA:230,22,45,-
BRDA:230,23,46,-
BRDA:230,23,47,-
BRDA:230,24,48,-
BRDA:230,24,49,-
BRDA:230,25,50,-
BRDA:230,25,51,-
BRDA:230,26,52,-
BRDA:230,26,53,-
BRDA:230,27,54,-
BRDA:230,27,55,-
BRDA:230,28,56,-
BRDA:230,28,57,-
BRDA:230,29,58,-
BRDA:230,29,59,-
BRDA:230,30,60,-
BRDA:230,30,61,-
BRDA:230,31,62,-
BRDA:230,31,63,-
BRDA:230,32,64,-
BRDA:230,32,65,-
BRDA:230,33,66,-
BRDA:230,33,67,-
BRDA:230,34,68,-
BRDA:230,34,69,-
BRDA:230,35,70,-
BRDA:230,35,71,-
BRDA:230,36,72,-
BRDA:230,36,73,-
BRDA:230,37,74,-
BRDA:230,37,75,-
BRDA:230,38,76,-
BRDA:230,38,77,-
BRDA:230,39,78,-
BRDA:230,39,79,-
BRDA:230,40,80,-
BRDA:230,40,81,-
BRDA:230,41,82,-
BRDA:230,41,83,-
BRDA:230,42,84,-
BRDA:230,42,85,-
BRDA:230,43,86,-
BRDA:230,43,87,-
BRDA:230,44,88,-
BRDA:230,44,89,-
BRDA:230,45,90,-
BRDA:230,45,91,-
BRDA:230,46,92,-
BRDA:230,46,93,-
BRDA:230,47,94,-
BRDA:230,47,95,-
BRDA:230,48,96,-
BRDA:230,48,97,-
BRDA:230,49,98,-
BRDA:230,49,99,-
BRDA:230,50,100,-
BRDA:230,50,101,-
BRDA:230,51,102,-
BRDA:230,51,103,-
BRDA:230,52,104,-
BRDA:230,52,105,-
BRDA:230,53,106,-
BRDA:230,53,107,-
BRDA:230,54,108,-
BRDA:230,54,109,-
BRDA:230,55,110,-
BRDA:230,55,111,-
BRDA:230,56,112,-
BRDA:230,56,113,-
BRDA:230,57,114,-
BRDA:230,57,115,-
BRDA:230,58,116,-
BRDA:230,58,117,-
BRDA:230,59,118,-
BRDA:230,59,119,-
BRDA:230,60,120,-
BRDA:230,60,121,-
BRDA:230,61,122,-
BRDA:230,61,123,-
BRDA:230,62,124,-
BRDA:230,62,125,-
BRDA:230,63,126,-
BRDA:230,63,127,-
BRDA:230,64,128,-
BRDA:230,64,129,-
BRDA:230,65,130,-
BRDA:230,65,131,-
BRDA:230,66,132,-
BRDA:230,66,133,-
BRDA:230,67,134,-
BRDA:230,67,135,-
BRDA:230,68,136,-
BRDA:230,68,137,-
BRDA:230,69,138,-
BRDA:230,69,139,-
BRDA:230,70,140,-
BRDA:230,70,141,-
BRDA:230,71,142,-
BRDA:230,71,143,-
BRDA:230,72,144,-
BRDA:230,72,145,-
BRDA:230,73,146,-
BRDA:230,73,147,-
BRDA:230,74,148,-
BRDA:230,74,149,-
BRDA:230,75,150,-
BRDA:230,75,151,-
BRDA:230,76,152,-
BRDA:230,76,153,-
BRDA:230,77,154,-
BRDA:230,77,155,-
BRDA:230,78,156,-
BRDA:230,78,157,-
BRDA:230,79,158,-
BRDA:230,79,159,-
BRDA:230,80,160,-
BRDA:230,80,161,-
BRDA:230,81,162,-
BRDA:230,81,163,-
BRDA:230,82,164,-
BRDA:230,82,165,-
BRDA:230,83,166,-
BRDA:230,83,167,-
BRDA:230,84,168,-
BRDA:230,84,169,-
BRDA:230,85,170,-
BRDA:230,85,171,-
BRDA:230,86,172,-
BRDA:230,86,173,-
BRDA:230,87,174,-
BRDA:230,87,175,-
BRDA:230,88,176,-
BRDA:230,88,177,-
BRDA:230,89,178,-
BRDA:230,89,179,-
BRDA:230,90,180,-
BRDA:230,90,181,-
BRDA:230,91,182,-
BRDA:230,91,183,-
BRDA:230,92,184,-
BRDA:230,92,185,-
BRDA:230,93,186,-
BRDA:230,93,187,-
BRDA:230,94,188,-
BRDA:230,94,189,-
BRDA:230,95,190,-
BRDA:230,95,191,-
BRDA:230,96,192,-
BRDA:230,96,193,-
BRDA:230,97,194,-
BRDA:230,97,195,-
BRDA:230,98,196,-
BRDA:230,98,197,-
BRDA:230,99,198,-
BRDA:230,99,199,-
BRDA:230,100,200,-
BRDA:230,100,201,-
BRDA:230,101,202,-
BRDA:230,101,203,-
BRDA:230,102,204,-
BRDA:230,102,205,-
BRDA:230,103,206,-
BRDA:230,103,207,-
BRDA:230,104,208,-
BRDA:230,104,209,-
BRDA:230,105,210,-
BRDA:230,105,211,-
BRDA:230,106,212,-
BRDA:230,106,213,-
BRDA:230,107,214,-
BRDA:230,107,215,-
BRDA:230,108,216,-
BRDA:230,108,217,-
BRDA:230,109,218,-
BRDA:230,109,219,-
BRDA:230,110,220,-
BRDA:230,110,221,-
BRDA:230,111,222,-
BRDA:230,111,223,-
BRDA:230,112,224,-
BRDA:230,112,225,-
BRDA:230,113,226,-
BRDA:230,113,227,-
BRDA:230,114,228,-
BRDA:230,114,229,-
BRDA:230,115,230,-
BRDA:230,115,231,-
BRDA:230,116,232,-
BRDA:230,116,233,-
BRDA:230,117,234,-
BRDA:230,117,235,-
BRDA:230,118,236,-
BRDA:230,118,237,-
BRDA:230,119,238,-
BRDA:230,119,239,-
BRDA:230,120,240,-
BRDA:230,120,241,-
BRDA:230,121,242,-
BRDA:230,121,243,-
BRDA:230,122,244,-
BRDA:230,122,245,-
BRDA:230,123,246,-
BRDA:230,123,247,-
BRDA:230,124,248,-
BRDA:230,124,249,-
BRDA:230,125,250,-
BRDA:230,125,251,-
BRDA:230,126,252,-
BRDA:230,126,253,-
BRDA:230,127,254,-
BRDA:230,127,255,-
BRDA:230,128,256,-
BRDA:230,128,257,-
BRDA:230,129,258,-
BRDA:230,129,259,-
BRDA:230,130,260,-
BRDA:230,130,261,-
BRDA:230,131,262,-
BRDA:230,131,263,-
BRDA:230,132,264,-
BRDA:230,132,265,-
BRDA:230,133,266,-
BRDA:230,133,267,-
BRDA:230,134,268,-
BRDA:230,134,269,-
BRDA:230,135,270,-
BRDA:230,135,271,-
BRDA:230,136,272,-
BRDA:230,136,273,-
BRDA:230,137,274,-
BRDA:230,137,275,-
BRDA:230,138,276,-
BRDA:230,138,277,-
BRDA:230,139,278,-
BRDA:230,139,279,-
BRDA:230,140,280,-
BRDA:230,140,281,-
BRDA:230,141,282,-
BRDA:230,141,283,-
BRDA:230,142,284,-
BRDA:230,142,285,-
BRDA:230,143,286,-
BRDA:230,143,287,-
BRDA:230,144,288,-
BRDA:230,144,289,-
BRDA:230,145,290,-
BRDA:230,145,291,-
BRDA:230,146,292,-
BRDA:230,146,293,-
BRDA:230,147,294,-
BRDA:230,147,295,-
BRDA:230,148,296,-
BRDA:230,148,297,-
BRDA:230,149,298,-
BRDA:230,149,299,-
BRDA:230,150,300,-
BRDA:230,150,301,-
BRDA:230,151,302,-
BRDA:230,151,303,-
BRDA:230,152,304,-
BRDA:230,152,305,-
BRDA:230,153,306,-
BRDA:230,153,307,-
BRDA:230,154,308,-
BRDA:230,154,309,-
BRDA:230,155,310,-
BRDA:230,155,311,-
BRDA:230,156,312,-
BRDA:230,156,313,-
BRDA:230,157,314,-
BRDA:230,157,315,-
BRDA:230,158,316,-
BRDA:230,158,317,-
BRDA:230,159,318,-
BRDA:230,159,319,-
BRDA:230,160,320,-
BRDA:230,160,321,-
BRDA:230,161,322,-
BRDA:230,161,323,-
BRDA:230,162,324,-
BRDA:230,162,325,-
BRDA:230,163,326,-
BRDA:230,163,327,-
BRDA:230,164,328,-
BRDA:230,164,329,-
BRDA:230,165,330,-
BRDA:230,165,331,-
BRDA:230,166,332,-
BRDA:230,166,333,-
BRDA:230,167,334,-
BRDA:230,167,335,-
BRDA:230,168,336,-
BRDA:230,168,337,-
BRDA:230,169,338,-
BRDA:230,169,339,-
BRDA:230,170,340,-
BRDA:230,170,341,-
BRDA:230,171,342,-
BRDA:230,171,343,-
BRDA:230,172,344,-
BRDA:230,172,345,-
BRDA:230,173,346,-
BRDA:230,173,347,-
BRDA:230,174,348,-
BRDA:230,174,349,-
BRDA:230,175,350,-
BRDA:230,175,351,-
BRDA:230,176,352,-
BRDA:230,176,353,-
BRDA:230,177,354,-
BRDA:230,177,355,-
BRDA:230,178,356,-
BRDA:230,178,357,-
BRDA:230,179,358,-
BRDA:230,179,359,-
BRDA:230,180,360,-
BRDA:230,180,361,-
BRDA:230,181,362,-
BRDA:230,181,363,-
BRDA:230,182,364,-
BRDA:230,182,365,-
BRDA:230,183,366,-
BRDA:230,183,367,-
BRDA:230,184,368,-
BRDA:230,184,369,-
BRDA:230,185,370,-
BRDA:230,185,371,-
BRDA:230,186,372,-
BRDA:230,186,373,-
BRDA:230,187,374,-
BRDA:230,187,375,-
BRDA:230,188,376,-
BRDA:230,188,377,-
BRDA:230,189,378,-
BRDA:230,189,379,-
BRDA:230,190,380,-
BRDA:230,190,381,-
BRDA:230,191,382,-
BRDA:230,191,383,-
BRDA:230,192,384,-
BRDA:230,192,385,-
BRDA:230,193,386,-
BRDA:230,193,387,-
BRDA:230,194,388,-
BRDA:230,194,389,-
BRDA:230,195,390,-
BRDA:230,195,391,-
BRDA:230,196,392,-
BRDA:230,196,393,-
BRDA:230,197,394,-
BRDA:230,197,395,-
BRDA:230,198,396,-
BRDA:230,198,397,-
BRDA:230,199,398,-
BRDA:230,199,399,-
BRDA:230,200,400,-
BRDA:230,200,401,-
BRDA:230,201,402,-
BRDA:230,201,403,-
BRDA:230,202,404,-
BRDA:230,202,405,-
BRDA:230,203,406,-
BRDA:230,203,407,-
BRDA:230,204,408,-
BRDA:230,204,409,-
BRDA:230,205,410,-
BRDA:230,205,411,-
BRDA:230,206,412,-
BRDA:230,206,413,-
BRDA:230,207,414,-
BRDA:230,207,415,-
BRDA:230,208,416,-
BRDA:230,208,417,-
BRDA:230,209,418,-
BRDA:230,209,419,-
BRDA:230,210,420,-
BRDA:230,210,421,-
BRDA:230,211,422,-
BRDA:230,211,423,-
BRDA:230,212,424,-
BRDA:230,212,425,-
BRDA:230,213,426,-
BRDA:230,213,427,-
BRDA:230,214,428,-
BRDA:230,214,429,-
BRDA:230,215,430,-
BRDA:230,215,431,-
BRDA:230,216,432,-
BRDA:230,216,433,-
BRDA:230,217,434,-
BRDA:230,217,435,-
BRDA:230,218,436,-
BRDA:230,218,437,-
BRDA:230,219,438,-
BRDA:230,219,439,-
BRDA:230,220,440,-
BRDA:230,220,441,-
BRDA:230,221,442,-
BRDA:230,221,443,-
BRDA:230,222,444,-
BRDA:230,222,445,-
BRDA:230,223,446,-
BRDA:230,223,447,-
BRDA:230,224,448,-
BRDA:230,224,449,-
BRDA:230,225,450,-
BRDA:230,225,451,-
BRDA:230,226,452,-
BRDA:230,226,453,-
BRDA:230,227,454,-
BRDA:230,227,455,-
BRDA:230,228,456,-
BRDA:230,228,457,-
BRDA:230,229,458,-
BRDA:230,229,459,-
BRDA:230,230,460,-
BRDA:230,230,461,-
BRDA:230,231,462,-
BRDA:230,231,463,-
BRDA:230,232,464,-
BRDA:230,232,465,-
BRDA:230,233,466,-
BRDA:230,233,467,-
BRDA:230,234,468,-
BRDA:230,234,469,-
BRDA:230,235,470,-
BRDA:230,235,471,-
BRDA:230,236,472,-
BRDA:230,236,473,-
BRDA:230,237,474,-
BRDA:230,237,475,-
BRDA:230,238,476,-
BRDA:230,238,477,-
BRDA:230,239,478,-
BRDA:230,239,479,-
BRDA:230,240,480,-
BRDA:230,240,481,-
BRDA:230,241,482,-
BRDA:230,241,483,-
BRDA:230,242,484,-
BRDA:230,242,485,-
BRDA:230,243,486,-
BRDA:230,243,487,-
BRDA:230,244,488,-
BRDA:230,244,489,-
BRDA:230,245,490,-
BRDA:230,245,491,-
BRDA:230,246,492,-
BRDA:230,246,493,-
BRDA:230,247,494,-
BRDA:230,247,495,-
BRDA:230,248,496,-
BRDA:230,248,497,-
BRDA:230,249,498,-
BRDA:230,249,499,-
BRDA:230,250,500,-
BRDA:230,250,501,-
BRDA:230,251,502,-
BRDA:230,251,503,-
BRDA:230,252,504,-
BRDA:230,252,505,-
BRDA:230,253,506,-
BRDA:230,253,507,-
BRDA:230,254,508,-
BRDA:230,254,509,-
BRDA:230,255,510,-
BRDA:230,255,511,-
BRDA:230,256,512,-
BRDA:230,256,513,-
BRDA:230,257,514,-
BRDA:230,257,515,-
BRDA:230,258,516,-
BRDA:230,258,517,-
BRDA:230,259,518,-
BRDA:230,259,519,-
BRDA:230,260,520,-
BRDA:230,260,521,-
BRDA:230,261,522,-
BRDA:230,261,523,-
BRDA:230,262,524,-
BRDA:230,262,525,-
BRDA:230,263,526,-
BRDA:230,263,527,-
BRDA:230,264,528,-
BRDA:230,264,529,-
BRDA:230,265,530,-
BRDA:230,265,531,-
BRDA:230,266,532,-
BRDA:230,266,533,-
BRDA:230,267,534,-
BRDA:230,267,535,-
BRDA:230,268,536,-
BRDA:230,268,537,-
BRDA:230,269,538,-
BRDA:230,269,539,-
BRDA:230,270,540,-
BRDA:230,270,541,-
BRDA:230,271,542,-
BRDA:230,271,543,-
BRDA:230,272,544,-
BRDA:230,272,545,-
BRDA:230,273,546,-
BRDA:230,273,547,-
BRDA:230,274,548,-
BRDA:230,274,549,-
BRDA:230,275,550,-
BRDA:230,275,551,-
BRDA:230,276,552,-
BRDA:230,276,553,-
BRDA:230,277,554,-
BRDA:230,277,555,-
BRDA:230,278,556,-
BRDA:230,278,557,-
BRDA:230,279,558,-
BRDA:230,279,559,-
BRDA:230,280,560,-
BRDA:230,280,561,-
BRDA:230,281,562,-
BRDA:230,281,563,-
BRDA:230,282,564,-
BRDA:230,282,565,-
BRDA:230,283,566,-
BRDA:230,283,567,-
BRDA:230,284,568,-
BRDA:230,284,569,-
BRDA:230,285,570,-
BRDA:230,285,571,-
BRDA:230,286,572,-
BRDA:230,286,573,-
BRDA:230,287,574,-
BRDA:230,287,575,-
BRDA:230,288,576,-
BRDA:230,288,577,-
BRDA:230,289,578,-
BRDA:230,289,579,-
BRDA:230,290,580,-
BRDA:230,290,581,-
BRDA:230,291,582,-
BRDA:230,291,583,-
BRDA:230,292,584,-
BRDA:230,292,585,-
BRDA:230,293,586,-
BRDA:230,293,587,-
BRDA:230,294,588,-
BRDA:230,294,589,-
BRDA:230,295,590,-
BRDA:230,295,591,-
BRDA:230,296,592,-
BRDA:230,296,593,-
BRDA:230,297,594,-
BRDA:230,297,595,-
BRDA:230,298,596,-
BRDA:230,298,597,-
BRDA:230,299,598,-
BRDA:230,299,599,-
BRDA:230,300,600,-
BRDA:230,300,601,-
BRDA:230,301,602,-
BRDA:230,301,603,-
BRDA:230,302,604,-
BRDA:230,302,605,-
BRDA:230,303,606,-
BRDA:230,303,607,-
BRDA:230,304,608,-
BRDA:230,304,609,-
BRDA:230,305,610,-
BRDA:230,305,611,-
BRDA:230,306,612,-
BRDA:230,306,613,-
BRDA:230,307,614,-
BRDA:230,307,615,-
BRDA:230,308,616,-
BRDA:230,308,617,-
BRDA:230,309,618,-
BRDA:230,309,619,-
BRDA:230,310,620,-
BRDA:230,310,621,-
BRDA:230,311,622,-
BRDA:230,311,623,-
BRDA:230,312,624,-
BRDA:230,312,625,-
BRDA:230,313,626,-
BRDA:230,313,627,-
BRDA:230,314,628,-
BRDA:230,314,629,-
BRDA:230,315,630,-
BRDA:230,315,631,-
BRDA:230,316,632,-
BRDA:230,316,633,-
BRDA:230,317,634,-
BRDA:230,317,635,-
BRDA:230,318,636,-
BRDA:230,318,637,-
BRDA:230,319,638,-
BRDA:230,319,639,-
BRDA:230,320,640,-
BRDA:230,320,641,-
BRDA:230,321,642,-
BRDA:230,321,643,-
BRDA:230,322,644,-
BRDA:230,322,645,-
BRDA:230,323,646,-
BRDA:230,323,647,-
BRDA:230,324,648,-
BRDA:230,324,649,-
BRDA:230,325,650,-
BRDA:230,325,651,-
BRDA:230,326,652,-
BRDA:230,326,653,-
BRDA:230,327,654,-
BRDA:230,327,655,-
BRDA:230,328,656,-
BRDA:230,328,657,-
BRDA:230,329,658,-
BRDA:230,329,659,-
BRDA:230,330,660,-
BRDA:230,330,661,-
BRDA:230,331,662,-
BRDA:230,331,663,-
BRDA:230,332,664,-
BRDA:230,332,665,-
BRDA:230,333,666,-
BRDA:230,333,667,-
BRDA:230,334,668,-
BRDA:230,334,669,-
BRDA:230,335,670,-
BRDA:230,335,671,-
BRDA:230,336,672,-
BRDA:230,336,673,-
BRDA:230,337,674,-
BRDA:230,337,675,-
BRDA:230,338,676,-
BRDA:230,338,677,-
BRDA:230,339,678,-
BRDA:230,339,679,-
BRDA:230,340,680,-
BRDA:230,340,681,-
BRDA:230,341,682,-
BRDA:230,341,683,-
BRDA:230,342,684,-
BRDA:230,342,685,-
BRDA:230,343,686,-
BRDA:230,343,687,-
BRDA:230,344,688,-
BRDA:230,344,689,-
BRDA:230,345,690,-
BRDA:230,345,691,-
BRDA:230,346,692,-
BRDA:230,346,693,-
BRDA:230,347,694,-
BRDA:230,347,695,-
BRDA:230,348,696,-
BRDA:230,348,697,-
BRDA:230,349,698,-
BRDA:230,349,699,-
BRDA:230,350,700,-
BRDA:230,350,701,-
BRDA:230,351,702,-
BRDA:230,351,703,-
BRDA:230,352,704,-
BRDA:230,352,705,-
BRDA:230,353,706,-
BRDA:230,353,707,-
BRDA:230,354,708,-
BRDA:230,354,709,-
BRDA:230,355,710,-
BRDA:230,355,711,-
BRDA:230,356,712,-
BRDA:230,356,713,-
BRDA:230,357,714,-
BRDA:230,357,715,-
BRDA:230,358,716,-
BRDA:230,358,717,-
BRDA:230,359,718,-
BRDA:230,359,719,-
BRDA:230,360,720,-
BRDA:230,360,721,-
BRDA:230,361,722,-
BRDA:230,361,723,-
BRDA:230,362,724,-
BRDA:230,362,725,-
BRDA:230,363,726,-
BRDA:230,363,727,-
BRDA:230,364,728,-
BRDA:230,364,729,-
BRDA:230,365,730,-
BRDA:230,365,731,-
BRDA:230,366,732,-
BRDA:230,366,733,-
BRDA:230,367,734,-
BRDA:230,367,735,-
BRDA:230,368,736,-
BRDA:230,368,737,-
BRDA:230,369,738,-
BRDA:230,369,739,-
BRDA:230,370,740,-
BRDA:230,370,741,-
BRDA:230,371,742,-
BRDA:230,371,743,-
BRDA:230,372,744,-
BRDA:230,372,745,-
BRDA:230,373,746,-
BRDA:230,373,747,-
BRDA:230,374,748,-
BRDA:230,374,749,-
BRDA:230,375,750,-
BRDA:230,375,751,-
BRDA:230,376,752,-
BRDA:230,376,753,-
BRDA:230,377,754,-
BRDA:230,377,755,-
BRDA:230,378,756,-
BRDA:230,378,757,-
BRDA:230,379,758,-
BRDA:230,379,759,-
BRDA:230,380,760,-
BRDA:230,380,761,-
BRDA:230,381,762,-
BRDA:230,381,763,-
BRDA:230,382,764,-
BRDA:230,382,765,-
BRDA:230,383,766,-
BRDA:230,383,767,-
BRDA:230,384,768,-
BRDA:230,384,769,-
BRDA:230,385,770,-
BRDA:230,385,771,-
BRDA:230,386,772,-
BRDA:230,386,773,-
BRDA:230,387,774,-
BRDA:230,387,775,-
BRDA:230,388,776,-
BRDA:230,388,777,-
BRDA:230,389,778,-
BRDA:230,389,779,-
BRDA:230,390,780,-
BRDA:230,390,781,-
BRDA:230,391,782,-
BRDA:230,391,783,-
BRDA:230,392,784,-
BRDA:230,392,785,-
BRDA:230,393,786,-
BRDA:230,393,787,-
BRDA:230,394,788,-
BRDA:230,394,789,-
BRDA:230,395,790,-
BRDA:230,395,791,-
BRDA:230,396,792,-
BRDA:230,396,793,-
BRDA:230,397,794,-
BRDA:230,397,795,-
BRDA:230,398,796,-
BRDA:230,398,797,-
BRDA:230,399,798,-
BRDA:230,399,799,-
BRDA:230,400,800,-
BRDA:230,400,801,-
BRDA:230,401,802,-
BRDA:230,401,803,-
BRDA:230,402,804,-
BRDA:230,402,805,-
BRDA:230,403,806,-
BRDA:230,403,807,-
BRDA:230,404,808,-
BRDA:230,404,809,-
BRDA:230,405,810,-
BRDA:230,405,811,-
BRDA:230,406,812,-
BRDA:230,406,813,-
BRDA:230,407,814,-
BRDA:230,407,815,-
BRDA:230,408,816,-
BRDA:230,408,817,-
BRDA:230,409,818,-
BRDA:230,409,819,-
BRDA:230,410,820,-
BRDA:230,410,821,-
BRDA:230,411,822,-
BRDA:230,411,823,-
BRDA:230,412,824,-
BRDA:230,412,825,-
BRDA:230,413,826,-
BRDA:230,413,827,-
BRDA:230,414,828,-
BRDA:230,414,829,-
BRDA:230,415,830,-
BRDA:230,415,831,-
BRDA:230,416,832,-
BRDA:230,416,833,-
BRDA:230,417,834,-
BRDA:230,417,835,-
BRDA:230,418,836,-
BRDA:230,418,837,-
BRDA:230,419,838,-
BRDA:230,419,839,-
BRDA:230,420,840,-
BRDA:230,420,841,-
BRDA:230,421,842,-
BRDA:230,421,843,-
BRDA:230,422,844,-
BRDA:230,422,845,-
BRDA:230,423,846,-
BRDA:230,423,847,-
BRDA:230,424,848,-
BRDA:230,424,849,-
BRDA:230,425,850,-
BRDA:230,425,851,-
BRDA:230,426,852,-
BRDA:230,426,853,-
BRDA:230,427,854,-
BRDA:230,427,855,-
BRDA:230,428,856,-
BRDA:230,428,857,-
BRDA:230,429,858,-
BRDA:230,429,859,-
BRDA:230,430,860,-
BRDA:230,430,861,-
BRDA:230,431,862,-
BRDA:230,431,863,-
BRDA:230,432,864,-
BRDA:230,432,865,-
BRDA:230,433,866,-
BRDA:230,433,867,-
BRDA:230,434,868,-
BRDA:230,434,869,-
BRDA:230,435,870,-
BRDA:230,435,871,-
BRDA:230,436,872,-
BRDA:230,436,873,-
BRDA:230,437,874,-
BRDA:230,437,875,-
BRDA:230,438,876,-
BRDA:230,438,877,-
BRDA:230,439,878,-
BRDA:230,439,879,-
BRDA:230,440,880,-
BRDA:230,440,881,-
BRDA:230,441,882,-
BRDA:230,441,883,-
BRDA:230,442,884,-
BRDA:230,442,885,-
BRDA:230,443,886,-
BRDA:230,443,887,-
BRDA:230,444,888,-
BRDA:230,444,889,-
BRDA:230,445,890,-
BRDA:230,445,891,-
BRDA:230,446,892,-
BRDA:230,446,893,-
BRDA:230,447,894,-
BRDA:230,447,895,-
BRDA:230,448,896,-
BRDA:230,448,897,-
BRDA:230,449,898,-
BRDA:230,449,899,-
BRDA:230,450,900,-
BRDA:230,450,901,-
BRDA:230,451,902,-
BRDA:230,451,903,-
BRDA:230,452,904,-
BRDA:230,452,905,-
BRDA:230,453,906,-
BRDA:230,453,907,-
BRDA:230,454,908,-
BRDA:230,454,909,-
BRDA:230,455,910,-
BRDA:230,455,911,-
BRDA:230,456,912,-
BRDA:230,456,913,-
BRDA:230,457,914,-
BRDA:230,457,915,-
BRDA:230,458,916,-
BRDA:230,458,917,-
BRDA:230,459,918,-
BRDA:230,459,919,-
BRDA:230,460,920,-
BRDA:230,460,921,-
BRDA:230,461,922,-
BRDA:230,461,923,-
BRDA:230,462,924,-
BRDA:230,462,925,-
BRDA:230,463,926,-
BRDA:230,463,927,-
BRDA:230,464,928,-
BRDA:230,464,929,-
BRDA:230,465,930,-
BRDA:230,465,931,-
BRDA:230,466,932,-
BRDA:230,466,933,-
BRDA:230,467,934,-
BRDA:230,467,935,-
BRDA:230,468,936,-
BRDA:230,468,937,-
BRDA:230,469,938,-
BRDA:230,469,939,-
BRDA:230,470,940,-
BRDA:230,470,941,-
BRDA:230,471,942,-
BRDA:230,471,943,-
BRDA:230,472,944,-
BRDA:230,472,945,-
BRDA:230,473,946,-
BRDA:230,473,947,-
BRDA:230,474,948,-
BRDA:230,474,949,-
BRDA:230,475,950,-
BRDA:230,475,951,-
BRDA:230,476,952,-
BRDA:230,476,953,-
BRDA:230,477,954,-
BRDA:230,477,955,-
BRDA:230,478,956,-
BRDA:230,478,957,-
BRDA:230,479,958,-
BRDA:230,479,959,-
BRDA:230,480,960,-
BRDA:230,480,961,-
BRDA:230,481,962,-
BRDA:230,481,963,-
BRDA:230,482,964,-
BRDA:230,482,965,-
BRDA:230,483,966,-
BRDA:230,483,967,-
BRDA:230,484,968,-
BRDA:230,484,969,-
BRDA:230,485,970,-
BRDA:230,485,971,-
BRDA:230,486,972,-
BRDA:230,486,973,-
BRDA:230,487,974,-
BRDA:230,487,975,-
BRDA:230,488,976,-
BRDA:230,488,977,-
BRDA:230,489,978,-
BRDA:230,489,979,-
BRDA:230,490,980,-
BRDA:230,490,981,-
BRDA:230,491,982,-
BRDA:230,491,983,-
BRDA:230,492,984,-
BRDA:230,492,985,-
BRDA:230,493,986,-
BRDA:230,493,987,-
BRDA:230,494,988,-
BRDA:230,494,989,-
BRDA:230,495,990,-
BRDA:230,495,991,-
BRDA:230,496,992,-
BRDA:230,496,993,-
BRDA:230,497,994,-
BRDA:230,497,995,-
BRDA:230,498,996,-
BRDA:230,498,997,-
BRDA:230,499,998,-
BRDA:230,499,999,-
BRDA:230,500,1000,-
BRDA:230,500,1001,-
BRDA:230,501,1002,-
BRDA:230,501,1003,-
BRDA:230,502,1004,-
BRDA:230,502,1005,-
BRDA:230,503,1006,-
BRDA:230,503,1007,-
BRDA:230,504,1008,-
BRDA:230,504,1009,-
BRDA:230,505,1010,-
BRDA:230,505,1011,-
BRDA:230,506,1012,-
BRDA:230,506,1013,-
BRDA:230,507,1014,-
BRDA:230,507,1015,-
BRDA:230,508,1016,-
BRDA:230,508,1017,-
BRDA:230,509,1018,-
BRDA:230,509,1019,-
BRDA:230,510,1020,-
BRDA:230,510,1021,-
BRDA:230,511,1022,-
BRDA:230,511,1023,-
BRDA:230,512,1024,-
BRDA:230,512,1025,-
BRDA:230,513,1026,-
BRDA:230,513,1027,-
BRDA:230,514,1028,-
BRDA:230,514,1029,-
BRDA:230,515,1030,-
BRDA:230,515,1031,-
BRDA:230,516,1032,-
BRDA:230,516,1033,-
BRDA:230,517,1034,-
BRDA:230,517,1035,-
BRDA:230,518,1036,-
BRDA:230,518,1037,-
BRDA:230,519,1038,-
BRDA:230,519,1039,-
BRDA:230,520,1040,-
BRDA:230,520,1041,-
BRDA:230,521,1042,-
BRDA:230,521,1043,-
BRDA:230,522,1044,-
BRDA:230,522,1045,-
BRDA:230,523,1046,-
BRDA:230,523,1047,-
BRDA:230,524,1048,-
BRDA:230,524,1049,-
BRDA:230,525,1050,-
BRDA:230,525,1051,-
BRDA:230,526,1052,-
BRDA:230,526,1053,-
BRDA:230,527,1054,-
BRDA:230,527,1055,-
BRDA:230,528,1056,-
BRDA:230,528,1057,-
BRDA:230,529,1058,-
BRDA:230,529,1059,-
BRDA:230,530,1060,-
BRDA:230,530,1061,-
BRDA:230,531,1062,-
BRDA:230,531,1063,-
BRDA:230,532,1064,-
BRDA:230,532,1065,-
BRDA:230,533,1066,-
BRDA:230,533,1067,-
BRDA:230,534,1068,-
BRDA:230,534,1069,-
BRDA:230,535,1070,-
BRDA:230,535,1071,-
BRDA:230,536,1072,-
BRDA:230,536,1073,-
BRDA:230,537,1074,-
BRDA:230,537,1075,-
BRDA:230,538,1076,-
BRDA:230,538,1077,-
BRDA:230,539,1078,-
BRDA:230,539,1079,-
BRDA:230,540,1080,-
BRDA:230,540,1081,-
BRDA:230,541,1082,-
BRDA:230,541,1083,-
BRDA:230,542,1084,-
BRDA:230,542,1085,-
BRDA:230,543,1086,-
BRDA:230,543,1087,-
BRDA:230,544,1088,-
BRDA:230,544,1089,-
BRDA:230,545,1090,-
BRDA:230,545,1091,-
BRDA:230,546,1092,-
BRDA:230,546,1093,-
BRDA:230,547,1094,-
BRDA:230,547,1095,-
BRDA:230,548,1096,-
BRDA:230,548,1097,-
BRDA:230,549,1098,-
BRDA:230,549,1099,-
BRDA:230,550,1100,-
BRDA:230,550,1101,-
BRDA:230,551,1102,-
BRDA:230,551,1103,-
BRDA:230,552,1104,-
BRDA:230,552,1105,-
BRDA:230,553,1106,-
BRDA:230,553,1107,-
BRDA:230,554,1108,-
BRDA:230,554,1109,-
BRDA:230,555,1110,-
BRDA:230,555,1111,-
BRDA:230,556,1112,-
BRDA:230,556,1113,-
BRDA:230,557,1114,-
BRDA:230,557,1115,-
BRDA:230,558,1116,-
BRDA:230,558,1117,-
BRDA:230,559,1118,-
BRDA:230,559,1119,-
BRDA:230,560,1120,-
BRDA:230,560,1121,-
BRDA:230,561,1122,-
BRDA:230,561,1123,-
BRDA:230,562,1124,-
BRDA:230,562,1125,-
BRDA:230,563,1126,-
BRDA:230,563,1127,-
BRDA:230,564,1128,-
BRDA:230,564,1129,-
BRDA:230,565,1130,-
BRDA:230,565,1131,-
BRDA:230,566,1132,-
BRDA:230,566,1133,-
BRDA:230,567,1134,-
BRDA:230,567,1135,-
BRDA:230,568,1136,-
BRDA:230,568,1137,-
BRDA:230,569,1138,-
BRDA:230,569,1139,-
BRDA:230,570,1140,-
BRDA:230,570,1141,-
BRDA:230,571,1142,-
BRDA:230,571,1143,-
BRDA:230,572,1144,-
BRDA:230,572,1145,-
BRDA:230,573,1146,-
BRDA:230,573,1147,-
BRDA:230,574,1148,-
BRDA:230,574,1149,-
BRDA:230,575,1150,-
BRDA:230,575,1151,-
BRDA:230,576,1152,-
BRDA:230,576,1153,-
BRDA:230,577,1154,-
BRDA:230,577,1155,-
BRDA:230,578,1156,-
BRDA:230,578,1157,-
BRDA:230,579,1158,-
BRDA:230,579,1159,-
BRDA:230,580,1160,-
BRDA:230,580,1161,-
BRDA:230,581,1162,-
BRDA:230,581,1163,-
BRDA:230,582,1164,-
BRDA:230,582,1165,-
BRDA:230,583,1166,-
BRDA:230,583,1167,-
BRDA:230,584,1168,-
BRDA:230,584,1169,-
BRDA:230,585,1170,-
BRDA:230,585,1171,-
BRDA:230,586,1172,-
BRDA:230,586,1173,-
BRDA:230,587,1174,-
BRDA:230,587,1175,-
BRDA:230,588,1176,-
BRDA:230,588,1177,-
BRDA:230,589,1178,-
BRDA:230,589,1179,-
BRDA:230,590,1180,-
BRDA:230,590,1181,-
BRDA:230,591,1182,-
BRDA:230,591,1183,-
BRDA:230,592,1184,-
BRDA:230,592,1185,-
BRDA:230,593,1186,-
BRDA:230,593,1187,-
BRDA:230,594,1188,-
BRDA:230,594,1189,-
BRDA:230,595,1190,-
BRDA:230,595,1191,-
BRDA:230,596,1192,-
BRDA:230,596,1193,-
BRDA:230,597,1194,-
BRDA:230,597,1195,-
BRDA:230,598,1196,-
BRDA:230,598,1197,-
BRDA:230,599,1198,-
BRDA:230,599,1199,-
BRDA:230,600,1200,-
BRDA:230,600,1201,-
BRDA:230,601,1202,-
BRDA:230,601,1203,-
BRDA:230,602,1204,-
BRDA:230,602,1205,-
BRDA:230,603,1206,-
BRDA:230,603,1207,-
BRDA:230,604,1208,-
BRDA:230,604,1209,-
BRDA:230,605,1210,-
BRDA:230,605,1211,-
BRDA:230,606,1212,-
BRDA:230,606,1213,-
BRDA:230,607,1214,-
BRDA:230,607,1215,-
BRDA:230,608,1216,-
BRDA:230,608,1217,-
BRDA:230,609,1218,-
BRDA:230,609,1219,-
BRDA:230,610,1220,-
BRDA:230,610,1221,-
BRDA:230,611,1222,-
BRDA:230,611,1223,-
BRDA:230,612,1224,-
BRDA:230,612,1225,-
BRDA:230,613,1226,-
BRDA:230,613,1227,-
BRDA:230,614,1228,-
BRDA:230,614,1229,-
BRDA:230,615,1230,-
BRDA:230,615,1231,-
BRDA:230,616,1232,-
BRDA:230,616,1233,-
BRDA:230,617,1234,-
BRDA:230,617,1235,-
BRDA:230,618,1236,-
BRDA:230,618,1237,-
BRDA:230,619,1238,-
BRDA:230,619,1239,-
BRDA:230,620,1240,-
BRDA:230,620,1241,-
BRDA:230,621,1242,-
BRDA:230,621,1243,-
BRDA:230,622,1244,-
BRDA:230,622,1245,-
BRDA:230,623,1246,-
BRDA:230,623,1247,-
BRDA:230,624,1248,-
BRDA:230,624,1249,-
BRDA:230,625,1250,-
BRDA:230,625,1251,-
BRDA:230,626,1252,-
BRDA:230,626,1253,-
BRDA:230,627,1254,-
BRDA:230,627,1255,-
BRDA:230,628,1256,-
BRDA:230,628,1257,-
BRDA:230,629,1258,-
BRDA:230,629,1259,-
BRDA:230,630,1260,-
BRDA:230,630,1261,-
BRDA:230,631,1262,-
BRDA:230,631,1263,-
BRDA:230,632,1264,-
BRDA:230,632,1265,-
BRDA:230,633,1266,-
BRDA:230,633,1267,-
BRDA:230,634,1268,-
BRDA:230,634,1269,-
BRDA:230,635,1270,-
BRDA:230,635,1271,-
BRDA:230,636,1272,-
BRDA:230,636,1273,-
BRDA:230,637,1274,-
BRDA:230,637,1275,-
BRDA:230,638,1276,-
BRDA:230,638,1277,-
BRDA:230,639,1278,-
BRDA:230,639,1279,-
BRDA:230,640,1280,-
BRDA:230,640,1281,-
BRDA:230,641,1282,-
BRDA:230,641,1283,-
BRDA:230,642,1284,-
BRDA:230,642,1285,-
BRDA:230,643,1286,-
BRDA:230,643,1287,-
BRDA:230,644,1288,-
BRDA:230,644,1289,-
BRDA:230,645,1290,-
BRDA:230,645,1291,-
BRDA:230,646,1292,-
BRDA:230,646,1293,-
BRDA:230,647,1294,-
BRDA:230,647,1295,-
BRDA:230,648,1296,-
BRDA:230,648,1297,-
BRDA:230,649,1298,-
BRDA:230,649,1299,-
BRDA:230,650,1300,-
BRDA:230,650,1301,-
BRDA:230,651,1302,-
BRDA:230,651,1303,-
BRDA:230,652,1304,-
BRDA:230,652,1305,-
BRDA:230,653,1306,-
BRDA:230,653,1307,-
BRDA:230,654,1308,-
BRDA:230,654,1309,-
BRDA:230,655,1310,-
BRDA:230,655,1311,-
BRDA:230,656,1312,-
BRDA:230,656,1313,-
BRDA:230,657,1314,-
BRDA:230,657,1315,-
BRDA:230,658,1316,-
BRDA:230,658,1317,-
BRDA:230,659,1318,-
BRDA:230,659,1319,-
BRDA:230,660,1320,-
BRDA:230,660,1321,-
BRDA:230,661,1322,-
BRDA:230,661,1323,-
BRDA:230,662,1324,-
BRDA:230,662,1325,-
BRDA:230,663,1326,-
BRDA:230,663,1327,-
BRDA:230,664,1328,-
BRDA:230,664,1329,-
BRDA:230,665,1330,-
BRDA:230,665,1331,-
BRDA:230,666,1332,-
BRDA:230,666,1333,-
BRDA:230,667,1334,-
BRDA:230,667,1335,-
BRDA:230,668,1336,-
BRDA:230,668,1337,-
BRDA:230,669,1338,-
BRDA:230,669,1339,-
BRDA:230,670,1340,-
BRDA:230,670,1341,-
BRDA:230,671,1342,-
BRDA:230,671,1343,-
BRDA:230,672,1344,-
BRDA:230,672,1345,-
BRDA:230,673,1346,-
BRDA:230,673,1347,-
BRDA:230,674,1348,-
BRDA:230,674,1349,-
BRDA:230,675,1350,-
BRDA:230,675,1351,-
BRDA:230,676,1352,-
BRDA:230,676,1353,-
BRDA:230,677,1354,-
BRDA:230,677,1355,-
BRDA:230,678,1356,-
BRDA:230,678,1357,-
BRDA:230,679,1358,-
BRDA:230,679,1359,-
BRDA:233,0,0,-
BRDA:233,0,1,-
BRDA:233,1,2,-
BRDA:233,1,3,-
BRDA:268,0,0,48
BRDA:268,0,1,126826
BRDA:268,1,2,24
BRDA:268,1,3,64880
BRDA:268,2,4,30
BRDA:268,2,5,47802
BRDA:268,3,6,30
BRDA:268,3,7,443772
BRDA:268,4,8,42
BRDA:268,4,9,26974
BRDA:268,5,10,34
BRDA:268,5,11,53284
BRDA:268,6,12,30
BRDA:268,6,13,24940
BRDA:268,7,14,42
BRDA:268,7,15,16556
BRDA:268,8,16,24
BRDA:268,8,17,30560
BRDA:268,9,18,36
BRDA:268,9,19,15010
BRDA:268,10,20,42
BRDA:268,10,21,25190
BRDA:268,11,22,42
BRDA:268,11,23,17342
BRDA:268,12,24,18
BRDA:268,12,25,722953
BRDA:268,13,26,18
BRDA:268,13,27,402696
BRDA:268,14,28,24
BRDA:268,14,29,271300
BRDA:268,15,30,24
BRDA:268,15,31,87278
BRDA:268,16,32,24
BRDA:268,16,33,36970
BRDA:268,17,34,420946
BRDA:268,17,35,0
BRDA:268,18,36,24
BRDA:268,18,37,8208
BRDA:268,19,38,30
BRDA:268,19,39,3790
BRDA:268,20,40,24
BRDA:268,20,41,7706
BRDA:268,21,42,30
BRDA:268,21,43,41031
BRDA:268,22,44,30
BRDA:268,22,45,48494
BRDA:268,23,46,30
BRDA:268,23,47,21224
BRDA:268,24,48,30
BRDA:268,24,49,66200
BRDA:268,25,50,30
BRDA:268,25,51,30702
BRDA:268,26,52,52
BRDA:268,26,53,2238494
BRDA:268,27,54,30
BRDA:268,27,55,44982
BRDA:268,28,56,30
BRDA:268,28,57,37344
BRDA:268,29,58,30
BRDA:268,29,59,37931
BRDA:268,30,60,30
BRDA:268,30,61,31802
BRDA:268,31,62,30
BRDA:268,31,63,30132
BRDA:268,32,64,30
BRDA:268,32,65,291940
BRDA:268,33,66,30
BRDA:268,33,67,42064
BRDA:268,34,68,30
BRDA:268,34,69,28704
BRDA:268,35,70,34
BRDA:268,35,71,34368
BRDA:268,36,72,30
BRDA:268,36,73,24942
BRDA:268,37,74,30
BRDA:268,37,75,93258
BRDA:268,38,76,30
BRDA:268,38,77,301104
BRDA:268,39,78,24
BRDA:268,39,79,5878347
BRDA:268,40,80,30
BRDA:268,40,81,1256469
BRDA:268,41,82,24
BRDA:268,41,83,617159
BRDA:268,42,84,526000
BRDA:268,42,85,0
BRDA:268,43,86,476
BRDA:268,43,87,0
BRDA:268,44,88,476
BRDA:268,44,89,0
BRDA:268,45,90,476
BRDA:268,45,91,0
BRDA:268,46,92,476
BRDA:268,46,93,0
BRDA:268,47,94,476
BRDA:268,47,95,0
BRDA:268,48,96,476
BRDA:268,48,97,0
BRDA:268,49,98,476
BRDA:268,49,99,0
BRDA:268,50,100,2364
BRDA:268,50,101,21719
BRDA:268,51,102,884
BRDA:268,51,103,875040
BRDA:268,52,104,750
BRDA:268,52,105,82364
BRDA:268,53,106,476
BRDA:268,53,107,0
BRDA:268,54,108,491
BRDA:268,54,109,100964
BRDA:268,55,110,2245
BRDA:268,55,111,24836
BRDA:268,56,112,476
BRDA:268,56,113,0
BRDA:268,57,114,476
BRDA:268,57,115,0
BRDA:268,58,116,488
BRDA:268,58,117,0
BRDA:268,59,118,541
BRDA:268,59,119,3063992
BRDA:268,60,120,476
BRDA:268,60,121,0
BRDA:268,61,122,25416
BRDA:268,61,123,0
BRDA:268,62,124,1962
BRDA:268,62,125,0
BRDA:268,63,126,136
BRDA:268,63,127,6649
BRDA:268,64,128,24
BRDA:268,64,129,2222
BRDA:268,65,130,24
BRDA:268,65,131,2652
BRDA:268,66,132,24
BRDA:268,66,133,6708
BRDA:268,67,134,22
BRDA:268,67,135,4164
BRDA:268,68,136,24
BRDA:268,68,137,3578
BRDA:268,69,138,18
BRDA:268,69,139,2334
BRDA:268,70,140,18
BRDA:268,70,141,2340
BRDA:268,71,142,279
BRDA:268,71,143,9107
BRDA:268,72,144,170
BRDA:268,72,145,8055
BRDA:268,73,146,150
BRDA:268,73,147,4459
BRDA:268,74,148,24
BRDA:268,74,149,5836
BRDA:268,75,150,154
BRDA:268,75,151,613
BRDA:268,76,152,476
BRDA:268,76,153,0
BRDA:268,77,154,476
BRDA:268,77,155,0
BRDA:268,78,156,476
BRDA:268,78,157,0
BRDA:268,79,158,476
BRDA:268,79,159,0
BRDA:268,80,160,476
BRDA:268,80,161,0
BRDA:268,81,162,476
BRDA:268,81,163,0
BRDA:268,82,164,476
BRDA:268,82,165,0
BRDA:268,83,166,482
BRDA:268,83,167,0
BRDA:268,84,168,12
BRDA:268,84,169,269585
BRDA:268,85,170,24
BRDA:268,85,171,70306
BRDA:268,86,172,18
BRDA:268,86,173,78242
BRDA:268,87,174,97
BRDA:268,87,175,3468550
BRDA:268,88,176,95
BRDA:268,88,177,18596
BRDA:268,89,178,95
BRDA:268,89,179,8244
BRDA:268,90,180,474
BRDA:268,90,181,2814
BRDA:268,91,182,2826
BRDA:268,91,183,12729
BRDA:268,92,184,6
BRDA:268,92,185,56896
BRDA:268,93,186,36
BRDA:268,93,187,7825
BRDA:268,94,188,6
BRDA:268,94,189,23610
BRDA:268,95,190,18
BRDA:268,95,191,1616
BRDA:268,96,192,6
BRDA:268,96,193,24900
BRDA:268,97,194,24
BRDA:268,97,195,1822683
BRDA:268,98,196,6
BRDA:268,98,197,107551
BRDA:268,99,198,162
BRDA:268,99,199,121132
BRDA:268,100,200,6
BRDA:268,100,201,21244
BRDA:268,101,202,138
BRDA:268,101,203,23130
BRDA:268,102,204,6
BRDA:268,102,205,13406
BRDA:268,103,206,576
BRDA:268,103,207,470404
BRDA:268,104,208,162
BRDA:268,104,209,12720
BRDA:268,105,210,80
BRDA:268,105,211,58573
BRDA:268,106,212,24
BRDA:268,106,213,37166
BRDA:268,107,214,1406674
BRDA:268,107,215,0
BRDA:268,108,216,372
BRDA:268,108,217,15690783
BRDA:268,109,218,36
BRDA:268,109,219,236914
BRDA:268,110,220,18
BRDA:268,110,221,3127745
BRDA:268,111,222,18
BRDA:268,111,223,46598
BRDA:268,112,224,24
BRDA:268,112,225,4014
BRDA:268,113,226,18
BRDA:268,113,227,155007
BRDA:268,114,228,18
BRDA:268,114,229,3514
BRDA:268,115,230,18
BRDA:268,115,231,2000
BRDA:268,116,232,18
BRDA:268,116,233,2274
BRDA:268,117,234,30
BRDA:268,117,235,34094
BRDA:268,118,236,24
BRDA:268,118,237,2524
BRDA:268,119,238,34
BRDA:268,119,239,2941140
BRDA:268,120,240,18
BRDA:268,120,241,394197
BRDA:268,121,242,18
BRDA:268,121,243,6512
BRDA:268,122,244,18
BRDA:268,122,245,6152
BRDA:268,123,246,24
BRDA:268,123,247,825115
BRDA:268,124,248,24
BRDA:268,124,249,5107078
BRDA:268,125,250,18
BRDA:268,125,251,128355
BRDA:268,126,252,18
BRDA:268,126,253,51782
BRDA:268,127,254,30
BRDA:268,127,255,119370
BRDA:268,128,256,6
BRDA:268,128,257,16590
BRDA:268,129,258,16
BRDA:268,129,259,16581249
BRDA:268,130,260,14
BRDA:268,130,261,23873828
BRDA:268,131,262,682
BRDA:268,131,263,1890161
BRDA:268,132,264,820
BRDA:268,132,265,9079194
BRDA:268,133,266,940
BRDA:268,133,267,1305
BRDA:268,134,268,634
BRDA:268,134,269,1156630
BRDA:268,135,270,3726
BRDA:268,135,271,76200903
BRDA:268,136,272,150
BRDA:268,136,273,10043255
BRDA:268,137,274,36
BRDA:268,137,275,1327019
BRDA:268,138,276,172
BRDA:268,138,277,3331
BRDA:268,139,278,30
BRDA:268,139,279,58177
BRDA:268,140,280,30
BRDA:268,140,281,111166
BRDA:268,141,282,30
BRDA:268,141,283,46622
BRDA:268,142,284,34
BRDA:268,142,285,47306
BRDA:268,143,286,30
BRDA:268,143,287,40376
BRDA:268,144,288,30
BRDA:268,144,289,34692
BRDA:268,145,290,30
BRDA:268,145,291,28814
BRDA:268,146,292,30
BRDA:268,146,293,40466
BRDA:268,147,294,30
BRDA:268,147,295,38777
BRDA:268,148,296,30
BRDA:268,148,297,29026
BRDA:268,149,298,2658
BRDA:268,149,299,6928496
BRDA:268,150,300,782
BRDA:268,150,301,8195
BRDA:268,151,302,18
BRDA:268,151,303,69778
BRDA:268,152,304,6
BRDA:268,152,305,14918
BRDA:268,153,306,6
BRDA:268,153,307,147095
BRDA:268,154,308,6
BRDA:268,154,309,133373
BRDA:268,155,310,6
BRDA:268,155,311,13776
BRDA:268,156,312,6
BRDA:268,156,313,15240
BRDA:268,157,314,238
BRDA:268,157,315,414
BRDA:268,158,316,238
BRDA:268,158,317,1526
BRDA:268,159,318,406
BRDA:268,159,319,520
BRDA:268,160,320,664
BRDA:268,160,321,2858
BRDA:268,161,322,674
BRDA:268,161,323,12754
BRDA:268,162,324,128
BRDA:268,162,325,4526309
BRDA:268,163,326,690
BRDA:268,163,327,11968336
BRDA:268,164,328,766
BRDA:268,164,329,8580212
BRDA:268,165,330,630
BRDA:268,165,331,154918
BRDA:268,166,332,45
BRDA:268,166,333,1014922
BRDA:268,167,334,288763
BRDA:268,167,335,4401672
BRDA:268,168,336,556
BRDA:268,168,337,5331580
BRDA:268,169,338,62
BRDA:268,169,339,5498348
BRDA:280,0,0,6
BRDA:280,0,1,14918
BRDA:280,1,2,42
BRDA:280,1,3,25190
BRDA:280,2,4,48
BRDA:280,2,5,126826
BRDA:280,3,6,24
BRDA:280,3,7,64880
BRDA:280,4,8,30
BRDA:280,4,9,47802
BRDA:280,5,10,30
BRDA:280,5,11,443772
BRDA:280,6,12,42
BRDA:280,6,13,26974
BRDA:280,7,14,34
BRDA:280,7,15,53284
BRDA:280,8,16,30
BRDA:280,8,17,24940
BRDA:280,9,18,42
BRDA:280,9,19,16556
BRDA:280,10,20,24
BRDA:280,10,21,30560
BRDA:280,11,22,36
BRDA:280,11,23,15010
BRDA:280,12,24,30
BRDA:280,12,25,291940
BRDA:280,13,26,42
BRDA:280,13,27,17342
BRDA:280,14,28,18
BRDA:280,14,29,722953
BRDA:280,15,30,18
BRDA:280,15,31,402696
BRDA:280,16,32,24
BRDA:280,16,33,271300
BRDA:280,17,34,24
BRDA:280,17,35,87278
BRDA:280,18,36,24
BRDA:280,18,37,36970
BRDA:280,19,38,24
BRDA:280,19,39,8208
BRDA:280,20,40,30
BRDA:280,20,41,3790
BRDA:280,21,42,24
BRDA:280,21,43,7706
BRDA:280,22,44,24
BRDA:280,22,45,5836
BRDA:280,23,46,30
BRDA:280,23,47,41031
BRDA:280,24,48,30
BRDA:280,24,49,48494
BRDA:280,25,50,30
BRDA:280,25,51,21224
BRDA:280,26,52,30
BRDA:280,26,53,66200
BRDA:280,27,54,30
BRDA:280,27,55,30702
BRDA:280,28,56,52
BRDA:280,28,57,2238494
BRDA:280,29,58,30
BRDA:280,29,59,44982
BRDA:280,30,60,30
BRDA:280,30,61,37344
BRDA:280,31,62,30
BRDA:280,31,63,37931
BRDA:280,32,64,30
BRDA:280,32,65,31802
BRDA:280,33,66,30
BRDA:280,33,67,30132
BRDA:280,34,68,24
BRDA:280,34,69,2222
BRDA:280,35,70,30
BRDA:280,35,71,42064
BRDA:280,36,72,30
BRDA:280,36,73,28704
BRDA:280,37,74,34
BRDA:280,37,75,34368
BRDA:280,38,76,30
BRDA:280,38,77,24942
BRDA:280,39,78,30
BRDA:280,39,79,93258
BRDA:280,40,80,30
BRDA:280,40,81,301104
BRDA:280,41,82,24
BRDA:280,41,83,5878347
BRDA:280,42,84,30
BRDA:280,42,85,1256469
BRDA:280,43,86,24
BRDA:280,43,87,617159
BRDA:280,44,88,491
BRDA:280,44,89,100964
BRDA:280,45,90,476
BRDA:280,45,91,0
BRDA:280,46,92,476
BRDA:280,46,93,0
BRDA:280,47,94,476
BRDA:280,47,95,0
BRDA:280,48,96,476
BRDA:280,48,97,0
BRDA:280,49,98,476
BRDA:280,49,99,0
BRDA:280,50,100,476
BRDA:280,50,101,0
BRDA:280,51,102,2364
BRDA:280,51,103,21719
BRDA:280,52,104,884
BRDA:280,52,105,875040
BRDA:280,53,106,750
BRDA:280,53,107,82364
BRDA:280,54,108,526000
BRDA:280,54,109,0
BRDA:280,55,110,476
BRDA:280,55,111,0
BRDA:280,56,112,2245
BRDA:280,56,113,24836
BRDA:280,57,114,476
BRDA:280,57,115,0
BRDA:280,58,116,476
BRDA:280,58,117,0
BRDA:280,59,118,488
BRDA:280,59,119,0
BRDA:280,60,120,541
BRDA:280,60,121,3063992
BRDA:280,61,122,476
BRDA:280,61,123,0
BRDA:280,62,124,25416
BRDA:280,62,125,0
BRDA:280,63,126,1962
BRDA:280,63,127,0
BRDA:280,64,128,420946
BRDA:280,64,129,0
BRDA:280,65,130,154
BRDA:280,65,131,613
BRDA:280,66,132,24
BRDA:280,66,133,2652
BRDA:280,67,134,24
BRDA:280,67,135,6708
BRDA:280,68,136,22
BRDA:280,68,137,4164
BRDA:280,69,138,24
BRDA:280,69,139,3578
BRDA:280,70,140,18
BRDA:280,70,141,2334
BRDA:280,71,142,18
BRDA:280,71,143,2340
BRDA:280,72,144,279
BRDA:280,72,145,9107
BRDA:280,73,146,170
BRDA:280,73,147,8055
BRDA:280,74,148,150
BRDA:280,74,149,4459
BRDA:280,75,150,136
BRDA:280,75,151,6649
BRDA:280,76,152,372
BRDA:280,76,153,15690783
BRDA:280,77,154,476
BRDA:280,77,155,0
BRDA:280,78,156,476
BRDA:280,78,157,0
BRDA:280,79,158,476
BRDA:280,79,159,0
BRDA:280,80,160,476
BRDA:280,80,161,0
BRDA:280,81,162,476
BRDA:280,81,163,0
BRDA:280,82,164,476
BRDA:280,82,165,0
BRDA:280,83,166,476
BRDA:280,83,167,0
BRDA:280,84,168,482
BRDA:280,84,169,0
BRDA:280,85,170,476
BRDA:280,85,171,0
BRDA:280,86,172,6
BRDA:280,86,173,24900
BRDA:280,87,174,18
BRDA:280,87,175,78242
BRDA:280,88,176,97
BRDA:280,88,177,3468550
BRDA:280,89,178,95
BRDA:280,89,179,18596
BRDA:280,90,180,95
BRDA:280,90,181,8244
BRDA:280,91,182,474
BRDA:280,91,183,2814
BRDA:280,92,184,2826
BRDA:280,92,185,12729
BRDA:280,93,186,6
BRDA:280,93,187,56896
BRDA:280,94,188,36
BRDA:280,94,189,7825
BRDA:280,95,190,6
BRDA:280,95,191,23610
BRDA:280,96,192,12
BRDA:280,96,193,269585
BRDA:280,97,194,24
BRDA:280,97,195,70306
BRDA:280,98,196,24
BRDA:280,98,197,1822683
BRDA:280,99,198,6
BRDA:280,99,199,107551
BRDA:280,100,200,162
BRDA:280,100,201,121132
BRDA:280,101,202,6
BRDA:280,101,203,21244
BRDA:280,102,204,138
BRDA:280,102,205,23130
BRDA:280,103,206,6
BRDA:280,103,207,13406
BRDA:280,104,208,576
BRDA:280,104,209,470404
BRDA:280,105,210,162
BRDA:280,105,211,12720
BRDA:280,106,212,80
BRDA:280,106,213,58573
BRDA:280,107,214,24
BRDA:280,107,215,2524
BRDA:280,108,216,1406674
BRDA:280,108,217,0
BRDA:280,109,218,36
BRDA:280,109,219,236914
BRDA:280,110,220,18
BRDA:280,110,221,3127745
BRDA:280,111,222,18
BRDA:280,111,223,46598
BRDA:280,112,224,24
BRDA:280,112,225,4014
BRDA:280,113,226,18
BRDA:280,113,227,155007
BRDA:280,114,228,18
BRDA:280,114,229,3514
BRDA:280,115,230,18
BRDA:280,115,231,2000
BRDA:280,116,232,18
BRDA:280,116,233,2274
BRDA:280,117,234,24
BRDA:280,117,235,37166
BRDA:280,118,236,30
BRDA:280,118,237,34094
BRDA:280,119,238,34
BRDA:280,119,239,2941140
BRDA:280,120,240,18
BRDA:280,120,241,394197
BRDA:280,121,242,18
BRDA:280,121,243,6512
BRDA:280,122,244,18
BRDA:280,122,245,6152
BRDA:280,123,246,24
BRDA:280,123,247,825115
BRDA:280,124,248,24
BRDA:280,124,249,5107078
BRDA:280,125,250,18
BRDA:280,125,251,128355
BRDA:280,126,252,18
BRDA:280,126,253,51782
BRDA:280,127,254,18
BRDA:280,127,255,1616
BRDA:280,128,256,30
BRDA:280,128,257,58177
BRDA:280,129,258,16
BRDA:280,129,259,16581249
BRDA:280,130,260,14
BRDA:280,130,261,23873828
BRDA:280,131,262,682
BRDA:280,131,263,1890161
BRDA:280,132,264,820
BRDA:280,132,265,9079194
BRDA:280,133,266,940
BRDA:280,133,267,1305
BRDA:280,134,268,634
BRDA:280,134,269,1156630
BRDA:280,135,270,3726
BRDA:280,135,271,76200903
BRDA:280,136,272,150
BRDA:280,136,273,10043255
BRDA:280,137,274,36
BRDA:280,137,275,1327019
BRDA:280,138,276,30
BRDA:280,138,277,119370
BRDA:280,139,278,172
BRDA:280,139,279,3331
BRDA:280,140,280,30
BRDA:280,140,281,111166
BRDA:280,141,282,30
BRDA:280,141,283,46622
BRDA:280,142,284,34
BRDA:280,142,285,47306
BRDA:280,143,286,30
BRDA:280,143,287,40376
BRDA:280,144,288,30
BRDA:280,144,289,34692
BRDA:280,145,290,30
BRDA:280,145,291,28814
BRDA:280,146,292,30
BRDA:280,146,293,40466
BRDA:280,147,294,30
BRDA:280,147,295,38777
BRDA:280,148,296,30
BRDA:280,148,297,29026
BRDA:280,149,298,62
BRDA:280,149,299,5498348
BRDA:280,150,300,782
BRDA:280,150,301,8195
BRDA:280,151,302,18
BRDA:280,151,303,69778
BRDA:280,152,304,6
BRDA:280,152,305,147095
BRDA:280,153,306,6
BRDA:280,153,307,133373
BRDA:280,154,308,6
BRDA:280,154,309,13776
BRDA:280,155,310,6
BRDA:280,155,311,15240
BRDA:280,156,312,238
BRDA:280,156,313,414
BRDA:280,157,314,238
BRDA:280,157,315,1526
BRDA:280,158,316,406
BRDA:280,158,317,520
BRDA:280,159,318,664
BRDA:280,159,319,2858
BRDA:280,160,320,128
BRDA:280,160,321,4526309
BRDA:280,161,322,690
BRDA:280,161,323,11968336
BRDA:280,162,324,766
BRDA:280,162,325,8580212
BRDA:280,163,326,630
BRDA:280,163,327,154918
BRDA:280,164,328,45
BRDA:280,164,329,1014922
BRDA:280,165,330,288763
BRDA:280,165,331,4401672
BRDA:280,166,332,556
BRDA:280,166,333,5331580
BRDA:280,167,334,2658
BRDA:280,167,335,6928496
BRDA:280,168,336,6
BRDA:280,168,337,16590
BRDA:280,169,338,674
BRDA:280,169,339,12754
BRDA:305,0,0,0
BRDA:305,0,1,2751709
BRDA:313,0,0,2751709
BRDA:313,0,1,0
BRDA:320,0,0,1939815
BRDA:320,0,1,811894
BRDA:320,1,2,25237
BRDA:320,1,3,786657
BRDA:321,0,0,1939815
BRDA:321,0,1,811894
BRDA:325,0,0,0
BRDA:325,0,1,2751709
BRDA:329,0,0,455833
BRDA:329,0,1,2295876
BRDA:332,0,0,0
BRDA:332,0,1,2751709
BRDA:348,0,0,0
BRDA:348,0,1,2751709
BRDA:348,1,2,-
BRDA:348,1,3,-
BRDA:348,2,4,-
BRDA:348,2,5,-
BRDA:348,3,6,-
BRDA:348,3,7,-
BRDA:351,0,0,-
BRDA:351,0,1,-
BRDA:352,0,0,-
BRDA:352,0,1,-
BRF:1065
BRH:338
LF:200
LH:126
end_of_record
SF:/home/builder/project/lib/evmone/baseline_instruction_table.cpp
FN:33,_ZN6evmone8baseline23get_baseline_cost_tableE13evmc_revisionh
FNDA:2751709,_ZN6evmone8baseline23get_baseline_cost_tableE13evmc_revisionh
FNF:1
FNH:1
DA:33,2751709
DA:34,2751709
DA:35,2751709
DA:36,2751709
BRDA:34,0,0,2751709
BRDA:34,0,1,0
BRF:2
BRH:1
LF:4
LH:4
end_of_record
SF:/home/builder/project/lib/evmone/delegation.cpp
FN:11,_ZN6evmone20get_delegate_addressERKN4evmc13HostInterfaceERKNS0_7addressE
FNDA:2434941,_ZN6evmone20get_delegate_addressERKN4evmc13HostInterfaceERKNS0_7addressE
FNF:1
FNH:1
DA:11,2434941
DA:15,2434941
DA:16,2434941
DA:17,2434941
DA:19,2434941
DA:20,2429521
DA:23,5420
DA:26,5420
DA:27,5420
DA:28,2434941
BRDA:19,0,0,2429521
BRDA:19,0,1,5420
BRF:2
BRH:2
LF:10
LH:10
end_of_record
SF:/home/builder/project/lib/evmone/delegation.hpp
FN:21,_ZN6evmone17is_code_delegatedESt17basic_string_viewIhN4evmc11byte_traitsIhEEE
FNDA:3031863,_ZN6evmone17is_code_delegatedESt17basic_string_viewIhN4evmc11byte_traitsIhEEE
FNF:1
FNH:1
DA:21,3031863
DA:22,3031863
DA:23,3031863
BRF:0
BRH:0
LF:3
LH:3
end_of_record
SF:/home/builder/project/lib/evmone/execution_state.hpp
FN:50,_ZN6evmone10StackSpace6bottomEv
FN:65,_ZNK6evmone6Memory11FreeDeleterclEPh
FN:77,_ZN6evmone6Memory20handle_out_of_memoryEv
FN:80,_ZN6evmone6Memory17allocate_capacityEv
FN:88,_ZN6evmone6MemoryC2Ev
FN:90,_ZN6evmone6MemoryixEm
FN:92,_ZNK6evmone6Memory4dataEv
FN:93,_ZNK6evmone6Memory4sizeEv
FN:99,_ZN6evmone6Memory4growEm
FN:123,_ZN6evmone6Memory5clearEv
FN:185,_ZN6evmone14ExecutionStateC2ERK12evmc_message13evmc_revisionRK19evmc_host_interfaceP17evmc_host_contextSt17basic_string_viewIhN4evmc11byte_traitsIhEEE
FN:192,_ZN6evmone14ExecutionState5resetERK12evmc_message13evmc_revisionRK19evmc_host_interfaceP17evmc_host_contextSt17basic_string_viewIhN4evmc11byte_traitsIhEEE
FN:209,_ZNK6evmone14ExecutionState14in_static_modeEv
FN:212,_ZN6evmone14ExecutionState14get_tx_contextEv
FN:222,_ZN6evmone14ExecutionState23get_tx_initcode_by_hashERK12evmc_bytes32
FN:180,_ZN6evmone14ExecutionStateC2Ev
FNDA:2751709,_ZN6evmone10StackSpace6bottomEv
FNDA:2050,_ZNK6evmone6Memory11FreeDeleterclEPh
FNDA:0,_ZN6evmone6Memory20handle_out_of_memoryEv
FNDA:6762,_ZN6evmone6Memory17allocate_capacityEv
FNDA:2050,_ZN6evmone6MemoryC2Ev
FNDA:24615049,_ZN6evmone6MemoryixEm
FNDA:0,_ZNK6evmone6Memory4dataEv
FNDA:26943361,_ZNK6evmone6Memory4sizeEv
FNDA:1803642,_ZN6evmone6Memory4growEm
FNDA:2751709,_ZN6evmone6Memory5clearEv
FNDA:0,_ZN6evmone14ExecutionStateC2ERK12evmc_message13evmc_revisionRK19evmc_host_interfaceP17evmc_host_contextSt17basic_string_viewIhN4evmc11byte_traitsIhEEE
FNDA:2751709,_ZN6evmone14ExecutionState5resetERK12evmc_message13evmc_revisionRK19evmc_host_interfaceP17evmc_host_contextSt17basic_string_viewIhN4evmc11byte_traitsIhEEE
FNDA:13945263,_ZNK6evmone14ExecutionState14in_static_modeEv
FNDA:447742,_ZN6evmone14ExecutionState14get_tx_contextEv
FNDA:0,_ZN6evmone14ExecutionState23get_tx_initcode_by_hashERK12evmc_bytes32
FNDA:2050,_ZN6evmone14ExecutionStateC2Ev
FNF:16
FNH:12
DA:50,2751709
DA:65,2050
DA:77,0
DA:80,6762
DA:81,6762
DA:82,6762
DA:83,0
DA:84,6762
DA:88,2050
DA:90,24615049
DA:92,0
DA:93,26943361
DA:99,1803642
DA:101,1803642
DA:104,1803642
DA:106,1803642
DA:107,4712
DA:108,4712
DA:110,4712
DA:111,1666
DA:113,1666
DA:114,1666
DA:116,4712
DA:117,4712
DA:118,1803642
DA:119,1803642
DA:120,1803642
DA:123,2751709
DA:180,2050
DA:185,0
DA:186,0
DA:192,2751709
DA:193,2751709
DA:194,2751709
DA:195,2751709
DA:196,2751709
DA:197,2751709
DA:198,2751709
DA:199,2751709
DA:200,2751709
DA:201,2751709
DA:202,2751709
DA:203,2751709
DA:204,2751709
DA:205,2751709
DA:206,2751709
DA:207,2751709
DA:209,13945263
DA:212,447742
DA:213,447742
DA:214,168811
DA:215,447742
DA:216,447742
DA:222,0
DA:223,0
DA:224,0
DA:225,0
DA:226,0
DA:227,0
DA:228,0
DA:229,0
DA:230,0
DA:231,0
DA:232,0
DA:233,0
DA:235,0
DA:236,0
DA:237,0
BRDA:82,0,0,0
BRDA:82,0,1,6762
BRDA:101,0,0,1803642
BRDA:101,0,1,0
BRDA:104,0,0,1803642
BRDA:104,0,1,0
BRDA:106,0,0,4712
BRDA:106,0,1,1798930
BRDA:110,0,0,1666
BRDA:110,0,1,3046
BRDA:213,0,0,168811
BRDA:213,0,1,278931
BRDA:223,0,0,-
BRDA:223,0,1,-
BRDA:227,0,0,-
BRDA:227,0,1,-
BRDA:236,0,0,-
BRDA:236,0,1,-
BRF:18
BRH:9
LF:68
LH:48
end_of_record
SF:/home/builder/project/lib/evmone/instructions.hpp
FN:25,_ZN6evmone8StackTopC2EPN4intx4uintILj256EEE
FN:29,_ZN6evmone8StackTop3endEv
FN:34,_ZN6evmone8StackTopixEi
FN:37,_ZN6evmone8StackTop3topEv
FN:41,_ZN6evmone8StackTop3popEv
FN:44,_ZN6evmone8StackTop4pushERKN4intx4uintILj256EEE
FN:67,_ZN6evmone9num_wordsEm
FN:73,_ZN6evmone9copy_costEm
FN:87,_ZN6evmone11grow_memoryElRNS_6MemoryEm
FN:106,_ZN6evmone12check_memoryERlRNS_6MemoryERKN4intx4uintILj256EEEm
FN:123,_ZN6evmone12check_memoryERlRNS_6MemoryERKN4intx4uintILj256EEES7_
FN:147,_ZN6evmone5instr4core4noopENS_8StackTopE
FN:161,_ZN6evmone5instr4core3addENS_8StackTopE
FN:166,_ZN6evmone5instr4core3mulENS_8StackTopE
FN:171,_ZN6evmone5instr4core3subENS_8StackTopE
FN:176,_ZN6evmone5instr4core3divENS_8StackTopE
FN:182,_ZN6evmone5instr4core4sdivENS_8StackTopE
FN:188,_ZN6evmone5instr4core3modENS_8StackTopE
FN:194,_ZN6evmone5instr4core4smodENS_8StackTopE
FN:200,_ZN6evmone5instr4core6addmodENS_8StackTopE
FN:208,_ZN6evmone5instr4core6mulmodENS_8StackTopE
FN:216,_ZN6evmone5instr4core3expENS_8StackTopElRNS_14ExecutionStateE
FN:232,_ZN6evmone5instr4core10signextendENS_8StackTopE
FN:265,_ZN6evmone5instr4core2ltENS_8StackTopE
FN:271,_ZN6evmone5instr4core2gtENS_8StackTopE
FN:277,_ZN6evmone5instr4core3sltENS_8StackTopE
FN:283,_ZN6evmone5instr4core3sgtENS_8StackTopE
FN:289,_ZN6evmone5instr4core2eqENS_8StackTopE
FN:294,_ZN6evmone5instr4core6iszeroENS_8StackTopE
FN:299,_ZN6evmone5instr4core4and_ENS_8StackTopE
FN:304,_ZN6evmone5instr4core3or_ENS_8StackTopE
FN:309,_ZN6evmone5instr4core4xor_ENS_8StackTopE
FN:314,_ZN6evmone5instr4core4not_ENS_8StackTopE
FN:319,_ZN6evmone5instr4core4byteENS_8StackTopE
FN:334,_ZN6evmone5instr4core3shlENS_8StackTopE
FN:339,_ZN6evmone5instr4core3shrENS_8StackTopE
FN:344,_ZN6evmone5instr4core3sarENS_8StackTopE
FN:356,_ZN6evmone5instr4core3clzENS_8StackTopE
FN:361,_ZN6evmone5instr4core9keccak256ENS_8StackTopElRNS_14ExecutionStateE
FN:382,_ZN6evmone5instr4core7addressENS_8StackTopERNS_14ExecutionStateE
FN:387,_ZN6evmone5instr4core7balanceENS_8StackTopElRNS_14ExecutionStateE
FN:402,_ZN6evmone5instr4core6originENS_8StackTopERNS_14ExecutionStateE
FN:407,_ZN6evmone5instr4core6callerENS_8StackTopERNS_14ExecutionStateE
FN:412,_ZN6evmone5instr4core9callvalueENS_8StackTopERNS_14ExecutionStateE
FN:417,_ZN6evmone5instr4core12calldataloadENS_8StackTopERNS_14ExecutionStateE
FN:436,_ZN6evmone5instr4core12calldatasizeENS_8StackTopERNS_14ExecutionStateE
FN:441,_ZN6evmone5instr4core12calldatacopyENS_8StackTopElRNS_14ExecutionStateE
FN:468,_ZN6evmone5instr4core8codesizeENS_8StackTopERNS_14ExecutionStateE
FN:473,_ZN6evmone5instr4core8codecopyENS_8StackTopElRNS_14ExecutionStateE
FN:504,_ZN6evmone5instr4core8gaspriceENS_8StackTopERNS_14ExecutionStateE
FN:509,_ZN6evmone5instr4core7basefeeENS_8StackTopERNS_14ExecutionStateE
FN:514,_ZN6evmone5instr4core8blobhashENS_8StackTopERNS_14ExecutionStateE
FN:524,_ZN6evmone5instr4core11blobbasefeeENS_8StackTopERNS_14ExecutionStateE
FN:529,_ZN6evmone5instr4core11extcodesizeENS_8StackTopElRNS_14ExecutionStateE
FN:544,_ZN6evmone5instr4core11extcodecopyENS_8StackTopElRNS_14ExecutionStateE
FN:577,_ZN6evmone5instr4core14returndataloadENS_8StackTopERNS_14ExecutionStateE
FN:596,_ZN6evmone5instr4core14returndatasizeENS_8StackTopERNS_14ExecutionStateE
FN:601,_ZN6evmone5instr4core14returndatacopyENS_8StackTopElRNS_14ExecutionStateE
FN:647,_ZN6evmone5instr4core11extcodehashENS_8StackTopElRNS_14ExecutionStateE
FN:663,_ZN6evmone5instr4core9blockhashENS_8StackTopERNS_14ExecutionStateE
FN:675,_ZN6evmone5instr4core8coinbaseENS_8StackTopERNS_14ExecutionStateE
FN:680,_ZN6evmone5instr4core9timestampENS_8StackTopERNS_14ExecutionStateE
FN:686,_ZN6evmone5instr4core6numberENS_8StackTopERNS_14ExecutionStateE
FN:692,_ZN6evmone5instr4core10prevrandaoENS_8StackTopERNS_14ExecutionStateE
FN:697,_ZN6evmone5instr4core8gaslimitENS_8StackTopERNS_14ExecutionStateE
FN:702,_ZN6evmone5instr4core7chainidENS_8StackTopERNS_14ExecutionStateE
FN:707,_ZN6evmone5instr4core11selfbalanceENS_8StackTopERNS_14ExecutionStateE
FN:713,_ZN6evmone5instr4core5mloadENS_8StackTopElRNS_14ExecutionStateE
FN:724,_ZN6evmone5instr4core6mstoreENS_8StackTopElRNS_14ExecutionStateE
FN:736,_ZN6evmone5instr4core7mstore8ENS_8StackTopElRNS_14ExecutionStateE
FN:753,_ZN6evmone5instr4core9jump_implERNS_14ExecutionStateERKN4intx4uintILj256EEE
FN:766,_ZN6evmone5instr4core4jumpENS_8StackTopERNS_14ExecutionStateEPKh
FN:772,_ZN6evmone5instr4core5jumpiENS_8StackTopERNS_14ExecutionStateEPKh
FN:779,_ZN6evmone5instr4core5rjumpENS_8StackTopERNS_14ExecutionStateEPKh
FN:786,_ZN6evmone5instr4core6rjumpiENS_8StackTopERNS_14ExecutionStateEPKh
FN:792,_ZN6evmone5instr4core6rjumpvENS_8StackTopERNS_14ExecutionStateEPKh
FN:813,_ZN6evmone5instr4core2pcENS_8StackTopERNS_14ExecutionStateEPKh
FN:819,_ZN6evmone5instr4core5msizeENS_8StackTopERNS_14ExecutionStateE
FN:824,_ZN6evmone5instr4core3gasENS_8StackTopElRNS_14ExecutionStateE
FN:830,_ZN6evmone5instr4core5tloadENS_8StackTopERNS_14ExecutionStateE
FN:838,_ZN6evmone5instr4core6tstoreENS_8StackTopElRNS_14ExecutionStateE
FN:849,_ZN6evmone5instr4core5push0ENS_8StackTopE
FN:865,_ZN6evmone5instr4core22load_partial_push_dataILm1EEEmPKh
FN:871,_ZN6evmone5instr4core22load_partial_push_dataILm2EEEmPKh
FN:877,_ZN6evmone5instr4core22load_partial_push_dataILm3EEEmPKh
FN:884,_ZN6evmone5instr4core22load_partial_push_dataILm4EEEmPKh
FN:957,_ZN6evmone5instr4core4dupnENS_8StackTopEPKh
FN:963,_ZN6evmone5instr4core5swapnENS_8StackTopEPKh
FN:970,_ZN6evmone5instr4core8exchangeENS_8StackTopEPKh
FN:979,_ZN6evmone5instr4core5mcopyENS_8StackTopElRNS_14ExecutionStateE
FN:1001,_ZN6evmone5instr4core8dataloadENS_8StackTopERNS_14ExecutionStateE
FN:1021,_ZN6evmone5instr4core8datasizeENS_8StackTopERNS_14ExecutionStateE
FN:1026,_ZN6evmone5instr4core9dataloadnENS_8StackTopERNS_14ExecutionStateEPKh
FN:1034,_ZN6evmone5instr4core8datacopyENS_8StackTopElRNS_14ExecutionStateE
FN:1117,_ZN6evmone5instr4core5callfENS_8StackTopERNS_14ExecutionStateEPKh
FN:1141,_ZN6evmone5instr4core4retfENS_8StackTopERNS_14ExecutionStateEPKh
FN:1148,_ZN6evmone5instr4core5jumpfENS_8StackTopERNS_14ExecutionStateEPKh
FN:1182,_ZN6evmone5instr4core10returncodeENS_8StackTopElRNS_14ExecutionStateEPKh
FN:1204,_ZN6evmone5instr4core12selfdestructENS_8StackTopElRNS_14ExecutionStateE
FN:154,_ZN6evmone5instr4core9stop_implIL16evmc_status_code0EEENS_10TermResultENS_8StackTopElRNS_14ExecutionStateE
FN:154,_ZN6evmone5instr4core9stop_implIL16evmc_status_code4EEENS_10TermResultENS_8StackTopElRNS_14ExecutionStateE
FN:1165,_ZN6evmone5instr4core11return_implIL16evmc_status_code0EEENS_10TermResultENS_8StackTopElRNS_14ExecutionStateE
FN:1165,_ZN6evmone5instr4core11return_implIL16evmc_status_code2EEENS_10TermResultENS_8StackTopElRNS_14ExecutionStateE
FN:894,_ZN6evmone5instr4core4pushILm1EEEPKhNS_8StackTopERNS_14ExecutionStateES4_
FN:894,_ZN6evmone5instr4core4pushILm2EEEPKhNS_8StackTopERNS_14ExecutionStateES4_
FN:894,_ZN6evmone5instr4core4pushILm3EEEPKhNS_8StackTopERNS_14ExecutionStateES4_
FN:894,_ZN6evmone5instr4core4pushILm4EEEPKhNS_8StackTopERNS_14ExecutionStateES4_
FN:894,_ZN6evmone5instr4core4pushILm5EEEPKhNS_8StackTopERNS_14ExecutionStateES4_
FN:856,_ZN6evmone5instr4core22load_partial_push_dataILm5EEEmPKh
FN:894,_ZN6evmone5instr4core4pushILm6EEEPKhNS_8StackTopERNS_14ExecutionStateES4_
FN:856,_ZN6evmone5instr4core22load_partial_push_dataILm6EEEmPKh
FN:894,_ZN6evmone5instr4core4pushILm7EEEPKhNS_8StackTopERNS_14ExecutionStateES4_
FN:856,_ZN6evmone5instr4core22load_partial_push_dataILm7EEEmPKh
FN:894,_ZN6evmone5instr4core4pushILm8EEEPKhNS_8StackTopERNS_14ExecutionStateES4_
FN:894,_ZN6evmone5instr4core4pushILm9EEEPKhNS_8StackTopERNS_14ExecutionStateES4_
FN:894,_ZN6evmone5instr4core4pushILm10EEEPKhNS_8StackTopERNS_14ExecutionStateES4_
FN:894,_ZN6evmone5instr4core4pushILm11EEEPKhNS_8StackTopERNS_14ExecutionStateES4_
FN:894,_ZN6evmone5instr4core4pushILm12EEEPKhNS_8StackTopERNS_14ExecutionStateES4_
FN:894,_ZN6evmone5instr4core4pushILm13EEEPKhNS_8StackTopERNS_14ExecutionStateES4_
FN:894,_ZN6evmone5instr4core4pushILm14EEEPKhNS_8StackTopERNS_14ExecutionStateES4_
FN:894,_ZN6evmone5instr4core4pushILm15EEEPKhNS_8StackTopERNS_14ExecutionStateES4_
FN:894,_ZN6evmone5instr4core4pushILm16EEEPKhNS_8StackTopERNS_14ExecutionStateES4_
FN:894,_ZN6evmone5instr4core4pushILm17EEEPKhNS_8StackTopERNS_14ExecutionStateES4_
FN:894,_ZN6evmone5instr4core4pushILm18EEEPKhNS_8StackTopERNS_14ExecutionStateES4_
FN:894,_ZN6evmone5instr4core4pushILm19EEEPKhNS_8StackTopERNS_14ExecutionStateES4_
FN:894,_ZN6evmone5instr4core4pushILm20EEEPKhNS_8StackTopERNS_14ExecutionStateES4_
FN:894,_ZN6evmone5instr4core4pushILm21EEEPKhNS_8StackTopERNS_14ExecutionStateES4_
FN:894,_ZN6evmone5instr4core4pushILm22EEEPKhNS_8StackTopERNS_14ExecutionStateES4_
FN:894,_ZN6evmone5instr4core4pushILm23EEEPKhNS_8StackTopERNS_14ExecutionStateES4_
FN:894,_ZN6evmone5instr4core4pushILm24EEEPKhNS_8StackTopERNS_14ExecutionStateES4_
FN:894,_ZN6evmone5instr4core4pushILm25EEEPKhNS_8StackTopERNS_14ExecutionStateES4_
FN:894,_ZN6evmone5instr4core4pushILm26EEEPKhNS_8StackTopERNS_14ExecutionStateES4_
FN:894,_ZN6evmone5instr4core4pushILm27EEEPKhNS_8StackTopERNS_14ExecutionStateES4_
FN:894,_ZN6evmone5instr4core4pushILm28EEEPKhNS_8StackTopERNS_14ExecutionStateES4_
FN:894,_ZN6evmone5instr4core4pushILm29EEEPKhNS_8StackTopERNS_14ExecutionStateES4_
FN:894,_ZN6evmone5instr4core4pushILm30EEEPKhNS_8StackTopERNS_14ExecutionStateES4_
FN:894,_ZN6evmone5instr4core4pushILm31EEEPKhNS_8StackTopERNS_14ExecutionStateES4_
FN:894,_ZN6evmone5instr4core4pushILm32EEEPKhNS_8StackTopERNS_14ExecutionStateES4_
FN:927,_ZN6evmone5instr4core3dupILi1EEEvNS_8StackTopE
FN:927,_ZN6evmone5instr4core3dupILi2EEEvNS_8StackTopE
FN:927,_ZN6evmone5instr4core3dupILi3EEEvNS_8StackTopE
FN:927,_ZN6evmone5instr4core3dupILi4EEEvNS_8StackTopE
FN:927,_ZN6evmone5instr4core3dupILi5EEEvNS_8StackTopE
FN:927,_ZN6evmone5instr4core3dupILi6EEEvNS_8StackTopE
FN:927,_ZN6evmone5instr4core3dupILi7EEEvNS_8StackTopE
FN:927,_ZN6evmone5instr4core3dupILi8EEEvNS_8StackTopE
FN:927,_ZN6evmone5instr4core3dupILi9EEEvNS_8StackTopE
FN:927,_ZN6evmone5instr4core3dupILi10EEEvNS_8StackTopE
FN:927,_ZN6evmone5instr4core3dupILi11EEEvNS_8StackTopE
FN:927,_ZN6evmone5instr4core3dupILi12EEEvNS_8StackTopE
FN:927,_ZN6evmone5instr4core3dupILi13EEEvNS_8StackTopE
FN:927,_ZN6evmone5instr4core3dupILi14EEEvNS_8StackTopE
FN:927,_ZN6evmone5instr4core3dupILi15EEEvNS_8StackTopE
FN:927,_ZN6evmone5instr4core3dupILi16EEEvNS_8StackTopE
FN:936,_ZN6evmone5instr4core4swapILi1EEEvNS_8StackTopE
FN:936,_ZN6evmone5instr4core4swapILi2EEEvNS_8StackTopE
FN:936,_ZN6evmone5instr4core4swapILi3EEEvNS_8StackTopE
FN:936,_ZN6evmone5instr4core4swapILi4EEEvNS_8StackTopE
FN:936,_ZN6evmone5instr4core4swapILi5EEEvNS_8StackTopE
FN:936,_ZN6evmone5instr4core4swapILi6EEEvNS_8StackTopE
FN:936,_ZN6evmone5instr4core4swapILi7EEEvNS_8StackTopE
FN:936,_ZN6evmone5instr4core4swapILi8EEEvNS_8StackTopE
FN:936,_ZN6evmone5instr4core4swapILi9EEEvNS_8StackTopE
FN:936,_ZN6evmone5instr4core4swapILi10EEEvNS_8StackTopE
FN:936,_ZN6evmone5instr4core4swapILi11EEEvNS_8StackTopE
FN:936,_ZN6evmone5instr4core4swapILi12EEEvNS_8StackTopE
FN:936,_ZN6evmone5instr4core4swapILi13EEEvNS_8StackTopE
FN:936,_ZN6evmone5instr4core4swapILi14EEEvNS_8StackTopE
FN:936,_ZN6evmone5instr4core4swapILi15EEEvNS_8StackTopE
FN:936,_ZN6evmone5instr4core4swapILi16EEEvNS_8StackTopE
FN:1063,_ZN6evmone5instr4core3logILm0EEENS_6ResultENS_8StackTopElRNS_14ExecutionStateE
FN:1063,_ZN6evmone5instr4core3logILm1EEENS_6ResultENS_8StackTopElRNS_14ExecutionStateE
FN:1063,_ZN6evmone5instr4core3logILm2EEENS_6ResultENS_8StackTopElRNS_14ExecutionStateE
FN:1063,_ZN6evmone5instr4core3logILm3EEENS_6ResultENS_8StackTopElRNS_14ExecutionStateE
FN:1063,_ZN6evmone5instr4core3logILm4EEENS_6ResultENS_8StackTopElRNS_14ExecutionStateE
FNDA:245218797,_ZN6evmone8StackTopC2EPN4intx4uintILj256EEE
FNDA:0,_ZN6evmone8StackTop3endEv
FNDA:30597077,_ZN6evmone8StackTopixEi
FNDA:144441534,_ZN6evmone8StackTop3topEv
FNDA:113273209,_ZN6evmone8StackTop3popEv
FNDA:128629533,_ZN6evmone8StackTop4pushERKN4intx4uintILj256EEE
FNDA:2034058,_ZN6evmone9num_wordsEm
FNDA:166596,_ZN6evmone9copy_costEm
FNDA:1807518,_ZN6evmone11grow_memoryElRNS_6MemoryEm
FNDA:25120369,_ZN6evmone12check_memoryERlRNS_6MemoryERKN4intx4uintILj256EEEm
FNDA:9057554,_ZN6evmone12check_memoryERlRNS_6MemoryERKN4intx4uintILj256EEES7_
FNDA:28400137,_ZN6evmone5instr4core4noopENS_8StackTopE
FNDA:15690783,_ZN6evmone5instr4core3addENS_8StackTopE
FNDA:236914,_ZN6evmone5instr4core3mulENS_8StackTopE
FNDA:3127745,_ZN6evmone5instr4core3subENS_8StackTopE
FNDA:46598,_ZN6evmone5instr4core3divENS_8StackTopE
FNDA:4014,_ZN6evmone5instr4core4sdivENS_8StackTopE
FNDA:155007,_ZN6evmone5instr4core3modENS_8StackTopE
FNDA:3514,_ZN6evmone5instr4core4smodENS_8StackTopE
FNDA:2000,_ZN6evmone5instr4core6addmodENS_8StackTopE
FNDA:2274,_ZN6evmone5instr4core6mulmodENS_8StackTopE
FNDA:37166,_ZN6evmone5instr4core3expENS_8StackTopElRNS_14ExecutionStateE
FNDA:2524,_ZN6evmone5instr4core10signextendENS_8StackTopE
FNDA:2941140,_ZN6evmone5instr4core2ltENS_8StackTopE
FNDA:394197,_ZN6evmone5instr4core2gtENS_8StackTopE
FNDA:6512,_ZN6evmone5instr4core3sltENS_8StackTopE
FNDA:6152,_ZN6evmone5instr4core3sgtENS_8StackTopE
FNDA:825115,_ZN6evmone5instr4core2eqENS_8StackTopE
FNDA:5107078,_ZN6evmone5instr4core6iszeroENS_8StackTopE
FNDA:128355,_ZN6evmone5instr4core4and_ENS_8StackTopE
FNDA:51782,_ZN6evmone5instr4core3or_ENS_8StackTopE
FNDA:1616,_ZN6evmone5instr4core4xor_ENS_8StackTopE
FNDA:70306,_ZN6evmone5instr4core4not_ENS_8StackTopE
FNDA:78242,_ZN6evmone5instr4core4byteENS_8StackTopE
FNDA:3468550,_ZN6evmone5instr4core3shlENS_8StackTopE
FNDA:18596,_ZN6evmone5instr4core3shrENS_8StackTopE
FNDA:8244,_ZN6evmone5instr4core3sarENS_8StackTopE
FNDA:2814,_ZN6evmone5instr4core3clzENS_8StackTopE
FNDA:15525,_ZN6evmone5instr4core9keccak256ENS_8StackTopElRNS_14ExecutionStateE
FNDA:56896,_ZN6evmone5instr4core7addressENS_8StackTopERNS_14ExecutionStateE
FNDA:7837,_ZN6evmone5instr4core7balanceENS_8StackTopElRNS_14ExecutionStateE
FNDA:23610,_ZN6evmone5instr4core6originENS_8StackTopERNS_14ExecutionStateE
FNDA:269585,_ZN6evmone5instr4core6callerENS_8StackTopERNS_14ExecutionStateE
FNDA:24900,_ZN6evmone5instr4core9callvalueENS_8StackTopERNS_14ExecutionStateE
FNDA:1822683,_ZN6evmone5instr4core12calldataloadENS_8StackTopERNS_14ExecutionStateE
FNDA:107551,_ZN6evmone5instr4core12calldatasizeENS_8StackTopERNS_14ExecutionStateE
FNDA:121246,_ZN6evmone5instr4core12calldatacopyENS_8StackTopElRNS_14ExecutionStateE
FNDA:21244,_ZN6evmone5instr4core8codesizeENS_8StackTopERNS_14ExecutionStateE
FNDA:23244,_ZN6evmone5instr4core8codecopyENS_8StackTopElRNS_14ExecutionStateE
FNDA:13406,_ZN6evmone5instr4core8gaspriceENS_8StackTopERNS_14ExecutionStateE
FNDA:520,_ZN6evmone5instr4core7basefeeENS_8StackTopERNS_14ExecutionStateE
FNDA:2858,_ZN6evmone5instr4core8blobhashENS_8StackTopERNS_14ExecutionStateE
FNDA:12754,_ZN6evmone5instr4core11blobbasefeeENS_8StackTopERNS_14ExecutionStateE
FNDA:470560,_ZN6evmone5instr4core11extcodesizeENS_8StackTopElRNS_14ExecutionStateE
FNDA:12840,_ZN6evmone5instr4core11extcodecopyENS_8StackTopElRNS_14ExecutionStateE
FNDA:0,_ZN6evmone5instr4core14returndataloadENS_8StackTopERNS_14ExecutionStateE
FNDA:58573,_ZN6evmone5instr4core14returndatasizeENS_8StackTopERNS_14ExecutionStateE
FNDA:8891,_ZN6evmone5instr4core14returndatacopyENS_8StackTopElRNS_14ExecutionStateE
FNDA:3337,_ZN6evmone5instr4core11extcodehashENS_8StackTopElRNS_14ExecutionStateE
FNDA:69778,_ZN6evmone5instr4core9blockhashENS_8StackTopERNS_14ExecutionStateE
FNDA:14918,_ZN6evmone5instr4core8coinbaseENS_8StackTopERNS_14ExecutionStateE
FNDA:147095,_ZN6evmone5instr4core9timestampENS_8StackTopERNS_14ExecutionStateE
FNDA:133373,_ZN6evmone5instr4core6numberENS_8StackTopERNS_14ExecutionStateE
FNDA:13776,_ZN6evmone5instr4core10prevrandaoENS_8StackTopERNS_14ExecutionStateE
FNDA:15240,_ZN6evmone5instr4core8gaslimitENS_8StackTopERNS_14ExecutionStateE
FNDA:414,_ZN6evmone5instr4core7chainidENS_8StackTopERNS_14ExecutionStateE
FNDA:1526,_ZN6evmone5instr4core11selfbalanceENS_8StackTopERNS_14ExecutionStateE
FNDA:11969002,_ZN6evmone5instr4core5mloadENS_8StackTopElRNS_14ExecutionStateE
FNDA:8580910,_ZN6evmone5instr4core6mstoreENS_8StackTopElRNS_14ExecutionStateE
FNDA:155530,_ZN6evmone5instr4core7mstore8ENS_8StackTopElRNS_14ExecutionStateE
FNDA:6960688,_ZN6evmone5instr4core9jump_implERNS_14ExecutionStateERKN4intx4uintILj256EEE
FNDA:5332052,_ZN6evmone5instr4core4jumpENS_8StackTopERNS_14ExecutionStateEPKh
FNDA:6931134,_ZN6evmone5instr4core5jumpiENS_8StackTopERNS_14ExecutionStateEPKh
FNDA:0,_ZN6evmone5instr4core5rjumpENS_8StackTopERNS_14ExecutionStateEPKh
FNDA:0,_ZN6evmone5instr4core6rjumpiENS_8StackTopERNS_14ExecutionStateEPKh
FNDA:0,_ZN6evmone5instr4core6rjumpvENS_8StackTopERNS_14ExecutionStateEPKh
FNDA:5498348,_ZN6evmone5instr4core2pcENS_8StackTopERNS_14ExecutionStateEPKh
FNDA:16590,_ZN6evmone5instr4core5msizeENS_8StackTopERNS_14ExecutionStateE
FNDA:16581249,_ZN6evmone5instr4core3gasENS_8StackTopElRNS_14ExecutionStateE
FNDA:1890161,_ZN6evmone5instr4core5tloadENS_8StackTopERNS_14ExecutionStateE
FNDA:9079278,_ZN6evmone5instr4core6tstoreENS_8StackTopElRNS_14ExecutionStateE
FNDA:1156630,_ZN6evmone5instr4core5push0ENS_8StackTopE
FNDA:76292635,_ZN6evmone5instr4core22load_partial_push_dataILm1EEEmPKh
FNDA:10185178,_ZN6evmone5instr4core22load_partial_push_dataILm2EEEmPKh
FNDA:1428599,_ZN6evmone5instr4core22load_partial_push_dataILm3EEEmPKh
FNDA:2427034,_ZN6evmone5instr4core22load_partial_push_dataILm4EEEmPKh
FNDA:0,_ZN6evmone5instr4core4dupnENS_8StackTopEPKh
FNDA:0,_ZN6evmone5instr4core5swapnENS_8StackTopEPKh
FNDA:0,_ZN6evmone5instr4core8exchangeENS_8StackTopEPKh
FNDA:1527,_ZN6evmone5instr4core5mcopyENS_8StackTopElRNS_14ExecutionStateE
FNDA:0,_ZN6evmone5instr4core8dataloadENS_8StackTopERNS_14ExecutionStateE
FNDA:0,_ZN6evmone5instr4core8datasizeENS_8StackTopERNS_14ExecutionStateE
FNDA:0,_ZN6evmone5instr4core9dataloadnENS_8StackTopERNS_14ExecutionStateEPKh
FNDA:0,_ZN6evmone5instr4core8datacopyENS_8StackTopElRNS_14ExecutionStateE
FNDA:0,_ZN6evmone5instr4core5callfENS_8StackTopERNS_14ExecutionStateEPKh
FNDA:0,_ZN6evmone5instr4core4retfENS_8StackTopERNS_14ExecutionStateEPKh
FNDA:0,_ZN6evmone5instr4core5jumpfENS_8StackTopERNS_14ExecutionStateEPKh
FNDA:0,_ZN6evmone5instr4core10returncodeENS_8StackTopElRNS_14ExecutionStateEPKh
FNDA:7750,_ZN6evmone5instr4core12selfdestructENS_8StackTopElRNS_14ExecutionStateE
FNDA:1406674,_ZN6evmone5instr4core9stop_implIL16evmc_status_code0EEENS_10TermResultENS_8StackTopElRNS_14ExecutionStateE
FNDA:1962,_ZN6evmone5instr4core9stop_implIL16evmc_status_code4EEENS_10TermResultENS_8StackTopElRNS_14ExecutionStateE
FNDA:525982,_ZN6evmone5instr4core11return_implIL16evmc_status_code0EEENS_10TermResultENS_8StackTopElRNS_14ExecutionStateE
FNDA:25321,_ZN6evmone5instr4core11return_implIL16evmc_status_code2EEENS_10TermResultENS_8StackTopElRNS_14ExecutionStateE
FNDA:76200903,_ZN6evmone5instr4core4pushILm1EEEPKhNS_8StackTopERNS_14ExecutionStateES4_
FNDA:10043255,_ZN6evmone5instr4core4pushILm2EEEPKhNS_8StackTopERNS_14ExecutionStateES4_
FNDA:1327019,_ZN6evmone5instr4core4pushILm3EEEPKhNS_8StackTopERNS_14ExecutionStateES4_
FNDA:119370,_ZN6evmone5instr4core4pushILm4EEEPKhNS_8StackTopERNS_14ExecutionStateES4_
FNDA:58177,_ZN6evmone5instr4core4pushILm5EEEPKhNS_8StackTopERNS_14ExecutionStateES4_
FNDA:176304,_ZN6evmone5instr4core22load_partial_push_dataILm5EEEmPKh
FNDA:111166,_ZN6evmone5instr4core4pushILm6EEEPKhNS_8StackTopERNS_14ExecutionStateES4_
FNDA:207546,_ZN6evmone5instr4core22load_partial_push_dataILm6EEEmPKh
FNDA:46622,_ZN6evmone5instr4core4pushILm7EEEPKhNS_8StackTopERNS_14ExecutionStateES4_
FNDA:206837,_ZN6evmone5instr4core22load_partial_push_dataILm7EEEmPKh
FNDA:47306,_ZN6evmone5instr4core4pushILm8EEEPKhNS_8StackTopERNS_14ExecutionStateES4_
FNDA:40376,_ZN6evmone5instr4core4pushILm9EEEPKhNS_8StackTopERNS_14ExecutionStateES4_
FNDA:34692,_ZN6evmone5instr4core4pushILm10EEEPKhNS_8StackTopERNS_14ExecutionStateES4_
FNDA:28814,_ZN6evmone5instr4core4pushILm11EEEPKhNS_8StackTopERNS_14ExecutionStateES4_
FNDA:40466,_ZN6evmone5instr4core4pushILm12EEEPKhNS_8StackTopERNS_14ExecutionStateES4_
FNDA:38777,_ZN6evmone5instr4core4pushILm13EEEPKhNS_8StackTopERNS_14ExecutionStateES4_
FNDA:34094,_ZN6evmone5instr4core4pushILm14EEEPKhNS_8StackTopERNS_14ExecutionStateES4_
FNDA:29026,_ZN6evmone5instr4core4pushILm15EEEPKhNS_8StackTopERNS_14ExecutionStateES4_
FNDA:48494,_ZN6evmone5instr4core4pushILm16EEEPKhNS_8StackTopERNS_14ExecutionStateES4_
FNDA:21224,_ZN6evmone5instr4core4pushILm17EEEPKhNS_8StackTopERNS_14ExecutionStateES4_
FNDA:66200,_ZN6evmone5instr4core4pushILm18EEEPKhNS_8StackTopERNS_14ExecutionStateES4_
FNDA:30702,_ZN6evmone5instr4core4pushILm19EEEPKhNS_8StackTopERNS_14ExecutionStateES4_
FNDA:2238494,_ZN6evmone5instr4core4pushILm20EEEPKhNS_8StackTopERNS_14ExecutionStateES4_
FNDA:44982,_ZN6evmone5instr4core4pushILm21EEEPKhNS_8StackTopERNS_14ExecutionStateES4_
FNDA:37344,_ZN6evmone5instr4core4pushILm22EEEPKhNS_8StackTopERNS_14ExecutionStateES4_
FNDA:37931,_ZN6evmone5instr4core4pushILm23EEEPKhNS_8StackTopERNS_14ExecutionStateES4_
FNDA:31802,_ZN6evmone5instr4core4pushILm24EEEPKhNS_8StackTopERNS_14ExecutionStateES4_
FNDA:30132,_ZN6evmone5instr4core4pushILm25EEEPKhNS_8StackTopERNS_14ExecutionStateES4_
FNDA:41031,_ZN6evmone5instr4core4pushILm26EEEPKhNS_8StackTopERNS_14ExecutionStateES4_
FNDA:42064,_ZN6evmone5instr4core4pushILm27EEEPKhNS_8StackTopERNS_14ExecutionStateES4_
FNDA:28704,_ZN6evmone5instr4core4pushILm28EEEPKhNS_8StackTopERNS_14ExecutionStateES4_
FNDA:34368,_ZN6evmone5instr4core4pushILm29EEEPKhNS_8StackTopERNS_14ExecutionStateES4_
FNDA:24942,_ZN6evmone5instr4core4pushILm30EEEPKhNS_8StackTopERNS_14ExecutionStateES4_
FNDA:93258,_ZN6evmone5instr4core4pushILm31EEEPKhNS_8StackTopERNS_14ExecutionStateES4_
FNDA:301104,_ZN6evmone5instr4core4pushILm32EEEPKhNS_8StackTopERNS_14ExecutionStateES4_
FNDA:5878347,_ZN6evmone5instr4core3dupILi1EEEvNS_8StackTopE
FNDA:1256469,_ZN6evmone5instr4core3dupILi2EEEvNS_8StackTopE
FNDA:617159,_ZN6evmone5instr4core3dupILi3EEEvNS_8StackTopE
FNDA:291940,_ZN6evmone5instr4core3dupILi4EEEvNS_8StackTopE
FNDA:126826,_ZN6evmone5instr4core3dupILi5EEEvNS_8StackTopE
FNDA:64880,_ZN6evmone5instr4core3dupILi6EEEvNS_8StackTopE
FNDA:47802,_ZN6evmone5instr4core3dupILi7EEEvNS_8StackTopE
FNDA:443772,_ZN6evmone5instr4core3dupILi8EEEvNS_8StackTopE
FNDA:26974,_ZN6evmone5instr4core3dupILi9EEEvNS_8StackTopE
FNDA:53284,_ZN6evmone5instr4core3dupILi10EEEvNS_8StackTopE
FNDA:24940,_ZN6evmone5instr4core3dupILi11EEEvNS_8StackTopE
FNDA:16556,_ZN6evmone5instr4core3dupILi12EEEvNS_8StackTopE
FNDA:30560,_ZN6evmone5instr4core3dupILi13EEEvNS_8StackTopE
FNDA:15010,_ZN6evmone5instr4core3dupILi14EEEvNS_8StackTopE
FNDA:25190,_ZN6evmone5instr4core3dupILi15EEEvNS_8StackTopE
FNDA:17342,_ZN6evmone5instr4core3dupILi16EEEvNS_8StackTopE
FNDA:722953,_ZN6evmone5instr4core4swapILi1EEEvNS_8StackTopE
FNDA:402696,_ZN6evmone5instr4core4swapILi2EEEvNS_8StackTopE
FNDA:271300,_ZN6evmone5instr4core4swapILi3EEEvNS_8StackTopE
FNDA:87278,_ZN6evmone5instr4core4swapILi4EEEvNS_8StackTopE
FNDA:36970,_ZN6evmone5instr4core4swapILi5EEEvNS_8StackTopE
FNDA:8208,_ZN6evmone5instr4core4swapILi6EEEvNS_8StackTopE
FNDA:3790,_ZN6evmone5instr4core4swapILi7EEEvNS_8StackTopE
FNDA:7706,_ZN6evmone5instr4core4swapILi8EEEvNS_8StackTopE
FNDA:5836,_ZN6evmone5instr4core4swapILi9EEEvNS_8StackTopE
FNDA:2222,_ZN6evmone5instr4core4swapILi10EEEvNS_8StackTopE
FNDA:2652,_ZN6evmone5instr4core4swapILi11EEEvNS_8StackTopE
FNDA:6708,_ZN6evmone5instr4core4swapILi12EEEvNS_8StackTopE
FNDA:4164,_ZN6evmone5instr4core4swapILi13EEEvNS_8StackTopE
FNDA:3578,_ZN6evmone5instr4core4swapILi14EEEvNS_8StackTopE
FNDA:2334,_ZN6evmone5instr4core4swapILi15EEEvNS_8StackTopE
FNDA:2340,_ZN6evmone5instr4core4swapILi16EEEvNS_8StackTopE
FNDA:9364,_ZN6evmone5instr4core3logILm0EEENS_6ResultENS_8StackTopElRNS_14ExecutionStateE
FNDA:8207,_ZN6evmone5instr4core3logILm1EEENS_6ResultENS_8StackTopElRNS_14ExecutionStateE
FNDA:4579,_ZN6evmone5instr4core3logILm2EEENS_6ResultENS_8StackTopElRNS_14ExecutionStateE
FNDA:6767,_ZN6evmone5instr4core3logILm3EEENS_6ResultENS_8StackTopElRNS_14ExecutionStateE
FNDA:731,_ZN6evmone5instr4core3logILm4EEENS_6ResultENS_8StackTopElRNS_14ExecutionStateE
FNF:106
FNH:90
DA:25,245218797
DA:26,245218797
DA:29,0
DA:34,30597077
DA:37,144441534
DA:41,113273209
DA:44,128629533
DA:67,2034058
DA:68,2034058
DA:69,2034058
DA:73,166596
DA:74,166596
DA:75,166596
DA:76,166596
DA:87,1807518
DA:91,1807518
DA:92,1807518
DA:93,1807518
DA:94,1807518
DA:95,1807518
DA:97,1807518
DA:98,1807518
DA:99,1803642
DA:100,1807518
DA:101,1807518
DA:106,25120369
DA:110,25120369
DA:111,1116
DA:113,25119253
DA:114,25119253
DA:115,1807518
DA:117,25119253
DA:118,25120369
DA:123,9057554
DA:124,9057554
DA:125,4640921
DA:130,4416633
DA:131,1706
DA:133,4414927
DA:134,4416633
DA:147,28400137
DA:154,1408636
DA:155,1408636
DA:156,1408636
DA:161,15690783
DA:162,15690783
DA:163,15690783
DA:166,236914
DA:167,236914
DA:168,236914
DA:171,3127745
DA:172,3127745
DA:173,3127745
DA:176,46598
DA:177,46598
DA:178,46598
DA:179,46598
DA:182,4014
DA:183,4014
DA:184,4014
DA:185,4014
DA:188,155007
DA:189,155007
DA:190,155007
DA:191,155007
DA:194,3514
DA:195,3514
DA:196,3514
DA:197,3514
DA:200,2000
DA:201,2000
DA:202,2000
DA:203,2000
DA:204,2000
DA:205,2000
DA:208,2274
DA:209,2274
DA:210,2274
DA:211,2274
DA:212,2274
DA:213,2274
DA:216,37166
DA:217,37166
DA:218,37166
DA:220,37166
DA:221,37166
DA:222,37166
DA:223,37166
DA:224,37166
DA:225,0
DA:227,37166
DA:228,37166
DA:229,37166
DA:232,2524
DA:233,2524
DA:234,2524
DA:236,2524
DA:237,1060
DA:238,1060
DA:239,1060
DA:240,1060
DA:241,1060
DA:242,1060
DA:244,1060
DA:245,1060
DA:248,1060
DA:249,1060
DA:251,1060
DA:252,1060
DA:253,1060
DA:257,1060
DA:259,4216
DA:260,3156
DA:261,1060
DA:262,2524
DA:265,2941140
DA:266,2941140
DA:267,2941140
DA:268,2941140
DA:271,394197
DA:272,394197
DA:273,394197
DA:274,394197
DA:277,6512
DA:278,6512
DA:279,6512
DA:280,6512
DA:283,6152
DA:284,6152
DA:285,6152
DA:286,6152
DA:289,825115
DA:290,825115
DA:291,825115
DA:294,5107078
DA:295,5107078
DA:296,5107078
DA:299,128355
DA:300,128355
DA:301,128355
DA:304,51782
DA:305,51782
DA:306,51782
DA:309,1616
DA:310,1616
DA:311,1616
DA:314,70306
DA:315,70306
DA:316,70306
DA:319,78242
DA:320,78242
DA:321,78242
DA:323,78242
DA:324,78242
DA:326,78242
DA:327,78242
DA:328,78242
DA:329,78242
DA:330,78242
DA:331,78242
DA:334,3468550
DA:335,3468550
DA:336,3468550
DA:339,18596
DA:340,18596
DA:341,18596
DA:344,8244
DA:345,8244
DA:346,8244
DA:348,8244
DA:349,8244
DA:351,8244
DA:352,8244
DA:353,8244
DA:356,2814
DA:357,2814
DA:358,2814
DA:361,15525
DA:362,15525
DA:363,15525
DA:365,15525
DA:366,2196
DA:368,13329
DA:369,13329
DA:370,13329
DA:371,13329
DA:372,13329
DA:373,600
DA:375,12729
DA:376,12729
DA:377,12729
DA:378,13329
DA:382,56896
DA:383,56896
DA:384,56896
DA:387,7837
DA:388,7837
DA:389,7837
DA:391,7837
DA:392,1560
DA:393,1560
DA:394,12
DA:395,1560
DA:397,7825
DA:398,7825
DA:399,7837
DA:402,23610
DA:403,23610
DA:404,23610
DA:407,269585
DA:408,269585
DA:409,269585
DA:412,24900
DA:413,24900
DA:414,24900
DA:417,1822683
DA:418,1822683
DA:420,1822683
DA:421,8084
DA:422,1814599
DA:423,1814599
DA:424,1814599
DA:425,1814599
DA:427,1814599
DA:428,50406693
DA:429,48592094
DA:431,1814599
DA:432,1814599
DA:433,1822683
DA:436,107551
DA:437,107551
DA:438,107551
DA:441,121246
DA:442,121246
DA:443,121246
DA:444,121246
DA:446,121246
DA:447,108
DA:449,121138
DA:450,121138
DA:451,121138
DA:452,121138
DA:453,121138
DA:455,121138
DA:456,6
DA:458,121132
DA:459,113235
DA:461,121132
DA:462,7315
DA:464,121132
DA:465,121138
DA:468,21244
DA:469,21244
DA:470,21244
DA:473,23244
DA:476,23244
DA:477,23244
DA:478,23244
DA:480,23244
DA:481,108
DA:483,23136
DA:484,23136
DA:485,23136
DA:486,23136
DA:487,23136
DA:489,23136
DA:490,6
DA:493,23130
DA:494,22808
DA:496,23130
DA:497,876
DA:499,23130
DA:500,23136
DA:504,13406
DA:505,13406
DA:506,13406
DA:509,520
DA:510,520
DA:511,520
DA:514,2858
DA:515,2858
DA:516,2858
DA:518,2858
DA:519,2079
DA:520,2858
DA:521,2858
DA:524,12754
DA:525,12754
DA:526,12754
DA:529,470560
DA:530,470560
DA:531,470560
DA:533,470560
DA:534,4781
DA:535,4781
DA:536,156
DA:537,4781
DA:539,470404
DA:540,470404
DA:541,470560
DA:544,12840
DA:545,12840
DA:546,12840
DA:547,12840
DA:548,12840
DA:550,12840
DA:551,96
DA:553,12744
DA:554,12744
DA:555,18
DA:557,12726
DA:558,1038
DA:559,1038
DA:560,6
DA:561,1038
DA:563,12720
DA:564,12532
DA:565,12532
DA:566,12532
DA:567,12532
DA:568,12532
DA:569,12532
DA:570,1417
DA:571,12532
DA:573,12720
DA:574,12726
DA:577,0
DA:578,0
DA:580,0
DA:581,0
DA:582,0
DA:583,0
DA:584,0
DA:585,0
DA:587,0
DA:588,0
DA:589,0
DA:591,0
DA:592,0
DA:593,0
DA:596,58573
DA:597,58573
DA:598,58573
DA:601,8891
DA:602,8891
DA:603,8891
DA:604,8891
DA:606,8891
DA:607,204
DA:609,8687
DA:610,8687
DA:612,8687
DA:613,0
DA:614,0
DA:615,0
DA:616,0
DA:618,0
DA:619,0
DA:621,0
DA:622,0
DA:624,0
DA:625,0
DA:626,0
DA:627,8687
DA:628,8687
DA:629,8687
DA:630,252
DA:631,8435
DA:633,8435
DA:634,234
DA:636,8201
DA:637,6
DA:639,8195
DA:640,6712
DA:641,8195
DA:643,8195
DA:644,8687
DA:647,3337
DA:648,3337
DA:649,3337
DA:651,3337
DA:652,801
DA:653,801
DA:654,6
DA:655,801
DA:657,3331
DA:658,3331
DA:659,3337
DA:663,69778
DA:664,69778
DA:666,69778
DA:667,69778
DA:668,69778
DA:669,69778
DA:670,69778
DA:671,69778
DA:672,69778
DA:675,14918
DA:676,14918
DA:677,14918
DA:680,147095
DA:682,147095
DA:683,147095
DA:686,133373
DA:688,133373
DA:689,133373
DA:692,13776
DA:693,13776
DA:694,13776
DA:697,15240
DA:698,15240
DA:699,15240
DA:702,414
DA:703,414
DA:704,414
DA:707,1526
DA:709,1526
DA:710,1526
DA:713,11969002
DA:714,11969002
DA:716,11969002
DA:717,666
DA:719,11968336
DA:720,11968336
DA:721,11969002
DA:724,8580910
DA:725,8580910
DA:726,8580910
DA:728,8580910
DA:729,698
DA:731,8580212
DA:732,8580212
DA:733,8580910
DA:736,155530
DA:737,155530
DA:738,155530
DA:740,155530
DA:741,612
DA:743,154918
DA:744,154918
DA:745,155530
DA:753,6960688
DA:754,6960688
DA:755,6960688
DA:756,3110
DA:757,3110
DA:758,3110
DA:759,3110
DA:761,6957578
DA:762,6960688
DA:766,5332052
DA:767,5332052
DA:768,5332052
DA:772,6931134
DA:773,6931134
DA:774,6931134
DA:775,6931134
DA:776,6931134
DA:779,0
DA:781,0
DA:782,0
DA:783,0
DA:786,0
DA:787,0
DA:788,0
DA:789,0
DA:792,0
DA:793,0
DA:794,0
DA:796,0
DA:797,0
DA:799,0
DA:800,0
DA:801,0
DA:802,0
DA:803,0
DA:804,0
DA:805,0
DA:806,0
DA:808,0
DA:809,0
DA:810,0
DA:813,5498348
DA:814,5498348
DA:815,5498348
DA:816,5498348
DA:819,16590
DA:820,16590
DA:821,16590
DA:824,16581249
DA:825,16581249
DA:826,16581249
DA:827,16581249
DA:830,1890161
DA:831,1890161
DA:832,1890161
DA:833,1890161
DA:834,1890161
DA:835,1890161
DA:838,9079278
DA:839,9079278
DA:840,84
DA:842,9079194
DA:843,9079194
DA:844,9079194
DA:845,9079194
DA:846,9079278
DA:849,1156630
DA:850,1156630
DA:851,1156630
DA:856,590687
DA:857,590687
DA:860,590687
DA:861,590687
DA:865,76292635
DA:866,76292635
DA:867,76292635
DA:871,10185178
DA:872,10185178
DA:873,10185178
DA:877,1428599
DA:879,1428599
DA:880,1428599
DA:884,2427034
DA:885,2427034
DA:886,2427034
DA:894,91352839
DA:895,91352839
DA:896,91352839
DA:897,91352839
DA:899,91352839
DA:900,91352839
DA:901,91352839
DA:905,90924133
DA:906,90924133
DA:907,90924133
DA:908,90924133
DA:912,3446327
DA:913,10973939
DA:914,7527612
DA:915,7527612
DA:916,7527612
DA:917,7527612
DA:918,3446327
DA:920,91352839
DA:921,91352839
DA:927,8937051
DA:928,8937051
DA:929,8937051
DA:930,8937051
DA:936,1570735
DA:937,1570735
DA:943,1570735
DA:944,1570735
DA:945,1570735
DA:946,1570735
DA:947,1570735
DA:948,1570735
DA:949,1570735
DA:950,1570735
DA:951,1570735
DA:952,1570735
DA:953,1570735
DA:954,1570735
DA:957,0
DA:958,0
DA:959,0
DA:960,0
DA:963,0
DA:965,0
DA:966,0
DA:967,0
DA:970,0
DA:971,0
DA:972,0
DA:974,0
DA:975,0
DA:976,0
DA:979,1527
DA:980,1527
DA:981,1527
DA:982,1527
DA:984,1527
DA:985,150
DA:987,1377
DA:988,1377
DA:989,1377
DA:991,1377
DA:992,72
DA:994,1305
DA:995,1125
DA:997,1305
DA:998,1377
DA:1001,0
DA:1002,0
DA:1003,0
DA:1005,0
DA:1006,0
DA:1007,0
DA:1008,0
DA:1009,0
DA:1010,0
DA:1012,0
DA:1013,0
DA:1014,0
DA:1016,0
DA:1017,0
DA:1018,0
DA:1021,0
DA:1022,0
DA:1023,0
DA:1026,0
DA:1027,0
DA:1029,0
DA:1030,0
DA:1031,0
DA:1034,0
DA:1035,0
DA:1036,0
DA:1037,0
DA:1038,0
DA:1040,0
DA:1041,0
DA:1043,0
DA:1045,0
DA:1046,0
DA:1047,0
DA:1049,0
DA:1050,0
DA:1052,0
DA:1053,0
DA:1055,0
DA:1056,0
DA:1058,0
DA:1059,0
DA:1063,29648
DA:1064,29648
DA:1066,29648
DA:1067,215
DA:1069,29433
DA:1070,29433
DA:1072,29433
DA:1073,536
DA:1075,28897
DA:1076,28897
DA:1078,28897
DA:1079,28897
DA:1080,14
DA:1082,28883
DA:1083,28883
DA:1084,39372
DA:1086,28883
DA:1087,28883
DA:1088,28883
DA:1089,28897
DA:1117,0
DA:1118,0
DA:1119,0
DA:1120,0
DA:1121,0
DA:1122,0
DA:1123,0
DA:1124,0
DA:1125,0
DA:1126,0
DA:1128,0
DA:1129,0
DA:1131,0
DA:1132,0
DA:1133,0
DA:1134,0
DA:1136,0
DA:1137,0
DA:1138,0
DA:1141,0
DA:1142,0
DA:1143,0
DA:1144,0
DA:1145,0
DA:1148,0
DA:1149,0
DA:1150,0
DA:1151,0
DA:1152,0
DA:1153,0
DA:1154,0
DA:1155,0
DA:1156,0
DA:1157,0
DA:1159,0
DA:1160,0
DA:1161,0
DA:1165,551303
DA:1166,551303
DA:1167,551303
DA:1169,551303
DA:1170,198
DA:1172,551105
DA:1173,551105
DA:1174,455833
DA:1175,551105
DA:1176,551303
DA:1182,0
DA:1183,0
DA:1184,0
DA:1186,0
DA:1187,0
DA:1189,0
DA:1190,0
DA:1191,0
DA:1194,0
DA:1195,0
DA:1196,0
DA:1198,0
DA:1200,0
DA:1201,0
DA:1204,7750
DA:1205,7750
DA:1206,441
DA:1208,7309
DA:1210,7309
DA:1211,2132
DA:1212,2132
DA:1213,12
DA:1214,2132
DA:1216,7297
DA:1217,7250
DA:1218,7250
DA:1219,3486
DA:1222,3486
DA:1223,771
DA:1224,771
DA:1225,24
DA:1226,771
DA:1227,3486
DA:1228,7250
DA:1230,7273
DA:1231,4142
DA:1232,4142
DA:1233,162
DA:1234,4142
DA:1235,7273
DA:1236,7297
DA:1254,710740107
BRDA:98,0,0,1803642
BRDA:98,0,1,3876
BRDA:110,0,0,480
BRDA:110,0,1,25119889
BRDA:110,1,2,636
BRDA:110,1,3,25119253
BRDA:114,0,0,1807518
BRDA:114,0,1,23311735
BRDA:124,0,0,4640921
BRDA:124,0,1,4416633
BRDA:130,0,0,622
BRDA:130,0,1,4416011
BRDA:130,1,2,1084
BRDA:130,1,3,4414927
BRDA:178,0,0,46532
BRDA:178,0,1,66
BRDA:184,0,0,3924
BRDA:184,0,1,90
BRDA:190,0,0,154941
BRDA:190,0,1,66
BRDA:196,0,0,3442
BRDA:196,0,1,72
BRDA:204,0,0,1748
BRDA:204,0,1,252
BRDA:212,0,0,2034
BRDA:212,0,1,240
BRDA:222,0,0,37080
BRDA:222,0,1,86
BRDA:224,0,0,0
BRDA:224,0,1,37166
BRDA:236,0,0,1060
BRDA:236,0,1,1464
BRDA:259,0,0,3156
BRDA:259,0,1,1060
BRDA:324,0,0,78162
BRDA:324,0,1,80
BRDA:349,0,0,2328
BRDA:349,0,1,5916
BRDA:351,0,0,3298
BRDA:351,0,1,4946
BRDA:365,0,0,2196
BRDA:365,0,1,13329
BRDA:372,0,0,600
BRDA:372,0,1,12729
BRDA:375,0,0,11928
BRDA:375,0,1,801
BRDA:391,0,0,7664
BRDA:391,0,1,173
BRDA:391,1,2,1560
BRDA:391,1,3,6104
BRDA:393,0,0,12
BRDA:393,0,1,1548
BRDA:420,0,0,8084
BRDA:420,0,1,1814599
BRDA:428,0,0,48592094
BRDA:428,0,1,1814599
BRDA:446,0,0,108
BRDA:446,0,1,121138
BRDA:450,0,0,234
BRDA:450,0,1,120904
BRDA:455,0,0,6
BRDA:455,0,1,121132
BRDA:458,0,0,113235
BRDA:458,0,1,7897
BRDA:461,0,0,7315
BRDA:461,0,1,113817
BRDA:480,0,0,108
BRDA:480,0,1,23136
BRDA:485,0,0,186
BRDA:485,0,1,22950
BRDA:489,0,0,6
BRDA:489,0,1,23130
BRDA:493,0,0,22808
BRDA:493,0,1,322
BRDA:496,0,0,876
BRDA:496,0,1,22254
BRDA:518,0,0,2079
BRDA:518,0,1,779
BRDA:533,0,0,468215
BRDA:533,0,1,2345
BRDA:533,1,2,4781
BRDA:533,1,3,463434
BRDA:535,0,0,156
BRDA:535,0,1,4625
BRDA:550,0,0,96
BRDA:550,0,1,12744
BRDA:554,0,0,18
BRDA:554,0,1,12726
BRDA:557,0,0,11255
BRDA:557,0,1,1471
BRDA:557,1,2,1038
BRDA:557,1,3,10217
BRDA:559,0,0,6
BRDA:559,0,1,1032
BRDA:563,0,0,12532
BRDA:563,0,1,188
BRDA:566,0,0,66
BRDA:566,0,1,12466
BRDA:569,0,0,1417
BRDA:569,0,1,11115
BRDA:580,0,0,-
BRDA:580,0,1,-
BRDA:588,0,0,-
BRDA:588,0,1,-
BRDA:606,0,0,204
BRDA:606,0,1,8687
BRDA:612,0,0,0
BRDA:612,0,1,8687
BRDA:614,0,0,-
BRDA:614,0,1,-
BRDA:618,0,0,-
BRDA:618,0,1,-
BRDA:621,0,0,-
BRDA:621,0,1,-
BRDA:624,0,0,-
BRDA:624,0,1,-
BRDA:629,0,0,252
BRDA:629,0,1,8435
BRDA:633,0,0,234
BRDA:633,0,1,8201
BRDA:636,0,0,6
BRDA:636,0,1,8195
BRDA:639,0,0,6712
BRDA:639,0,1,1483
BRDA:651,0,0,3251
BRDA:651,0,1,86
BRDA:651,1,2,801
BRDA:651,1,3,2450
BRDA:653,0,0,6
BRDA:653,0,1,795
BRDA:670,0,0,69716
BRDA:670,0,1,62
BRDA:670,1,2,69647
BRDA:670,1,3,69
BRDA:716,0,0,666
BRDA:716,0,1,11968336
BRDA:728,0,0,698
BRDA:728,0,1,8580212
BRDA:740,0,0,612
BRDA:740,0,1,154918
BRDA:755,0,0,12
BRDA:755,0,1,6960676
BRDA:755,1,2,3098
BRDA:755,1,3,6957578
BRDA:775,0,0,1628636
BRDA:775,0,1,5302498
BRDA:788,0,0,-
BRDA:788,0,1,-
BRDA:799,0,0,-
BRDA:799,0,1,-
BRDA:839,0,0,84
BRDA:839,0,1,9079194
BRDA:913,0,0,89964
BRDA:913,0,1,44982
BRDA:913,1,2,4476988
BRDA:913,1,3,2238494
BRDA:913,2,4,61404
BRDA:913,2,5,30702
BRDA:913,3,6,132400
BRDA:913,3,7,66200
BRDA:913,4,8,42448
BRDA:913,4,9,21224
BRDA:913,5,10,96988
BRDA:913,5,11,48494
BRDA:913,6,12,29026
BRDA:913,6,13,29026
BRDA:913,7,14,34094
BRDA:913,7,15,34094
BRDA:913,8,16,38777
BRDA:913,8,17,38777
BRDA:913,9,18,40466
BRDA:913,9,19,40466
BRDA:913,10,20,28814
BRDA:913,10,21,28814
BRDA:913,11,22,34692
BRDA:913,11,23,34692
BRDA:913,12,24,40376
BRDA:913,12,25,40376
BRDA:913,13,26,47306
BRDA:913,13,27,47306
BRDA:913,14,28,74688
BRDA:913,14,29,37344
BRDA:913,15,30,75862
BRDA:913,15,31,37931
BRDA:913,16,32,95406
BRDA:913,16,33,31802
BRDA:913,17,34,90396
BRDA:913,17,35,30132
BRDA:913,18,36,123093
BRDA:913,18,37,41031
BRDA:913,19,38,126192
BRDA:913,19,39,42064
BRDA:913,20,40,86112
BRDA:913,20,41,28704
BRDA:913,21,42,103104
BRDA:913,21,43,34368
BRDA:913,22,44,74826
BRDA:913,22,45,24942
BRDA:913,23,46,279774
BRDA:913,23,47,93258
BRDA:913,24,48,1204416
BRDA:913,24,49,301104
BRDA:984,0,0,150
BRDA:984,0,1,1377
BRDA:991,0,0,72
BRDA:991,0,1,1305
BRDA:994,0,0,1125
BRDA:994,0,1,180
BRDA:1005,0,0,-
BRDA:1005,0,1,-
BRDA:1013,0,0,-
BRDA:1013,0,1,-
BRDA:1040,0,0,-
BRDA:1040,0,1,-
BRDA:1045,0,0,-
BRDA:1045,0,1,-
BRDA:1049,0,0,-
BRDA:1049,0,1,-
BRDA:1052,0,0,-
BRDA:1052,0,1,-
BRDA:1055,0,0,-
BRDA:1055,0,1,-
BRDA:1066,0,0,6
BRDA:1066,0,1,6761
BRDA:1066,1,2,6
BRDA:1066,1,3,4573
BRDA:1066,2,4,36
BRDA:1066,2,5,8171
BRDA:1066,3,6,161
BRDA:1066,3,7,9203
BRDA:1066,4,8,6
BRDA:1066,4,9,725
BRDA:1072,0,0,108
BRDA:1072,0,1,6653
BRDA:1072,1,2,114
BRDA:1072,1,3,4459
BRDA:1072,2,4,90
BRDA:1072,2,5,9113
BRDA:1072,3,6,112
BRDA:1072,3,7,613
BRDA:1072,4,8,112
BRDA:1072,4,9,8059
BRDA:1079,0,0,0
BRDA:1079,0,1,4459
BRDA:1079,1,2,4
BRDA:1079,1,3,8055
BRDA:1079,2,4,4
BRDA:1079,2,5,6649
BRDA:1079,3,6,6
BRDA:1079,3,7,9107
BRDA:1079,4,8,0
BRDA:1079,4,9,613
BRDA:1083,0,0,8055
BRDA:1083,0,1,8055
BRDA:1083,1,2,0
BRDA:1083,1,3,9107
BRDA:1083,2,4,8918
BRDA:1083,2,5,4459
BRDA:1083,3,6,19947
BRDA:1083,3,7,6649
BRDA:1083,4,8,2452
BRDA:1083,4,9,613
BRDA:1086,0,0,9053
BRDA:1086,0,1,54
BRDA:1086,1,2,565
BRDA:1086,1,3,48
BRDA:1086,2,4,7995
BRDA:1086,2,5,60
BRDA:1086,3,6,4375
BRDA:1086,3,7,84
BRDA:1086,4,8,6591
BRDA:1086,4,9,58
BRDA:1122,0,0,-
BRDA:1122,0,1,-
BRDA:1128,0,0,-
BRDA:1128,0,1,-
BRDA:1153,0,0,-
BRDA:1153,0,1,-
BRDA:1169,0,0,84
BRDA:1169,0,1,25237
BRDA:1169,1,2,114
BRDA:1169,1,3,525868
BRDA:1173,0,0,431557
BRDA:1173,0,1,94311
BRDA:1173,1,2,24276
BRDA:1173,1,3,961
BRDA:1186,0,0,-
BRDA:1186,0,1,-
BRDA:1194,0,0,-
BRDA:1194,0,1,-
BRDA:1205,0,0,441
BRDA:1205,0,1,7309
BRDA:1210,0,0,7159
BRDA:1210,0,1,150
BRDA:1210,1,2,2132
BRDA:1210,1,3,5027
BRDA:1212,0,0,12
BRDA:1212,0,1,2120
BRDA:1216,0,0,7250
BRDA:1216,0,1,47
BRDA:1218,0,0,3486
BRDA:1218,0,1,3764
BRDA:1218,1,2,0
BRDA:1218,1,3,7250
BRDA:1218,2,4,3486
BRDA:1218,2,5,3764
BRDA:1222,0,0,771
BRDA:1222,0,1,2715
BRDA:1224,0,0,24
BRDA:1224,0,1,747
BRDA:1230,0,0,4142
BRDA:1230,0,1,3131
BRDA:1232,0,0,162
BRDA:1232,0,1,3980
BRF:222
BRH:179
LF:743
LH:585
end_of_record
SF:/home/builder/project/lib/evmone/instructions_calls.cpp
FN:79,_ZN6evmone5instr4core9call_implILNS_6OpcodeE241EEENS_6ResultENS_8StackTopElRNS_14ExecutionStateE
FN:79,_ZN6evmone5instr4core9call_implILNS_6OpcodeE250EEENS_6ResultENS_8StackTopElRNS_14ExecutionStateE
FN:79,_ZN6evmone5instr4core9call_implILNS_6OpcodeE244EEENS_6ResultENS_8StackTopElRNS_14ExecutionStateE
FN:79,_ZN6evmone5instr4core9call_implILNS_6OpcodeE242EEENS_6ResultENS_8StackTopElRNS_14ExecutionStateE
FN:197,_ZN6evmone5instr4core12extcall_implILNS_6OpcodeE248EEENS_6ResultENS_8StackTopElRNS_14ExecutionStateE
FN:197,_ZN6evmone5instr4core12extcall_implILNS_6OpcodeE251EEENS_6ResultENS_8StackTopElRNS_14ExecutionStateE
FN:197,_ZN6evmone5instr4core12extcall_implILNS_6OpcodeE249EEENS_6ResultENS_8StackTopElRNS_14ExecutionStateE
FN:317,_ZN6evmone5instr4core11create_implILNS_6OpcodeE240EEENS_6ResultENS_8StackTopElRNS_14ExecutionStateE
FN:317,_ZN6evmone5instr4core11create_implILNS_6OpcodeE245EEENS_6ResultENS_8StackTopElRNS_14ExecutionStateE
FN:389,_ZN6evmone5instr4core15create_eof_implILNS_6OpcodeE236EEENS_6ResultENS_8StackTopElRNS_14ExecutionStateERPKh
FN:389,_ZN6evmone5instr4core15create_eof_implILNS_6OpcodeE237EEENS_6ResultENS_8StackTopElRNS_14ExecutionStateERPKh
FN:29,instructions_calls.cpp:_ZN6evmone5instr4core12_GLOBAL__N_118get_target_addressERKN4evmc7addressERlRNS_14ExecutionStateE
FNDA:875830,_ZN6evmone5instr4core9call_implILNS_6OpcodeE241EEENS_6ResultENS_8StackTopElRNS_14ExecutionStateE
FNDA:3064372,_ZN6evmone5instr4core9call_implILNS_6OpcodeE250EEENS_6ResultENS_8StackTopElRNS_14ExecutionStateE
FNDA:101340,_ZN6evmone5instr4core9call_implILNS_6OpcodeE244EEENS_6ResultENS_8StackTopElRNS_14ExecutionStateE
FNDA:82986,_ZN6evmone5instr4core9call_implILNS_6OpcodeE242EEENS_6ResultENS_8StackTopElRNS_14ExecutionStateE
FNDA:0,_ZN6evmone5instr4core12extcall_implILNS_6OpcodeE248EEENS_6ResultENS_8StackTopElRNS_14ExecutionStateE
FNDA:0,_ZN6evmone5instr4core12extcall_implILNS_6OpcodeE251EEENS_6ResultENS_8StackTopElRNS_14ExecutionStateE
FNDA:0,_ZN6evmone5instr4core12extcall_implILNS_6OpcodeE249EEENS_6ResultENS_8StackTopElRNS_14ExecutionStateE
FNDA:21959,_ZN6evmone5instr4core11create_implILNS_6OpcodeE240EEENS_6ResultENS_8StackTopElRNS_14ExecutionStateE
FNDA:25020,_ZN6evmone5instr4core11create_implILNS_6OpcodeE245EEENS_6ResultENS_8StackTopElRNS_14ExecutionStateE
FNDA:0,_ZN6evmone5instr4core15create_eof_implILNS_6OpcodeE236EEENS_6ResultENS_8StackTopElRNS_14ExecutionStateERPKh
FNDA:0,_ZN6evmone5instr4core15create_eof_implILNS_6OpcodeE237EEENS_6ResultENS_8StackTopElRNS_14ExecutionStateERPKh
FNDA:4123634,instructions_calls.cpp:_ZN6evmone5instr4core12_GLOBAL__N_118get_target_addressERKN4evmc7addressERlRNS_14ExecutionStateE
FNF:5
FNH:3
DA:29,4123634
DA:30,4123634
DA:31,1787045
DA:33,2336589
DA:34,2336589
DA:35,2331701
DA:37,4888
DA:38,4888
DA:39,330
DA:40,4888
DA:42,4888
DA:43,18
DA:45,4870
DA:46,4888
DA:79,4124528
DA:80,4124528
DA:81,4124528
DA:83,4124528
DA:84,4124528
DA:85,4124528
DA:86,4124528
DA:87,4124528
DA:88,4124528
DA:89,4124528
DA:90,4124528
DA:92,4124528
DA:93,4124528
DA:95,4124528
DA:96,185712
DA:97,185712
DA:98,894
DA:99,185712
DA:101,4123634
DA:102,4123634
DA:103,18
DA:105,4123616
DA:107,4123616
DA:108,604
DA:110,4123012
DA:111,276
DA:113,4122736
DA:114,4122736
DA:115,4122736
DA:116,4122736
DA:118,4122736
DA:119,4122736
DA:120,4122736
DA:121,4846
DA:122,4117890
DA:123,4117890
DA:124,4122736
DA:125,4122736
DA:126,4122736
DA:127,4122736
DA:128,4122736
DA:129,4122736
DA:131,4122736
DA:132,3066570
DA:134,3066570
DA:135,3066570
DA:136,3066570
DA:138,4122736
DA:141,875392
DA:142,875392
DA:143,180
DA:145,875212
DA:146,971
DA:147,875212
DA:149,4122736
DA:150,122
DA:152,4122614
DA:153,4122614
DA:154,4116998
DA:156,4122614
DA:157,4110939
DA:158,11675
DA:159,74
DA:161,4122540
DA:162,101137
DA:163,101137
DA:164,101137
DA:165,101137
DA:167,4122540
DA:168,150
DA:170,4122390
DA:171,745
DA:173,4121645
DA:174,4121645
DA:175,4121645
DA:177,4121645
DA:178,135687
DA:180,4121645
DA:181,4121645
DA:182,4121645
DA:183,4121645
DA:184,4122390
DA:197,0
DA:198,0
DA:200,0
DA:201,0
DA:202,0
DA:203,0
DA:204,0
DA:206,0
DA:207,0
DA:210,0
DA:211,0
DA:212,0
DA:214,0
DA:216,0
DA:217,0
DA:218,0
DA:219,0
DA:220,0
DA:222,0
DA:223,0
DA:224,0
DA:226,0
DA:228,0
DA:229,0
DA:231,0
DA:232,0
DA:234,0
DA:235,0
DA:236,0
DA:237,0
DA:238,0
DA:239,0
DA:240,0
DA:241,0
DA:242,0
DA:243,0
DA:244,0
DA:245,0
DA:247,0
DA:248,0
DA:250,0
DA:251,0
DA:252,0
DA:254,0
DA:257,0
DA:258,0
DA:259,0
DA:261,0
DA:262,0
DA:263,0
DA:265,0
DA:266,0
DA:268,0
DA:270,0
DA:271,0
DA:272,0
DA:273,0
DA:274,0
DA:275,0
DA:276,0
DA:279,0
DA:283,0
DA:284,0
DA:285,0
DA:286,0
DA:287,0
DA:288,0
DA:289,0
DA:290,0
DA:291,0
DA:293,0
DA:294,0
DA:295,0
DA:296,0
DA:297,0
DA:298,0
DA:299,0
DA:300,0
DA:302,0
DA:303,0
DA:304,0
DA:305,0
DA:306,0
DA:317,46979
DA:318,46979
DA:320,46979
DA:321,62
DA:323,46917
DA:324,46917
DA:325,46917
DA:326,46917
DA:328,46917
DA:329,46917
DA:331,46917
DA:332,246
DA:334,46671
DA:335,46671
DA:337,46671
DA:338,56
DA:340,46615
DA:341,46615
DA:342,46615
DA:343,60
DA:345,46555
DA:346,12
DA:348,46543
DA:349,46543
DA:350,72
DA:352,46471
DA:353,46471
DA:354,46471
DA:355,45205
DA:357,46471
DA:358,45841
DA:360,45841
DA:361,45841
DA:363,45841
DA:364,0
DA:366,0
DA:367,0
DA:368,0
DA:369,45841
DA:370,46471
DA:371,46471
DA:372,46471
DA:373,46471
DA:375,46471
DA:376,46471
DA:377,46471
DA:379,46471
DA:380,46471
DA:381,44641
DA:383,46471
DA:384,46471
DA:389,0
DA:390,0
DA:392,0
DA:393,0
DA:395,0
DA:396,0
DA:397,0
DA:398,0
DA:399,0
DA:400,0
DA:402,0
DA:403,0
DA:405,0
DA:406,0
DA:408,0
DA:409,0
DA:411,0
DA:412,0
DA:414,0
DA:415,0
DA:416,0
DA:418,0
DA:420,0
DA:421,0
DA:422,0
DA:423,0
DA:424,0
DA:427,0
DA:428,0
DA:430,0
DA:431,0
DA:432,0
DA:434,0
DA:435,0
DA:436,0
DA:437,0
DA:438,0
DA:439,0
DA:441,0
DA:442,0
DA:443,0
DA:445,0
DA:446,0
DA:448,0
DA:449,0
DA:450,0
DA:451,0
DA:453,0
DA:454,0
DA:455,0
DA:457,0
DA:458,0
DA:459,0
DA:460,0
DA:462,0
DA:463,0
DA:465,0
DA:466,0
DA:467,0
DA:469,0
DA:470,0
DA:471,0
DA:473,0
DA:474,0
BRDA:30,0,0,1787045
BRDA:30,0,1,2336589
BRDA:34,0,0,2331701
BRDA:34,0,1,4888
BRDA:38,0,0,330
BRDA:38,0,1,4558
BRDA:42,0,0,18
BRDA:42,0,1,4870
BRDA:85,0,0,0
BRDA:85,0,1,875830
BRDA:85,1,2,0
BRDA:85,1,3,82986
BRDA:85,2,4,0
BRDA:85,2,5,101340
BRDA:85,3,6,3064372
BRDA:85,3,7,0
BRDA:85,4,8,0
BRDA:85,4,9,875830
BRDA:85,5,10,0
BRDA:85,5,11,82986
BRDA:85,6,12,101340
BRDA:85,6,13,0
BRDA:85,7,14,-
BRDA:85,7,15,-
BRDA:95,0,0,99968
BRDA:95,0,1,1372
BRDA:95,1,2,80816
BRDA:95,1,3,2170
BRDA:95,2,4,3063278
BRDA:95,2,5,1094
BRDA:95,3,6,832803
BRDA:95,3,7,43027
BRDA:95,4,8,103242
BRDA:95,4,9,729561
BRDA:95,5,10,30962
BRDA:95,5,11,69006
BRDA:95,6,12,20026
BRDA:95,6,13,3043252
BRDA:95,7,14,31482
BRDA:95,7,15,49334
BRDA:97,0,0,198
BRDA:97,0,1,103044
BRDA:97,1,2,168
BRDA:97,1,3,30794
BRDA:97,2,4,168
BRDA:97,2,5,19858
BRDA:97,3,6,360
BRDA:97,3,7,31122
BRDA:102,0,0,6
BRDA:102,0,1,875626
BRDA:102,1,2,4
BRDA:102,1,3,101168
BRDA:102,2,4,4
BRDA:102,2,5,3064200
BRDA:102,3,6,4
BRDA:102,3,7,82622
BRDA:107,0,0,142
BRDA:107,0,1,3064058
BRDA:107,1,2,168
BRDA:107,1,3,82454
BRDA:107,2,4,162
BRDA:107,2,5,875464
BRDA:107,3,6,132
BRDA:107,3,7,101036
BRDA:110,0,0,72
BRDA:110,0,1,875392
BRDA:110,1,2,66
BRDA:110,1,3,82388
BRDA:110,2,4,72
BRDA:110,2,5,100964
BRDA:110,3,6,66
BRDA:110,3,7,3063992
BRDA:119,0,0,3063992
BRDA:119,0,1,0
BRDA:119,1,2,0
BRDA:119,1,3,875392
BRDA:119,2,4,0
BRDA:119,2,5,100964
BRDA:119,3,6,0
BRDA:119,3,7,82388
BRDA:120,0,0,102
BRDA:120,0,1,3063890
BRDA:120,1,2,4484
BRDA:120,1,3,870908
BRDA:120,2,4,110
BRDA:120,2,5,82278
BRDA:120,3,6,150
BRDA:120,3,7,100814
BRDA:125,0,0,0
BRDA:125,0,1,100964
BRDA:125,1,2,0
BRDA:125,1,3,3063992
BRDA:125,2,4,0
BRDA:125,2,5,82388
BRDA:125,3,6,875392
BRDA:125,3,7,0
BRDA:125,4,8,-
BRDA:125,4,9,-
BRDA:125,5,10,0
BRDA:125,5,11,100964
BRDA:125,6,12,3063992
BRDA:125,6,13,0
BRDA:125,7,14,0
BRDA:125,7,15,82388
BRDA:127,0,0,100964
BRDA:127,0,1,0
BRDA:127,1,2,0
BRDA:127,1,3,3063992
BRDA:127,2,4,0
BRDA:127,2,5,82388
BRDA:127,3,6,0
BRDA:127,3,7,875392
BRDA:129,0,0,100964
BRDA:129,0,1,0
BRDA:129,1,2,0
BRDA:129,1,3,82388
BRDA:129,2,4,0
BRDA:129,2,5,875392
BRDA:129,3,6,0
BRDA:129,3,7,3063992
BRDA:131,0,0,635478
BRDA:131,0,1,239914
BRDA:131,1,2,47618
BRDA:131,1,3,34770
BRDA:131,2,4,41506
BRDA:131,2,5,59458
BRDA:131,3,6,2341968
BRDA:131,3,7,722024
BRDA:138,0,0,91191
BRDA:138,0,1,784201
BRDA:138,1,2,10248
BRDA:138,1,3,72140
BRDA:138,2,4,0
BRDA:138,2,5,100964
BRDA:138,3,6,0
BRDA:138,3,7,3063992
BRDA:142,0,0,91191
BRDA:142,0,1,784201
BRDA:142,1,2,180
BRDA:142,1,3,91011
BRDA:145,0,0,91011
BRDA:145,0,1,784201
BRDA:145,1,2,9513
BRDA:145,1,3,774688
BRDA:145,2,4,971
BRDA:145,2,5,99553
BRDA:149,0,0,0
BRDA:149,0,1,3063992
BRDA:149,1,2,24
BRDA:149,1,3,82364
BRDA:149,2,4,0
BRDA:149,2,5,100964
BRDA:149,3,6,98
BRDA:149,3,7,875294
BRDA:153,0,0,3060934
BRDA:153,0,1,3058
BRDA:153,1,2,82130
BRDA:153,1,3,234
BRDA:153,2,4,873096
BRDA:153,2,5,2198
BRDA:153,3,6,100838
BRDA:153,3,7,126
BRDA:156,0,0,100690
BRDA:156,0,1,274
BRDA:156,1,2,864509
BRDA:156,1,3,10785
BRDA:156,2,4,3063992
BRDA:156,2,5,0
BRDA:156,3,6,81748
BRDA:156,3,7,616
BRDA:158,0,0,74
BRDA:158,0,1,10711
BRDA:158,1,2,-
BRDA:158,1,3,-
BRDA:158,2,4,0
BRDA:158,2,5,616
BRDA:158,3,6,0
BRDA:158,3,7,274
BRDA:161,0,0,90913
BRDA:161,0,1,784307
BRDA:161,1,2,10224
BRDA:161,1,3,72140
BRDA:161,2,4,0
BRDA:161,2,5,100964
BRDA:161,3,6,0
BRDA:161,3,7,3063992
BRDA:167,0,0,62
BRDA:167,0,1,875158
BRDA:167,1,2,4
BRDA:167,1,3,82360
BRDA:167,2,4,28
BRDA:167,2,5,100936
BRDA:167,3,6,56
BRDA:167,3,7,3063936
BRDA:170,0,0,10220
BRDA:170,0,1,72140
BRDA:170,1,2,134
BRDA:170,1,3,82226
BRDA:170,2,4,611
BRDA:170,2,5,874547
BRDA:170,3,6,90869
BRDA:170,3,7,784289
BRDA:170,4,8,0
BRDA:170,4,9,3063936
BRDA:170,5,10,0
BRDA:170,5,11,100936
BRDA:170,6,12,0
BRDA:170,6,13,100936
BRDA:170,7,14,0
BRDA:170,7,15,3063936
BRDA:170,8,16,-
BRDA:170,8,17,-
BRDA:170,9,18,134
BRDA:170,9,19,10086
BRDA:170,10,20,611
BRDA:170,10,21,90258
BRDA:170,11,22,-
BRDA:170,11,23,-
BRDA:177,0,0,9271
BRDA:177,0,1,72955
BRDA:177,1,2,23097
BRDA:177,1,3,3040839
BRDA:177,2,4,4161
BRDA:177,2,5,96775
BRDA:177,3,6,99158
BRDA:177,3,7,775389
BRDA:203,0,0,-
BRDA:203,0,1,-
BRDA:203,1,2,-
BRDA:203,1,3,-
BRDA:203,2,4,-
BRDA:203,2,5,-
BRDA:203,3,6,-
BRDA:203,3,7,-
BRDA:203,4,8,-
BRDA:203,4,9,-
BRDA:203,5,10,-
BRDA:203,5,11,-
BRDA:211,0,0,-
BRDA:211,0,1,-
BRDA:211,1,2,-
BRDA:211,1,3,-
BRDA:211,2,4,-
BRDA:211,2,5,-
BRDA:216,0,0,-
BRDA:216,0,1,-
BRDA:216,1,2,-
BRDA:216,1,3,-
BRDA:216,2,4,-
BRDA:216,2,5,-
BRDA:218,0,0,-
BRDA:218,0,1,-
BRDA:218,1,2,-
BRDA:218,1,3,-
BRDA:218,2,4,-
BRDA:218,2,5,-
BRDA:223,0,0,-
BRDA:223,0,1,-
BRDA:223,1,2,-
BRDA:223,1,3,-
BRDA:223,2,4,-
BRDA:223,2,5,-
BRDA:228,0,0,-
BRDA:228,0,1,-
BRDA:228,1,2,-
BRDA:228,1,3,-
BRDA:228,2,4,-
BRDA:228,2,5,-
BRDA:235,0,0,-
BRDA:235,0,1,-
BRDA:235,1,2,-
BRDA:235,1,3,-
BRDA:235,2,4,-
BRDA:235,2,5,-
BRDA:236,0,0,-
BRDA:236,0,1,-
BRDA:236,1,2,-
BRDA:236,1,3,-
BRDA:236,2,4,-
BRDA:236,2,5,-
BRDA:241,0,0,-
BRDA:241,0,1,-
BRDA:241,1,2,-
BRDA:241,1,3,-
BRDA:241,2,4,-
BRDA:241,2,5,-
BRDA:243,0,0,-
BRDA:243,0,1,-
BRDA:243,1,2,-
BRDA:243,1,3,-
BRDA:243,2,4,-
BRDA:243,2,5,-
BRDA:245,0,0,-
BRDA:245,0,1,-
BRDA:245,1,2,-
BRDA:245,1,3,-
BRDA:245,2,4,-
BRDA:245,2,5,-
BRDA:247,0,0,-
BRDA:247,0,1,-
BRDA:247,1,2,-
BRDA:247,1,3,-
BRDA:247,2,4,-
BRDA:247,2,5,-
BRDA:254,0,0,-
BRDA:254,0,1,-
BRDA:254,1,2,-
BRDA:254,1,3,-
BRDA:254,2,4,-
BRDA:254,2,5,-
BRDA:258,0,0,-
BRDA:258,0,1,-
BRDA:258,1,2,-
BRDA:258,1,3,-
BRDA:261,0,0,-
BRDA:261,0,1,-
BRDA:261,1,2,-
BRDA:261,1,3,-
BRDA:265,0,0,-
BRDA:265,0,1,-
BRDA:265,1,2,-
BRDA:265,1,3,-
BRDA:265,2,4,-
BRDA:265,2,5,-
BRDA:270,0,0,-
BRDA:270,0,1,-
BRDA:270,1,2,-
BRDA:270,1,3,-
BRDA:270,2,4,-
BRDA:270,2,5,-
BRDA:270,3,6,-
BRDA:270,3,7,-
BRDA:270,4,8,-
BRDA:270,4,9,-
BRDA:270,5,10,-
BRDA:270,5,11,-
BRDA:270,6,12,-
BRDA:270,6,13,-
BRDA:270,7,14,-
BRDA:270,7,15,-
BRDA:270,8,16,-
BRDA:270,8,17,-
BRDA:271,0,0,-
BRDA:271,0,1,-
BRDA:271,1,2,-
BRDA:271,1,3,-
BRDA:271,2,4,-
BRDA:271,2,5,-
BRDA:272,0,0,-
BRDA:272,0,1,-
BRDA:272,1,2,-
BRDA:272,1,3,-
BRDA:272,2,4,-
BRDA:272,2,5,-
BRDA:286,0,0,-
BRDA:286,0,1,-
BRDA:295,0,0,-
BRDA:295,0,1,-
BRDA:295,1,2,-
BRDA:295,1,3,-
BRDA:295,2,4,-
BRDA:295,2,5,-
BRDA:297,0,0,-
BRDA:297,0,1,-
BRDA:297,1,2,-
BRDA:297,1,3,-
BRDA:297,2,4,-
BRDA:297,2,5,-
BRDA:320,0,0,44
BRDA:320,0,1,21915
BRDA:320,1,2,18
BRDA:320,1,3,25002
BRDA:326,0,0,0
BRDA:326,0,1,21915
BRDA:326,1,2,25002
BRDA:326,1,3,0
BRDA:331,0,0,138
BRDA:331,0,1,21777
BRDA:331,1,2,108
BRDA:331,1,3,24894
BRDA:337,0,0,16120
BRDA:337,0,1,5657
BRDA:337,1,2,21298
BRDA:337,1,3,3596
BRDA:337,2,4,34
BRDA:337,2,5,16086
BRDA:337,3,6,22
BRDA:337,3,7,21276
BRDA:342,0,0,24
BRDA:342,0,1,21719
BRDA:342,1,2,36
BRDA:342,1,3,24836
BRDA:345,0,0,4
BRDA:345,0,1,21715
BRDA:345,1,2,8
BRDA:345,1,3,24828
BRDA:348,0,0,2451
BRDA:348,0,1,19264
BRDA:348,1,2,60
BRDA:348,1,3,21655
BRDA:348,2,4,12
BRDA:348,2,5,24816
BRDA:348,3,6,2034
BRDA:348,3,7,22794
BRDA:349,0,0,60
BRDA:349,0,1,2391
BRDA:349,1,2,12
BRDA:349,1,3,2022
BRDA:354,0,0,24816
BRDA:354,0,1,0
BRDA:354,1,2,20389
BRDA:354,1,3,1266
BRDA:357,0,0,24410
BRDA:357,0,1,406
BRDA:357,1,2,21431
BRDA:357,1,3,224
BRDA:363,0,0,0
BRDA:363,0,1,24410
BRDA:363,1,2,0
BRDA:363,1,3,21431
BRDA:366,0,0,-
BRDA:366,0,1,-
BRDA:366,1,2,-
BRDA:366,1,3,-
BRDA:380,0,0,20731
BRDA:380,0,1,924
BRDA:380,1,2,23910
BRDA:380,1,3,906
BRDA:392,0,0,-
BRDA:392,0,1,-
BRDA:392,1,2,-
BRDA:392,1,3,-
BRDA:396,0,0,-
BRDA:396,0,1,-
BRDA:396,1,2,-
BRDA:396,1,3,-
BRDA:405,0,0,-
BRDA:405,0,1,-
BRDA:405,1,2,-
BRDA:405,1,3,-
BRDA:408,0,0,-
BRDA:408,0,1,-
BRDA:408,1,2,-
BRDA:408,1,3,-
BRDA:411,0,0,-
BRDA:411,0,1,-
BRDA:411,1,2,-
BRDA:411,1,3,-
BRDA:414,0,0,-
BRDA:414,0,1,-
BRDA:414,1,2,-
BRDA:414,1,3,-
BRDA:414,2,4,-
BRDA:414,2,5,-
BRDA:414,3,6,-
BRDA:414,3,7,-
BRDA:415,0,0,-
BRDA:415,0,1,-
BRDA:415,1,2,-
BRDA:415,1,3,-
BRDA:430,0,0,-
BRDA:430,0,1,-
BRDA:434,0,0,-
BRDA:434,0,1,-
BRDA:441,0,0,-
BRDA:441,0,1,-
BRDA:450,0,0,-
BRDA:450,0,1,-
BRDA:450,1,2,-
BRDA:450,1,3,-
BRDA:470,0,0,-
BRDA:470,0,1,-
BRDA:470,1,2,-
BRDA:470,1,3,-
BRF:162
BRH:88
LF:283
LH:143
end_of_record
SF:/home/builder/project/lib/evmone/instructions_storage.cpp
FN:98,_ZN6evmone5instr4core5sloadENS_8StackTopElRNS_14ExecutionStateE
FN:119,_ZN6evmone5instr4core6sstoreENS_8StackTopElRNS_14ExecutionStateE
FNDA:1014945,_ZN6evmone5instr4core5sloadENS_8StackTopElRNS_14ExecutionStateE
FNDA:4690417,_ZN6evmone5instr4core6sstoreENS_8StackTopElRNS_14ExecutionStateE
FNF:2
FNH:2
DA:98,1014945
DA:99,1014945
DA:100,1014945
DA:102,1014945
DA:103,1014945
DA:104,614082
DA:107,614082
DA:108,614082
DA:109,614082
DA:110,23
DA:111,614082
DA:113,1014922
DA:115,1014922
DA:116,1014945
DA:119,4690417
DA:120,4690417
DA:121,221353
DA:123,4469064
DA:124,33432
DA:126,4435632
DA:127,4435632
DA:129,4435632
DA:130,4435632
DA:131,4435632
DA:132,1449305
DA:133,4435632
DA:134,4435632
DA:136,4435632
DA:137,4435632
DA:138,4435632
DA:139,33960
DA:140,4401672
DA:141,4401672
DA:142,4435632
BRDA:102,0,0,614082
BRDA:102,0,1,400863
BRDA:102,1,2,1014516
BRDA:102,1,3,429
BRDA:103,0,0,614082
BRDA:103,0,1,400434
BRDA:109,0,0,23
BRDA:109,0,1,614059
BRDA:120,0,0,221353
BRDA:120,0,1,4469064
BRDA:123,0,0,4445505
BRDA:123,0,1,23559
BRDA:123,1,2,33432
BRDA:123,1,3,4412073
BRDA:130,0,0,4400746
BRDA:130,0,1,34886
BRDA:131,0,0,1449305
BRDA:131,0,1,2951441
BRDA:138,0,0,33960
BRDA:138,0,1,4401672
BRF:20
BRH:20
LF:34
LH:34
end_of_record
SF:/home/builder/project/lib/evmone/instructions_xmacro.hpp
FNF:0
FNH:0
DA:7,713450780
DA:35,2751709
DA:36,18442492
DA:37,15690783
DA:38,5879454
DA:39,3127745
DA:40,2755723
DA:41,2906716
DA:42,2755223
DA:43,2753709
DA:44,2753983
DA:45,2788875
DA:46,2754233
DA:47,2751709
DA:48,2751709
DA:49,2751709
DA:50,2751709
DA:51,2524
DA:52,5692849
DA:53,3145906
DA:54,2758221
DA:55,2757861
DA:56,3576824
DA:57,7858787
DA:58,5107078
DA:59,2803491
DA:60,2753325
DA:61,2822015
DA:62,2829951
DA:63,6220259
DA:64,3468550
DA:65,2759953
DA:66,2754523
DA:67,2751709
DA:68,2814
DA:69,2764438
DA:70,2751709
DA:71,2751709
DA:72,2751709
DA:73,2751709
DA:74,2751709
DA:75,2751709
DA:76,2751709
DA:77,2751709
DA:78,2751709
DA:79,2751709
DA:80,2751709
DA:81,2751709
DA:82,2751709
DA:83,2751709
DA:84,2751709
DA:85,12729
DA:86,2808605
DA:87,2759534
DA:88,2775319
DA:89,3021294
DA:90,2776609
DA:91,4574392
DA:92,2859260
DA:93,2872841
DA:94,2772953
DA:95,2774839
DA:96,2765115
DA:97,3222113
DA:98,2764429
DA:99,2810282
DA:100,2759904
DA:101,2755040
DA:102,3331
DA:103,2821487
DA:104,2766627
DA:105,2898804
DA:106,2885082
DA:107,2765485
DA:108,2766949
DA:109,2752123
DA:110,2753235
DA:111,2752229
DA:112,2754567
DA:113,2764463
DA:114,2751709
DA:115,2751709
DA:116,2751709
DA:117,2751709
DA:118,2751709
DA:119,12754
DA:120,7278018
DA:121,14720045
DA:122,11968336
DA:123,8580212
DA:124,3766631
DA:125,7153381
DA:126,8083289
DA:127,9680205
DA:128,8250057
DA:129,5498348
DA:130,19332958
DA:131,26625537
DA:132,23873828
DA:133,11830903
DA:134,9079194
DA:135,3908339
DA:136,1156630
DA:137,78952612
DA:138,76200903
DA:139,10043255
DA:140,2871079
DA:141,2809886
DA:142,2862875
DA:143,2798331
DA:144,2799015
DA:145,2792085
DA:146,2786401
DA:147,2780523
DA:148,2792175
DA:149,2790486
DA:150,2785803
DA:151,2780735
DA:152,29026
DA:153,2800203
DA:154,2772933
DA:155,2817909
DA:156,2782411
DA:157,4990203
DA:158,2796691
DA:159,2789053
DA:160,2789640
DA:161,2783511
DA:162,2781841
DA:163,2792740
DA:164,2793773
DA:165,2780413
DA:166,2786077
DA:167,2776651
DA:168,2844967
DA:169,3052813
DA:170,301104
DA:171,8630056
DA:172,5878347
DA:173,3368868
DA:174,3043649
DA:175,2878535
DA:176,2816589
DA:177,2799511
DA:178,3195481
DA:179,2778683
DA:180,2804993
DA:181,2776649
DA:182,2768265
DA:183,2782269
DA:184,2766719
DA:185,2776899
DA:186,2769051
DA:187,17342
DA:188,3474662
DA:189,3154405
DA:190,3023009
DA:191,2838987
DA:192,2788679
DA:193,2759917
DA:194,2755499
DA:195,2759415
DA:196,2757545
DA:197,2753931
DA:198,2754361
DA:199,2758417
DA:200,2755873
DA:201,2755287
DA:202,2754043
DA:203,2754049
DA:204,2340
DA:205,2760816
DA:206,2759764
DA:207,2756168
DA:208,2758358
DA:209,2752322
DA:210,2751709
DA:211,2751709
DA:212,2751709
DA:213,2751709
DA:214,2751709
DA:215,2751709
DA:216,2751709
DA:217,2751709
DA:218,2751709
DA:219,2751709
DA:220,2751709
DA:221,613
DA:222,2751709
DA:223,2751709
DA:224,2751709
DA:225,2751709
DA:226,2751709
DA:227,2751709
DA:228,2751709
DA:229,2751709
DA:230,2751709
DA:231,2751709
DA:232,2751709
DA:233,2751709
DA:234,2751709
DA:235,2751709
DA:236,2751709
DA:237,2751709
DA:238,613
DA:239,2751709
DA:240,2751709
DA:241,2751709
DA:242,2751709
DA:243,2751709
DA:244,2751709
DA:245,2751709
DA:246,2751709
DA:247,2751709
DA:248,2751709
DA:249,2751709
DA:250,2751709
DA:251,2751709
DA:252,2751709
DA:253,2751709
DA:254,2751709
DA:255,613
DA:256,2751709
DA:257,2751709
DA:258,2751709
DA:259,2751709
DA:260,2751709
DA:261,2751709
DA:262,2751709
DA:263,2751709
DA:264,2751709
DA:265,2751709
DA:266,2751709
DA:267,2751709
DA:268,2751709
DA:269,2751709
DA:270,2751709
DA:271,2751709
DA:272,0
DA:273,2751709
DA:274,2751709
DA:275,2751709
DA:276,2751709
DA:277,2751709
DA:278,2751709
DA:279,2751709
DA:280,2751709
DA:281,2751709
DA:282,2751709
DA:283,2751709
DA:284,2751709
DA:285,2751709
DA:286,2751709
DA:287,2751709
DA:288,2751709
DA:289,0
DA:290,2773428
DA:291,3626749
DA:292,2834073
DA:293,2751709
DA:294,2852673
DA:295,2776545
DA:296,2751709
DA:297,2751709
DA:298,2751709
DA:299,2751709
DA:300,5815701
DA:301,3063992
DA:302,2751709
DA:303,2751709
DA:304,2751709
DA:305,2751709
BRF:0
BRH:0
LF:0
LH:0
end_of_record
SF:/home/builder/project/lib/evmone_precompiles/blake2b.cpp
FN:40,_ZN6evmone6crypto16blake2b_compressEjPmPKmS3_b
FN:25,blake2b.cpp:_ZN6evmone6crypto12_GLOBAL__N_11gEPmmmmmmm
FN:14,blake2b.cpp:_ZN6evmone6crypto12_GLOBAL__N_14rotrEmj
FNDA:1024,_ZN6evmone6crypto16blake2b_compressEjPmPKmS3_b
FNDA:26164864,blake2b.cpp:_ZN6evmone6crypto12_GLOBAL__N_11gEPmmmmmmm
FNDA:104659456,blake2b.cpp:_ZN6evmone6crypto12_GLOBAL__N_14rotrEmj
FNF:3
FNH:3
DA:14,104659456
DA:15,104659456
DA:16,104659456
DA:25,26164864
DA:26,26164864
DA:27,26164864
DA:28,26164864
DA:29,26164864
DA:30,26164864
DA:31,26164864
DA:32,26164864
DA:33,26164864
DA:34,26164864
DA:40,1024
DA:43,1024
DA:44,1024
DA:45,1024
DA:46,1024
DA:47,1024
DA:48,1024
DA:49,1024
DA:50,1024
DA:51,1024
DA:52,1024
DA:53,1024
DA:54,1024
DA:58,1024
DA:59,1024
DA:60,1024
DA:61,1024
DA:62,1024
DA:63,1024
DA:64,1024
DA:67,3271632
DA:68,3270608
DA:70,3270608
DA:72,3270608
DA:73,3270608
DA:74,3270608
DA:75,3270608
DA:76,3270608
DA:77,3270608
DA:78,3270608
DA:79,3270608
DA:80,3270608
DA:82,9216
DA:83,8192
DA:84,1024
BRDA:67,0,0,3270608
BRDA:67,0,1,1024
BRDA:82,0,0,8192
BRDA:82,0,1,1024
BRF:4
BRH:4
LF:48
LH:48
end_of_record
SF:/home/builder/project/lib/evmone_precompiles/bls.cpp
FN:96,_ZN6evmone6crypto3bls6g1_addEPhS2_PKhS4_S4_S4_
FN:119,_ZN6evmone6crypto3bls6g1_mulEPhS2_PKhS4_S4_
FN:146,_ZN6evmone6crypto3bls6g2_addEPhS2_PKhS4_S4_S4_
FN:169,_ZN6evmone6crypto3bls6g2_mulEPhS2_PKhS4_S4_
FN:196,_ZN6evmone6crypto3bls6g1_msmEPhS2_PKhm
FN:258,_ZN6evmone6crypto3bls6g2_msmEPhS2_PKhm
FN:319,_ZN6evmone6crypto3bls12map_fp_to_g1EPhS2_PKh
FN:337,_ZN6evmone6crypto3bls13map_fp2_to_g2EPhS2_PKh
FN:354,_ZN6evmone6crypto3bls13pairing_checkEPhPKhm
FN:30,bls.cpp:_ZN6evmone6crypto3bls12_GLOBAL__N_111validate_p1EPKhS4_
FN:80,bls.cpp:_ZN6evmone6crypto3bls12_GLOBAL__N_15storeEPhRK7blst_fp
FN:62,bls.cpp:_ZN6evmone6crypto3bls12_GLOBAL__N_111validate_p2EPKhS4_
FN:87,bls.cpp:_ZN6evmone6crypto3bls12_GLOBAL__N_15storeEPhRK8blst_fp2
FN:17,bls.cpp:_ZN6evmone6crypto3bls12_GLOBAL__N_111validate_fpEPKh
FN:47,bls.cpp:_ZN6evmone6crypto3bls12_GLOBAL__N_112validate_fp2EPKh
FNDA:324,_ZN6evmone6crypto3bls6g1_addEPhS2_PKhS4_S4_S4_
FNDA:0,_ZN6evmone6crypto3bls6g1_mulEPhS2_PKhS4_S4_
FNDA:348,_ZN6evmone6crypto3bls6g2_addEPhS2_PKhS4_S4_S4_
FNDA:0,_ZN6evmone6crypto3bls6g2_mulEPhS2_PKhS4_S4_
FNDA:1584,_ZN6evmone6crypto3bls6g1_msmEPhS2_PKhm
FNDA:1608,_ZN6evmone6crypto3bls6g2_msmEPhS2_PKhm
FNDA:116,_ZN6evmone6crypto3bls12map_fp_to_g1EPhS2_PKh
FNDA:104,_ZN6evmone6crypto3bls13map_fp2_to_g2EPhS2_PKh
FNDA:412,_ZN6evmone6crypto3bls13pairing_checkEPhPKhm
FNDA:95294,bls.cpp:_ZN6evmone6crypto3bls12_GLOBAL__N_111validate_p1EPKhS4_
FNDA:2520,bls.cpp:_ZN6evmone6crypto3bls12_GLOBAL__N_15storeEPhRK7blst_fp
FNDA:93786,bls.cpp:_ZN6evmone6crypto3bls12_GLOBAL__N_111validate_p2EPKhS4_
FNDA:816,bls.cpp:_ZN6evmone6crypto3bls12_GLOBAL__N_15storeEPhRK8blst_fp2
FNDA:565404,bls.cpp:_ZN6evmone6crypto3bls12_GLOBAL__N_111validate_fpEPKh
FNDA:187508,bls.cpp:_ZN6evmone6crypto3bls12_GLOBAL__N_112validate_fp2EPKh
FNF:15
FNH:13
DA:17,565404
DA:18,565404
DA:19,540
DA:21,564864
DA:22,564864
DA:23,564864
DA:24,565404
DA:30,95294
DA:31,95294
DA:32,95294
DA:33,124
DA:34,95170
DA:35,95170
DA:36,60
DA:38,95110
DA:39,95110
DA:40,172
DA:42,94938
DA:43,95110
DA:47,187508
DA:48,187508
DA:49,187508
DA:50,192
DA:51,187316
DA:52,187316
DA:53,128
DA:55,187188
DA:56,187316
DA:62,93786
DA:63,93786
DA:64,93786
DA:65,168
DA:67,93618
DA:68,93618
DA:69,96
DA:71,93522
DA:72,93522
DA:73,164
DA:75,93358
DA:76,93522
DA:80,2520
DA:81,2520
DA:82,2520
DA:83,2520
DA:87,816
DA:88,816
DA:89,816
DA:90,816
DA:96,324
DA:97,324
DA:98,324
DA:100,324
DA:101,144
DA:103,180
DA:104,180
DA:106,180
DA:107,180
DA:109,180
DA:110,180
DA:111,180
DA:112,180
DA:114,180
DA:115,324
DA:119,0
DA:120,0
DA:121,0
DA:123,0
DA:124,0
DA:125,0
DA:127,0
DA:128,0
DA:130,0
DA:131,0
DA:133,0
DA:134,0
DA:136,0
DA:137,0
DA:138,0
DA:139,0
DA:141,0
DA:142,0
DA:146,348
DA:147,348
DA:148,348
DA:150,348
DA:151,176
DA:153,172
DA:154,172
DA:156,172
DA:157,172
DA:159,172
DA:160,172
DA:161,172
DA:162,172
DA:164,172
DA:165,348
DA:169,0
DA:170,0
DA:171,0
DA:173,0
DA:174,0
DA:175,0
DA:177,0
DA:178,0
DA:180,0
DA:181,0
DA:183,0
DA:184,0
DA:186,0
DA:187,0
DA:188,0
DA:189,0
DA:191,0
DA:192,0
DA:196,1584
DA:197,1584
DA:198,1584
DA:199,1584
DA:201,1584
DA:202,1584
DA:203,1584
DA:204,1584
DA:206,1584
DA:207,1584
DA:208,1584
DA:209,1584
DA:211,1584
DA:212,82756
DA:213,81392
DA:214,81392
DA:215,81392
DA:216,136
DA:218,81256
DA:219,84
DA:222,81172
DA:223,78328
DA:225,2844
DA:226,2844
DA:228,2844
DA:229,2844
DA:230,2844
DA:231,2844
DA:232,2844
DA:234,1364
DA:235,1180
DA:236,1180
DA:237,1180
DA:238,1180
DA:239,1180
DA:241,184
DA:242,184
DA:243,184
DA:244,184
DA:245,184
DA:246,184
DA:248,184
DA:249,184
DA:250,184
DA:251,184
DA:253,184
DA:254,1364
DA:258,1608
DA:259,1608
DA:260,1608
DA:261,1608
DA:263,1608
DA:264,1608
DA:265,1608
DA:266,1608
DA:268,1608
DA:269,1608
DA:270,1608
DA:271,1608
DA:273,1608
DA:274,81276
DA:275,79908
DA:276,79908
DA:277,79908
DA:278,164
DA:280,79744
DA:281,76
DA:284,79668
DA:285,78348
DA:287,1320
DA:288,1320
DA:290,1320
DA:291,1320
DA:292,1320
DA:293,1320
DA:294,1320
DA:296,1368
DA:297,1180
DA:298,1180
DA:299,1180
DA:300,1180
DA:301,1180
DA:303,188
DA:304,188
DA:305,188
DA:306,188
DA:307,188
DA:308,188
DA:310,188
DA:311,188
DA:312,188
DA:313,188
DA:315,188
DA:316,1368
DA:319,116
DA:320,116
DA:321,116
DA:322,36
DA:324,80
DA:325,80
DA:327,80
DA:328,80
DA:329,80
DA:330,80
DA:332,80
DA:333,116
DA:337,104
DA:338,104
DA:339,104
DA:340,56
DA:342,48
DA:343,48
DA:345,48
DA:346,48
DA:347,48
DA:348,48
DA:350,48
DA:351,104
DA:354,412
DA:355,412
DA:356,412
DA:357,412
DA:358,412
DA:359,412
DA:360,412
DA:362,412
DA:363,412
DA:364,13462
DA:365,13254
DA:366,13254
DA:367,13254
DA:368,72
DA:370,13182
DA:371,13182
DA:372,84
DA:374,13098
DA:375,24
DA:377,13074
DA:378,24
DA:381,13050
DA:382,12910
DA:384,140
DA:385,140
DA:386,140
DA:387,140
DA:389,208
DA:390,208
DA:391,208
DA:392,208
DA:393,208
DA:394,412
BRDA:18,0,0,540
BRDA:18,0,1,564864
BRDA:32,0,0,124
BRDA:32,0,1,95170
BRDA:35,0,0,60
BRDA:35,0,1,95110
BRDA:39,0,0,172
BRDA:39,0,1,94938
BRDA:49,0,0,192
BRDA:49,0,1,187316
BRDA:52,0,0,128
BRDA:52,0,1,187188
BRDA:64,0,0,168
BRDA:64,0,1,93618
BRDA:68,0,0,96
BRDA:68,0,1,93522
BRDA:72,0,0,164
BRDA:72,0,1,93358
BRDA:100,0,0,92
BRDA:100,0,1,232
BRDA:100,1,2,52
BRDA:100,1,3,180
BRDA:124,0,0,-
BRDA:124,0,1,-
BRDA:130,0,0,-
BRDA:130,0,1,-
BRDA:150,0,0,108
BRDA:150,0,1,240
BRDA:150,1,2,68
BRDA:150,1,3,172
BRDA:174,0,0,-
BRDA:174,0,1,-
BRDA:180,0,0,-
BRDA:180,0,1,-
BRDA:212,0,0,81392
BRDA:212,0,1,1364
BRDA:215,0,0,136
BRDA:215,0,1,81256
BRDA:218,0,0,84
BRDA:218,0,1,81172
BRDA:222,0,0,78328
BRDA:222,0,1,2844
BRDA:234,0,0,1180
BRDA:234,0,1,184
BRDA:274,0,0,79908
BRDA:274,0,1,1368
BRDA:277,0,0,164
BRDA:277,0,1,79744
BRDA:280,0,0,76
BRDA:280,0,1,79668
BRDA:284,0,0,78348
BRDA:284,0,1,1320
BRDA:296,0,0,1180
BRDA:296,0,1,188
BRDA:321,0,0,36
BRDA:321,0,1,80
BRDA:339,0,0,56
BRDA:339,0,1,48
BRDA:364,0,0,13254
BRDA:364,0,1,208
BRDA:367,0,0,72
BRDA:367,0,1,13182
BRDA:371,0,0,84
BRDA:371,0,1,13098
BRDA:374,0,0,24
BRDA:374,0,1,13074
BRDA:377,0,0,24
BRDA:377,0,1,13050
BRDA:381,0,0,12894
BRDA:381,0,1,156
BRDA:381,1,2,16
BRDA:381,1,3,140
BRDA:392,0,0,168
BRDA:392,0,1,40
BRF:74
BRH:66
LF:265
LH:229
end_of_record
SF:/home/builder/project/lib/evmone_precompiles/bn254.cpp
FN:12,_ZN6evmmax5bn2548validateERKNS_3ecc11AffinePointINS0_5CurveEEE
FN:20,_ZN6evmmax5bn2543mulERKNS_3ecc11AffinePointINS0_5CurveEEERKN4intx4uintILj256EEE
FNDA:12038,_ZN6evmmax5bn2548validateERKNS_3ecc11AffinePointINS0_5CurveEEE
FNDA:4604,_ZN6evmmax5bn2543mulERKNS_3ecc11AffinePointINS0_5CurveEEERKN4intx4uintILj256EEE
FNF:2
FNH:2
DA:12,12038
DA:13,12038
DA:14,12038
DA:15,12038
DA:16,12038
DA:17,12038
DA:20,4604
DA:21,4604
DA:22,4604
DA:23,4604
BRDA:16,0,0,5580
BRDA:16,0,1,6458
BRDA:16,1,2,4288
BRDA:16,1,3,2170
BRF:4
BRH:4
LF:10
LH:10
end_of_record
SF:/home/builder/project/lib/evmone_precompiles/ecc.hpp
FN:135,_ZN6evmmax3ecc11AffinePointINS_5bn2545CurveEE10from_bytesESt4spanIKhLm64EE
FN:42,_ZN6evmmax3ecc12FieldElementINS_5bn2545CurveEE10from_bytesESt4spanIKhLm32EE
FN:37,_ZN6evmmax3ecc12FieldElementINS_5bn2545CurveEEC2EN4intx4uintILj256EEE
FN:120,_ZN6evmmax3ecc11AffinePointINS_5bn2545CurveEEC2ERKNS0_12FieldElementIS3_EES8_
FN:227,_ZN6evmmax3ecc3addINS_5bn2545CurveEEENS0_11AffinePointIT_EERKS6_S8_
FN:130,_ZN6evmmax3ecceqERKNS0_11AffinePointINS_5bn2545CurveEEENS0_8ConstantILi0EEE
FN:127,_ZN6evmmax3ecceqERKNS0_11AffinePointINS_5bn2545CurveEEES6_
FN:56,_ZN6evmmax3ecceqERKNS0_12FieldElementINS_5bn2545CurveEEES6_
FN:71,_ZN6evmmax3eccmiERKNS0_12FieldElementINS_5bn2545CurveEEES6_
FN:93,_ZN6evmmax3ecc12FieldElementINS_5bn2545CurveEE4wrapERKN4intx4uintILj256EEE
FN:35,_ZN6evmmax3ecc12FieldElementINS_5bn2545CurveEEC2Ev
FN:58,_ZN6evmmax3ecceqERKNS0_12FieldElementINS_5bn2545CurveEEENS0_8ConstantILi0EEE
FN:119,_ZN6evmmax3ecc11AffinePointINS_5bn2545CurveEEC2Ev
FN:61,_ZN6evmmax3eccmlERKNS0_12FieldElementINS_5bn2545CurveEEES6_
FN:66,_ZN6evmmax3eccplERKNS0_12FieldElementINS_5bn2545CurveEEES6_
FN:86,_ZN6evmmax3eccdvERKNS0_12FieldElementINS_5bn2545CurveEEES6_
FN:119,_ZN6evmmax3ecc11AffinePointINS_9secp256k15CurveEEC2Ev
FN:35,_ZN6evmmax3ecc12FieldElementINS_9secp256k15CurveEEC2Ev
FN:130,_ZN6evmmax3ecceqERKNS0_11AffinePointINS_9secp256k15CurveEEENS0_8ConstantILi0EEE
FN:127,_ZN6evmmax3ecceqERKNS0_11AffinePointINS_9secp256k15CurveEEES6_
FN:56,_ZN6evmmax3ecceqERKNS0_12FieldElementINS_9secp256k15CurveEEES6_
FN:227,_ZN6evmmax3ecc3addINS_9secp256k15CurveEEENS0_11AffinePointIT_EERKS6_S8_
FN:71,_ZN6evmmax3eccmiERKNS0_12FieldElementINS_9secp256k15CurveEEES6_
FN:93,_ZN6evmmax3ecc12FieldElementINS_9secp256k15CurveEE4wrapERKN4intx4uintILj256EEE
FN:58,_ZN6evmmax3ecceqERKNS0_12FieldElementINS_9secp256k15CurveEEENS0_8ConstantILi0EEE
FN:61,_ZN6evmmax3eccmlERKNS0_12FieldElementINS_9secp256k15CurveEEES6_
FN:66,_ZN6evmmax3eccplERKNS0_12FieldElementINS_9secp256k15CurveEEES6_
FN:86,_ZN6evmmax3eccdvERKNS0_12FieldElementINS_9secp256k15CurveEEES6_
FN:120,_ZN6evmmax3ecc11AffinePointINS_9secp256k15CurveEEC2ERKNS0_12FieldElementIS3_EES8_
FN:142,_ZNK6evmmax3ecc11AffinePointINS_5bn2545CurveEE8to_bytesESt4spanIhLm64EE
FN:48,_ZNK6evmmax3ecc12FieldElementINS_5bn2545CurveEE8to_bytesESt4spanIhLm32EE
FN:39,_ZNK6evmmax3ecc12FieldElementINS_5bn2545CurveEE5valueEv
FN:423,_ZN6evmmax3ecc3mulINS_5bn2545CurveEEENS0_9ProjPointIT_EERKNS0_11AffinePointIS5_EENS5_9uint_typeE
FN:159,_ZN6evmmax3ecc9ProjPointINS_5bn2545CurveEEC2Ev
FN:359,_ZN6evmmax3ecc3dblINS_5bn2545CurveEEENS0_9ProjPointIT_EERKS6_
FN:160,_ZN6evmmax3ecc9ProjPointINS_5bn2545CurveEEC2ERKNS0_12FieldElementIS3_EES8_S8_
FN:317,_ZN6evmmax3ecc3addINS_5bn2545CurveEEENS0_9ProjPointIT_EERKS6_RKNS0_11AffinePointIS5_EE
FN:163,_ZN6evmmax3ecceqERKNS0_9ProjPointINS_5bn2545CurveEEENS0_8ConstantILi0EEE
FN:161,_ZN6evmmax3ecc9ProjPointINS_5bn2545CurveEEC2ERKNS0_11AffinePointIS3_EE
FN:214,_ZN6evmmax3ecc9to_affineINS_5bn2545CurveEEENS0_11AffinePointIT_EERKNS0_9ProjPointIS5_EE
FN:81,_ZN6evmmax3eccdvENS0_8ConstantILi1EEERKNS0_12FieldElementINS_5bn2545CurveEEE
FN:203,_ZN6evmmax3ecc8JacPointINS0_12ExtFieldElemINS_5bn2549Fq2ConfigEEEE4fromERKNS0_5PointIS5_EE
FN:189,_ZN6evmmax3ecceqERKNS0_8JacPointINS0_12ExtFieldElemINS_5bn2549Fq2ConfigEEEEES8_
FN:107,_ZN6evmmax3eccngERKNS0_5PointINS0_12ExtFieldElemINS_5bn2549Fq2ConfigEEEEE
FN:142,_ZNK6evmmax3ecc11AffinePointINS_9secp256k15CurveEE8to_bytesESt4spanIhLm64EE
FN:48,_ZNK6evmmax3ecc12FieldElementINS_9secp256k15CurveEE8to_bytesESt4spanIhLm32EE
FN:39,_ZNK6evmmax3ecc12FieldElementINS_9secp256k15CurveEE5valueEv
FN:423,_ZN6evmmax3ecc3mulINS_9secp256k15CurveEEENS0_9ProjPointIT_EERKNS0_11AffinePointIS5_EENS5_9uint_typeE
FN:159,_ZN6evmmax3ecc9ProjPointINS_9secp256k15CurveEEC2Ev
FN:37,_ZN6evmmax3ecc12FieldElementINS_9secp256k15CurveEEC2EN4intx4uintILj256EEE
FN:359,_ZN6evmmax3ecc3dblINS_9secp256k15CurveEEENS0_9ProjPointIT_EERKS6_
FN:160,_ZN6evmmax3ecc9ProjPointINS_9secp256k15CurveEEC2ERKNS0_12FieldElementIS3_EES8_S8_
FN:317,_ZN6evmmax3ecc3addINS_9secp256k15CurveEEENS0_9ProjPointIT_EERKS6_RKNS0_11AffinePointIS5_EE
FN:163,_ZN6evmmax3ecceqERKNS0_9ProjPointINS_9secp256k15CurveEEENS0_8ConstantILi0EEE
FN:161,_ZN6evmmax3ecc9ProjPointINS_9secp256k15CurveEEC2ERKNS0_11AffinePointIS3_EE
FN:214,_ZN6evmmax3ecc9to_affineINS_9secp256k15CurveEEENS0_11AffinePointIT_EERKNS0_9ProjPointIS5_EE
FN:81,_ZN6evmmax3eccdvENS0_8ConstantILi1EEERKNS0_12FieldElementINS_9secp256k15CurveEEE
FN:264,_ZN6evmmax3ecc3addINS_9secp256k15CurveEEENS0_9ProjPointIT_EERKS6_S8_
FN:166,_ZN6evmmax3ecceqERKNS0_9ProjPointINS_9secp256k15CurveEEES6_
FN:37,_ZN6evmmax3ecc12FieldElementINS_9secp256r15CurveEEC2EN4intx4uintILj256EEE
FN:120,_ZN6evmmax3ecc11AffinePointINS_9secp256r15CurveEEC2ERKNS0_12FieldElementIS3_EES8_
FN:130,_ZN6evmmax3ecceqERKNS0_11AffinePointINS_9secp256r15CurveEEENS0_8ConstantILi0EEE
FN:127,_ZN6evmmax3ecceqERKNS0_11AffinePointINS_9secp256r15CurveEEES6_
FN:56,_ZN6evmmax3ecceqERKNS0_12FieldElementINS_9secp256r15CurveEEES6_
FN:119,_ZN6evmmax3ecc11AffinePointINS_9secp256r15CurveEEC2Ev
FN:35,_ZN6evmmax3ecc12FieldElementINS_9secp256r15CurveEEC2Ev
FN:61,_ZN6evmmax3eccmlERKNS0_12FieldElementINS_9secp256r15CurveEEES6_
FN:93,_ZN6evmmax3ecc12FieldElementINS_9secp256r15CurveEE4wrapERKN4intx4uintILj256EEE
FN:66,_ZN6evmmax3eccplERKNS0_12FieldElementINS_9secp256r15CurveEEES6_
FN:39,_ZNK6evmmax3ecc12FieldElementINS_9secp256r15CurveEE5valueEv
FN:423,_ZN6evmmax3ecc3mulINS_9secp256r15CurveEEENS0_9ProjPointIT_EERKNS0_11AffinePointIS5_EENS5_9uint_typeE
FN:159,_ZN6evmmax3ecc9ProjPointINS_9secp256r15CurveEEC2Ev
FN:359,_ZN6evmmax3ecc3dblINS_9secp256r15CurveEEENS0_9ProjPointIT_EERKS6_
FN:71,_ZN6evmmax3eccmiERKNS0_12FieldElementINS_9secp256r15CurveEEES6_
FN:160,_ZN6evmmax3ecc9ProjPointINS_9secp256r15CurveEEC2ERKNS0_12FieldElementIS3_EES8_S8_
FN:317,_ZN6evmmax3ecc3addINS_9secp256r15CurveEEENS0_9ProjPointIT_EERKS6_RKNS0_11AffinePointIS5_EE
FN:163,_ZN6evmmax3ecceqERKNS0_9ProjPointINS_9secp256r15CurveEEENS0_8ConstantILi0EEE
FN:58,_ZN6evmmax3ecceqERKNS0_12FieldElementINS_9secp256r15CurveEEENS0_8ConstantILi0EEE
FN:161,_ZN6evmmax3ecc9ProjPointINS_9secp256r15CurveEEC2ERKNS0_11AffinePointIS3_EE
FN:264,_ZN6evmmax3ecc3addINS_9secp256r15CurveEEENS0_9ProjPointIT_EERKS6_S8_
FN:166,_ZN6evmmax3ecceqERKNS0_9ProjPointINS_9secp256r15CurveEEES6_
FN:214,_ZN6evmmax3ecc9to_affineINS_9secp256r15CurveEEENS0_11AffinePointIT_EERKNS0_9ProjPointIS5_EE
FN:81,_ZN6evmmax3eccdvENS0_8ConstantILi1EEERKNS0_12FieldElementINS_9secp256r15CurveEEE
FNDA:12298,_ZN6evmmax3ecc11AffinePointINS_5bn2545CurveEE10from_bytesESt4spanIKhLm64EE
FNDA:24596,_ZN6evmmax3ecc12FieldElementINS_5bn2545CurveEE10from_bytesESt4spanIKhLm32EE
FNDA:31252,_ZN6evmmax3ecc12FieldElementINS_5bn2545CurveEEC2EN4intx4uintILj256EEE
FNDA:17790,_ZN6evmmax3ecc11AffinePointINS_5bn2545CurveEEC2ERKNS0_12FieldElementIS3_EES8_
FNDA:2596,_ZN6evmmax3ecc3addINS_5bn2545CurveEEENS0_11AffinePointIT_EERKS6_S8_
FNDA:138732,_ZN6evmmax3ecceqERKNS0_11AffinePointINS_5bn2545CurveEEENS0_8ConstantILi0EEE
FNDA:230878,_ZN6evmmax3ecceqERKNS0_11AffinePointINS_5bn2545CurveEEES6_
FNDA:197320,_ZN6evmmax3ecceqERKNS0_12FieldElementINS_5bn2545CurveEEES6_
FNDA:2100138,_ZN6evmmax3eccmiERKNS0_12FieldElementINS_5bn2545CurveEEES6_
FNDA:9863838,_ZN6evmmax3ecc12FieldElementINS_5bn2545CurveEE4wrapERKN4intx4uintILj256EEE
FNDA:10150798,_ZN6evmmax3ecc12FieldElementINS_5bn2545CurveEEC2Ev
FNDA:90048,_ZN6evmmax3ecceqERKNS0_12FieldElementINS_5bn2545CurveEEENS0_8ConstantILi0EEE
FNDA:138876,_ZN6evmmax3ecc11AffinePointINS_5bn2545CurveEEC2Ev
FNDA:3213524,_ZN6evmmax3eccmlERKNS0_12FieldElementINS_5bn2545CurveEEES6_
FNDA:4544684,_ZN6evmmax3eccplERKNS0_12FieldElementINS_5bn2545CurveEEES6_
FNDA:888,_ZN6evmmax3eccdvERKNS0_12FieldElementINS_5bn2545CurveEEES6_
FNDA:119106,_ZN6evmmax3ecc11AffinePointINS_9secp256k15CurveEEC2Ev
FNDA:9100686,_ZN6evmmax3ecc12FieldElementINS_9secp256k15CurveEEC2Ev
FNDA:119106,_ZN6evmmax3ecceqERKNS0_11AffinePointINS_9secp256k15CurveEEENS0_8ConstantILi0EEE
FNDA:119118,_ZN6evmmax3ecceqERKNS0_11AffinePointINS_9secp256k15CurveEEES6_
FNDA:119416,_ZN6evmmax3ecceqERKNS0_12FieldElementINS_9secp256k15CurveEEES6_
FNDA:0,_ZN6evmmax3ecc3addINS_9secp256k15CurveEEENS0_11AffinePointIT_EERKS6_S8_
FNDA:1958962,_ZN6evmmax3eccmiERKNS0_12FieldElementINS_9secp256k15CurveEEES6_
FNDA:8859746,_ZN6evmmax3ecc12FieldElementINS_9secp256k15CurveEE4wrapERKN4intx4uintILj256EEE
FNDA:119404,_ZN6evmmax3ecceqERKNS0_12FieldElementINS_9secp256k15CurveEEENS0_8ConstantILi0EEE
FNDA:3054694,_ZN6evmmax3eccmlERKNS0_12FieldElementINS_9secp256k15CurveEEES6_
FNDA:3844044,_ZN6evmmax3eccplERKNS0_12FieldElementINS_9secp256k15CurveEEES6_
FNDA:0,_ZN6evmmax3eccdvERKNS0_12FieldElementINS_9secp256k15CurveEEES6_
FNDA:1364,_ZN6evmmax3ecc11AffinePointINS_9secp256k15CurveEEC2ERKNS0_12FieldElementIS3_EES8_
FNDA:7200,_ZNK6evmmax3ecc11AffinePointINS_5bn2545CurveEE8to_bytesESt4spanIhLm64EE
FNDA:14400,_ZNK6evmmax3ecc12FieldElementINS_5bn2545CurveEE8to_bytesESt4spanIhLm32EE
FNDA:14400,_ZNK6evmmax3ecc12FieldElementINS_5bn2545CurveEE5valueEv
FNDA:4604,_ZN6evmmax3ecc3mulINS_5bn2545CurveEEENS0_9ProjPointIT_EERKNS0_11AffinePointIS5_EENS5_9uint_typeE
FNDA:4604,_ZN6evmmax3ecc9ProjPointINS_5bn2545CurveEEC2Ev
FNDA:315354,_ZN6evmmax3ecc3dblINS_5bn2545CurveEEENS0_9ProjPointIT_EERKS6_
FNDA:401646,_ZN6evmmax3ecc9ProjPointINS_5bn2545CurveEEC2ERKNS0_12FieldElementIS3_EES8_S8_
FNDA:128088,_ZN6evmmax3ecc3addINS_5bn2545CurveEEENS0_9ProjPointIT_EERKS6_RKNS0_11AffinePointIS5_EE
FNDA:88344,_ZN6evmmax3ecceqERKNS0_9ProjPointINS_5bn2545CurveEEENS0_8ConstantILi0EEE
FNDA:2052,_ZN6evmmax3ecc9ProjPointINS_5bn2545CurveEEC2ERKNS0_11AffinePointIS3_EE
FNDA:4604,_ZN6evmmax3ecc9to_affineINS_5bn2545CurveEEENS0_11AffinePointIT_EERKNS0_9ProjPointIS5_EE
FNDA:4604,_ZN6evmmax3eccdvENS0_8ConstantILi1EEERKNS0_12FieldElementINS_5bn2545CurveEEE
FNDA:2520,_ZN6evmmax3ecc8JacPointINS0_12ExtFieldElemINS_5bn2549Fq2ConfigEEEE4fromERKNS0_5PointIS5_EE
FNDA:1518,_ZN6evmmax3ecceqERKNS0_8JacPointINS0_12ExtFieldElemINS_5bn2549Fq2ConfigEEEEES8_
FNDA:2004,_ZN6evmmax3eccngERKNS0_5PointINS0_12ExtFieldElemINS_5bn2549Fq2ConfigEEEEE
FNDA:676,_ZNK6evmmax3ecc11AffinePointINS_9secp256k15CurveEE8to_bytesESt4spanIhLm64EE
FNDA:1352,_ZNK6evmmax3ecc12FieldElementINS_9secp256k15CurveEE8to_bytesESt4spanIhLm32EE
FNDA:1352,_ZNK6evmmax3ecc12FieldElementINS_9secp256k15CurveEE5valueEv
FNDA:1364,_ZN6evmmax3ecc3mulINS_9secp256k15CurveEEENS0_9ProjPointIT_EERKNS0_11AffinePointIS5_EENS5_9uint_typeE
FNDA:1364,_ZN6evmmax3ecc9ProjPointINS_9secp256k15CurveEEC2Ev
FNDA:2344,_ZN6evmmax3ecc12FieldElementINS_9secp256k15CurveEEC2EN4intx4uintILj256EEE
FNDA:250502,_ZN6evmmax3ecc3dblINS_9secp256k15CurveEEENS0_9ProjPointIT_EERKS6_
FNDA:368244,_ZN6evmmax3ecc9ProjPointINS_9secp256k15CurveEEC2ERKNS0_12FieldElementIS3_EES8_S8_
FNDA:118424,_ZN6evmmax3ecc3addINS_9secp256k15CurveEEENS0_9ProjPointIT_EERKS6_RKNS0_11AffinePointIS5_EE
FNDA:119404,_ZN6evmmax3ecceqERKNS0_9ProjPointINS_9secp256k15CurveEEENS0_8ConstantILi0EEE
FNDA:980,_ZN6evmmax3ecc9ProjPointINS_9secp256k15CurveEEC2ERKNS0_11AffinePointIS3_EE
FNDA:682,_ZN6evmmax3ecc9to_affineINS_9secp256k15CurveEEENS0_11AffinePointIT_EERKNS0_9ProjPointIS5_EE
FNDA:682,_ZN6evmmax3eccdvENS0_8ConstantILi1EEERKNS0_12FieldElementINS_9secp256k15CurveEEE
FNDA:682,_ZN6evmmax3ecc3addINS_9secp256k15CurveEEENS0_9ProjPointIT_EERKS6_S8_
FNDA:298,_ZN6evmmax3ecceqERKNS0_9ProjPointINS_9secp256k15CurveEEES6_
FNDA:3232,_ZN6evmmax3ecc12FieldElementINS_9secp256r15CurveEEC2EN4intx4uintILj256EEE
FNDA:1098,_ZN6evmmax3ecc11AffinePointINS_9secp256r15CurveEEC2ERKNS0_12FieldElementIS3_EES8_
FNDA:129840,_ZN6evmmax3ecceqERKNS0_11AffinePointINS_9secp256r15CurveEEENS0_8ConstantILi0EEE
FNDA:129850,_ZN6evmmax3ecceqERKNS0_11AffinePointINS_9secp256r15CurveEEES6_
FNDA:130964,_ZN6evmmax3ecceqERKNS0_12FieldElementINS_9secp256r15CurveEEES6_
FNDA:129840,_ZN6evmmax3ecc11AffinePointINS_9secp256r15CurveEEC2Ev
FNDA:11871930,_ZN6evmmax3ecc12FieldElementINS_9secp256r15CurveEEC2Ev
FNDA:3430272,_ZN6evmmax3eccmlERKNS0_12FieldElementINS_9secp256r15CurveEEES6_
FNDA:11610162,_ZN6evmmax3ecc12FieldElementINS_9secp256r15CurveEE4wrapERKN4intx4uintILj256EEE
FNDA:5903832,_ZN6evmmax3eccplERKNS0_12FieldElementINS_9secp256r15CurveEEES6_
FNDA:522,_ZNK6evmmax3ecc12FieldElementINS_9secp256r15CurveEE5valueEv
FNDA:1044,_ZN6evmmax3ecc3mulINS_9secp256r15CurveEEENS0_9ProjPointIT_EERKNS0_11AffinePointIS5_EENS5_9uint_typeE
FNDA:1044,_ZN6evmmax3ecc9ProjPointINS_9secp256r15CurveEEC2Ev
FNDA:250526,_ZN6evmmax3ecc3dblINS_9secp256r15CurveEEENS0_9ProjPointIT_EERKS6_
FNDA:2275536,_ZN6evmmax3eccmiERKNS0_12FieldElementINS_9secp256r15CurveEEES6_
FNDA:379256,_ZN6evmmax3ecc9ProjPointINS_9secp256r15CurveEEC2ERKNS0_12FieldElementIS3_EES8_S8_
FNDA:129264,_ZN6evmmax3ecc3addINS_9secp256r15CurveEEENS0_9ProjPointIT_EERKS6_RKNS0_11AffinePointIS5_EE
FNDA:130300,_ZN6evmmax3ecceqERKNS0_9ProjPointINS_9secp256r15CurveEEENS0_8ConstantILi0EEE
FNDA:130300,_ZN6evmmax3ecceqERKNS0_12FieldElementINS_9secp256r15CurveEEENS0_8ConstantILi0EEE
FNDA:1036,_ZN6evmmax3ecc9ProjPointINS_9secp256r15CurveEEC2ERKNS0_11AffinePointIS3_EE
FNDA:522,_ZN6evmmax3ecc3addINS_9secp256r15CurveEEENS0_9ProjPointIT_EERKS6_S8_
FNDA:514,_ZN6evmmax3ecceqERKNS0_9ProjPointINS_9secp256r15CurveEEES6_
FNDA:522,_ZN6evmmax3ecc9to_affineINS_9secp256r15CurveEEENS0_11AffinePointIT_EERKNS0_9ProjPointIS5_EE
FNDA:522,_ZN6evmmax3eccdvENS0_8ConstantILi1EEERKNS0_12FieldElementINS_9secp256r15CurveEEE
FNF:33
FNH:33
DA:35,31123414
DA:37,36828
DA:39,16274
DA:42,24596
DA:44,24596
DA:45,24596
DA:48,15752
DA:50,15752
DA:51,15752
DA:56,447700
DA:58,339752
DA:61,9698490
DA:62,9698490
DA:63,9698490
DA:66,14292560
DA:67,14292560
DA:68,14292560
DA:71,6334636
DA:72,6334636
DA:73,6334636
DA:81,5808
DA:82,5808
DA:83,5808
DA:86,888
DA:87,888
DA:88,888
DA:93,30333746
DA:94,30333746
DA:95,30333746
DA:96,30333746
DA:97,30333746
DA:107,2004
DA:119,387822
DA:120,20252
DA:127,1439538
DA:130,387678
DA:131,387678
DA:132,387678
DA:135,12298
DA:136,12298
DA:137,12298
DA:138,12298
DA:139,12298
DA:142,7876
DA:143,7876
DA:144,7876
DA:145,7876
DA:159,7012
DA:160,1149146
DA:161,4068
DA:163,338048
DA:166,812
DA:167,812
DA:168,812
DA:169,812
DA:170,812
DA:171,812
DA:172,812
DA:173,812
DA:174,812
DA:189,1518
DA:190,1518
DA:191,1518
DA:193,1518
DA:194,1518
DA:196,1518
DA:197,1518
DA:203,2520
DA:204,2520
DA:205,2520
DA:214,5808
DA:216,5808
DA:217,5808
DA:218,5808
DA:219,5808
DA:220,5808
DA:227,2596
DA:228,2596
DA:229,1006
DA:230,1590
DA:231,558
DA:233,1032
DA:234,1032
DA:239,1032
DA:240,1032
DA:241,1032
DA:242,672
DA:243,672
DA:244,144
DA:247,528
DA:248,528
DA:249,528
DA:250,528
DA:251,888
DA:253,888
DA:254,888
DA:255,888
DA:256,1032
DA:264,1204
DA:265,1204
DA:266,392
DA:267,812
DA:268,0
DA:270,812
DA:271,12
DA:280,800
DA:281,800
DA:283,800
DA:284,800
DA:285,800
DA:286,800
DA:287,800
DA:288,800
DA:289,800
DA:290,800
DA:291,800
DA:292,800
DA:293,800
DA:294,800
DA:295,800
DA:296,800
DA:297,800
DA:298,800
DA:299,800
DA:300,800
DA:301,800
DA:302,800
DA:303,800
DA:304,800
DA:305,800
DA:306,800
DA:308,800
DA:309,812
DA:317,375776
DA:318,375776
DA:320,375776
DA:321,39744
DA:322,336032
DA:323,4068
DA:328,331964
DA:329,331964
DA:331,331964
DA:332,331964
DA:333,331964
DA:334,331964
DA:335,331964
DA:336,331964
DA:337,331964
DA:338,331964
DA:339,331964
DA:340,331964
DA:341,331964
DA:342,331964
DA:343,331964
DA:344,331964
DA:345,331964
DA:346,331964
DA:347,331964
DA:348,331964
DA:349,331964
DA:350,331964
DA:351,331964
DA:352,331964
DA:354,331964
DA:355,336032
DA:359,816382
DA:360,816382
DA:363,565856
DA:367,565856
DA:368,565856
DA:369,565856
DA:370,565856
DA:371,565856
DA:372,565856
DA:373,565856
DA:374,565856
DA:375,565856
DA:376,565856
DA:377,565856
DA:378,565856
DA:379,565856
DA:380,565856
DA:381,565856
DA:382,565856
DA:383,565856
DA:384,565856
DA:385,565856
DA:388,250526
DA:392,250526
DA:393,250526
DA:394,250526
DA:395,250526
DA:396,250526
DA:397,250526
DA:398,250526
DA:399,250526
DA:400,250526
DA:401,250526
DA:402,250526
DA:403,250526
DA:404,250526
DA:405,250526
DA:406,250526
DA:407,250526
DA:408,250526
DA:409,250526
DA:410,250526
DA:411,250526
DA:412,250526
DA:419,816382
DA:423,7012
DA:424,7012
DA:428,9598
DA:429,9598
DA:430,9598
DA:431,9598
DA:432,7012
DA:433,2586
DA:434,2586
DA:436,7012
DA:437,7012
DA:438,823382
DA:439,816370
DA:440,816370
DA:441,816370
DA:442,375776
DA:443,816370
DA:444,7012
DA:445,7012
BRDA:127,0,0,230878
BRDA:127,0,1,0
BRDA:127,1,2,230878
BRDA:127,1,3,0
BRDA:127,2,4,119118
BRDA:127,2,5,0
BRDA:127,3,6,119118
BRDA:127,3,7,0
BRDA:127,4,8,129850
BRDA:127,4,9,0
BRDA:127,5,10,129850
BRDA:127,5,11,0
BRDA:173,0,0,32
BRDA:173,0,1,482
BRDA:173,1,2,6
BRDA:173,1,3,292
BRDA:173,2,4,12
BRDA:173,2,5,20
BRDA:173,3,6,0
BRDA:173,3,7,6
BRDA:196,0,0,1044
BRDA:196,0,1,474
BRDA:196,1,2,1044
BRDA:196,1,3,0
BRDA:228,0,0,1006
BRDA:228,0,1,1590
BRDA:228,1,2,-
BRDA:228,1,3,-
BRDA:230,0,0,558
BRDA:230,0,1,1032
BRDA:230,1,2,-
BRDA:230,1,3,-
BRDA:241,0,0,672
BRDA:241,0,1,360
BRDA:241,1,2,-
BRDA:241,1,3,-
BRDA:243,0,0,144
BRDA:243,0,1,528
BRDA:243,1,2,-
BRDA:243,1,3,-
BRDA:265,0,0,8
BRDA:265,0,1,514
BRDA:265,1,2,384
BRDA:265,1,3,298
BRDA:267,0,0,0
BRDA:267,0,1,514
BRDA:267,1,2,0
BRDA:267,1,3,298
BRDA:270,0,0,12
BRDA:270,0,1,502
BRDA:270,1,2,0
BRDA:270,1,3,298
BRDA:320,0,0,39744
BRDA:320,0,1,88344
BRDA:320,1,2,0
BRDA:320,1,3,129264
BRDA:320,2,4,0
BRDA:320,2,5,118424
BRDA:322,0,0,980
BRDA:322,0,1,117444
BRDA:322,1,2,1036
BRDA:322,1,3,128228
BRDA:322,2,4,2052
BRDA:322,2,5,86292
BRDA:428,0,0,7190
BRDA:428,0,1,0
BRDA:428,1,2,1044
BRDA:428,1,3,0
BRDA:428,2,4,1364
BRDA:428,2,5,0
BRDA:431,0,0,1044
BRDA:431,0,1,0
BRDA:431,1,2,1364
BRDA:431,1,3,0
BRDA:431,2,4,4604
BRDA:431,2,5,2586
BRDA:438,0,0,250502
BRDA:438,0,1,1364
BRDA:438,1,2,250514
BRDA:438,1,3,1044
BRDA:438,2,4,315354
BRDA:438,2,5,4604
BRDA:441,0,0,118424
BRDA:441,0,1,132078
BRDA:441,1,2,129264
BRDA:441,1,3,121250
BRDA:441,2,4,128088
BRDA:441,2,5,187266
BRF:35
BRH:33
LF:209
LH:208
end_of_record
SF:/home/builder/project/lib/evmone_precompiles/keccak.c
FN:306,keccak.c:select_keccakf1600_implementation
FN:375,ethash_keccak256
FN:382,ethash_keccak256_32
FN:301,keccak.c:keccakf1600_bmi
FN:77,keccak.c:keccakf1600_implementation
FN:53,keccak.c:rol
FN:290,keccak.c:keccakf1600_generic
FN:321,keccak.c:keccak
FN:39,keccak.c:load_le
FNDA:4,keccak.c:select_keccakf1600_implementation
FNDA:42093328,ethash_keccak256
FNDA:0,ethash_keccak256_32
FNDA:60502908,keccak.c:keccakf1600_bmi
FNDA:60502908,keccak.c:keccakf1600_implementation
FNDA:42110023968,keccak.c:rol
FNDA:0,keccak.c:keccakf1600_generic
FNDA:42093328,keccak.c:keccak
FNDA:567417998,keccak.c:load_le
FNF:9
FNH:7
DA:34,777884638
DA:39,567417998
DA:45,567417998
DA:46,567417998
DA:47,567417998
DA:48,567417998
DA:53,42110023968
DA:54,42110023968
DA:55,42110023968
DA:77,60502908
DA:78,60502908
DA:79,60502908
DA:80,60502908
DA:81,60502908
DA:82,60502908
DA:84,60502908
DA:85,60502908
DA:86,60502908
DA:87,60502908
DA:88,60502908
DA:90,60502908
DA:92,60502908
DA:94,60502908
DA:95,60502908
DA:96,60502908
DA:97,60502908
DA:98,60502908
DA:99,60502908
DA:100,60502908
DA:101,60502908
DA:102,60502908
DA:103,60502908
DA:104,60502908
DA:105,60502908
DA:106,60502908
DA:107,60502908
DA:108,60502908
DA:109,60502908
DA:110,60502908
DA:111,60502908
DA:112,60502908
DA:113,60502908
DA:114,60502908
DA:115,60502908
DA:116,60502908
DA:117,60502908
DA:118,60502908
DA:120,786537804
DA:121,726034896
DA:124,726034896
DA:125,726034896
DA:126,726034896
DA:127,726034896
DA:128,726034896
DA:130,726034896
DA:131,726034896
DA:132,726034896
DA:133,726034896
DA:134,726034896
DA:136,726034896
DA:137,726034896
DA:138,726034896
DA:139,726034896
DA:140,726034896
DA:141,726034896
DA:142,726034896
DA:143,726034896
DA:144,726034896
DA:145,726034896
DA:147,726034896
DA:148,726034896
DA:149,726034896
DA:150,726034896
DA:151,726034896
DA:152,726034896
DA:153,726034896
DA:154,726034896
DA:155,726034896
DA:156,726034896
DA:158,726034896
DA:159,726034896
DA:160,726034896
DA:161,726034896
DA:162,726034896
DA:163,726034896
DA:164,726034896
DA:165,726034896
DA:166,726034896
DA:167,726034896
DA:169,726034896
DA:170,726034896
DA:171,726034896
DA:172,726034896
DA:173,726034896
DA:174,726034896
DA:175,726034896
DA:176,726034896
DA:177,726034896
DA:178,726034896
DA:180,726034896
DA:181,726034896
DA:182,726034896
DA:183,726034896
DA:184,726034896
DA:185,726034896
DA:186,726034896
DA:187,726034896
DA:188,726034896
DA:189,726034896
DA:194,726034896
DA:195,726034896
DA:196,726034896
DA:197,726034896
DA:198,726034896
DA:200,726034896
DA:201,726034896
DA:202,726034896
DA:203,726034896
DA:204,726034896
DA:206,726034896
DA:207,726034896
DA:208,726034896
DA:209,726034896
DA:210,726034896
DA:211,726034896
DA:212,726034896
DA:213,726034896
DA:214,726034896
DA:215,726034896
DA:217,726034896
DA:218,726034896
DA:219,726034896
DA:220,726034896
DA:221,726034896
DA:222,726034896
DA:223,726034896
DA:224,726034896
DA:225,726034896
DA:226,726034896
DA:228,726034896
DA:229,726034896
DA:230,726034896
DA:231,726034896
DA:232,726034896
DA:233,726034896
DA:234,726034896
DA:235,726034896
DA:236,726034896
DA:237,726034896
DA:239,726034896
DA:240,726034896
DA:241,726034896
DA:242,726034896
DA:243,726034896
DA:244,726034896
DA:245,726034896
DA:246,726034896
DA:247,726034896
DA:248,726034896
DA:250,726034896
DA:251,726034896
DA:252,726034896
DA:253,726034896
DA:254,726034896
DA:255,726034896
DA:256,726034896
DA:257,726034896
DA:258,726034896
DA:259,726034896
DA:260,726034896
DA:262,60502908
DA:263,60502908
DA:264,60502908
DA:265,60502908
DA:266,60502908
DA:267,60502908
DA:268,60502908
DA:269,60502908
DA:270,60502908
DA:271,60502908
DA:272,60502908
DA:273,60502908
DA:274,60502908
DA:275,60502908
DA:276,60502908
DA:277,60502908
DA:278,60502908
DA:279,60502908
DA:280,60502908
DA:281,60502908
DA:282,60502908
DA:283,60502908
DA:284,60502908
DA:285,60502908
DA:286,60502908
DA:287,60502908
DA:290,0
DA:291,0
DA:292,0
DA:301,60502908
DA:302,60502908
DA:303,60502908
DA:306,4
DA:309,4
DA:313,4
DA:314,4
DA:315,4
DA:321,42093328
DA:322,42093328
DA:323,42093328
DA:324,42093328
DA:326,42093328
DA:327,42093328
DA:328,42093328
DA:329,42093328
DA:331,42093328
DA:333,60502908
DA:334,18409580
DA:335,331372440
DA:336,312962860
DA:337,312962860
DA:338,312962860
DA:339,312962860
DA:341,18409580
DA:343,18409580
DA:344,18409580
DA:346,42093328
DA:348,296548466
DA:349,254455138
DA:350,254455138
DA:351,254455138
DA:352,254455138
DA:353,254455138
DA:354,254455138
DA:356,149984644
DA:357,107891316
DA:358,107891316
DA:359,107891316
DA:360,107891316
DA:361,107891316
DA:362,107891316
DA:363,42093328
DA:364,42093328
DA:366,42093328
DA:368,42093328
DA:370,210466640
DA:371,168373312
DA:372,42093328
DA:375,42093328
DA:376,42093328
DA:377,42093328
DA:378,42093328
DA:379,42093328
DA:382,0
DA:383,0
DA:384,0
DA:385,0
DA:386,0
BRDA:120,0,0,726034896
BRDA:120,0,1,60502908
BRDA:313,0,0,4
BRDA:313,0,1,0
BRDA:313,1,2,4
BRDA:313,1,3,0
BRDA:333,0,0,18409580
BRDA:333,0,1,42093328
BRDA:335,0,0,312962860
BRDA:335,0,1,18409580
BRDA:348,0,0,254455138
BRDA:348,0,1,42093328
BRDA:356,0,0,107891316
BRDA:356,0,1,42093328
BRDA:370,0,0,168373312
BRDA:370,0,1,42093328
BRF:16
BRH:14
LF:257
LH:249
end_of_record
SF:/home/builder/project/lib/evmone_precompiles/keccak.hpp
FN:12,_ZN6ethash9keccak256EPKhm
FN:17,_ZN6ethash9keccak256ERK14ethash_hash256
FNDA:42093328,_ZN6ethash9keccak256EPKhm
FNDA:0,_ZN6ethash9keccak256ERK14ethash_hash256
FNF:2
FNH:1
DA:12,42093328
DA:13,42093328
DA:14,42093328
DA:17,0
DA:18,0
DA:19,0
BRF:0
BRH:0
LF:6
LH:3
end_of_record
SF:/home/builder/project/lib/evmone_precompiles/kzg.cpp
FN:126,_ZN6evmone6crypto16kzg_verify_proofEPKSt4byteS3_S3_S3_S3_
FN:57,kzg.cpp:_ZN6evmone6crypto12_GLOBAL__N_115validate_scalarESt4spanIKSt4byteLm32EE
FN:65,kzg.cpp:_ZN6evmone6crypto12_GLOBAL__N_111validate_G1ESt4spanIKSt4byteLm48EE
FN:89,kzg.cpp:_ZN6evmone6crypto12_GLOBAL__N_14multERK7blst_p1RK11blst_scalar
FN:80,kzg.cpp:_ZN6evmone6crypto12_GLOBAL__N_113add_or_doubleERK14blst_p1_affineRK7blst_p1
FN:107,kzg.cpp:_ZN6evmone6crypto12_GLOBAL__N_14multERK7blst_p2RK11blst_scalar
FN:98,kzg.cpp:_ZN6evmone6crypto12_GLOBAL__N_113add_or_doubleERK14blst_p2_affineRK7blst_p2
FN:115,kzg.cpp:_ZN6evmone6crypto12_GLOBAL__N_115pairings_verifyERK14blst_p1_affineS4_RK14blst_p2_affine
FNDA:906,_ZN6evmone6crypto16kzg_verify_proofEPKSt4byteS3_S3_S3_S3_
FNDA:1734,kzg.cpp:_ZN6evmone6crypto12_GLOBAL__N_115validate_scalarESt4spanIKSt4byteLm32EE
FNDA:1626,kzg.cpp:_ZN6evmone6crypto12_GLOBAL__N_111validate_G1ESt4spanIKSt4byteLm48EE
FNDA:792,kzg.cpp:_ZN6evmone6crypto12_GLOBAL__N_14multERK7blst_p1RK11blst_scalar
FNDA:792,kzg.cpp:_ZN6evmone6crypto12_GLOBAL__N_113add_or_doubleERK14blst_p1_affineRK7blst_p1
FNDA:792,kzg.cpp:_ZN6evmone6crypto12_GLOBAL__N_14multERK7blst_p2RK11blst_scalar
FNDA:792,kzg.cpp:_ZN6evmone6crypto12_GLOBAL__N_113add_or_doubleERK14blst_p2_affineRK7blst_p2
FNDA:792,kzg.cpp:_ZN6evmone6crypto12_GLOBAL__N_115pairings_verifyERK14blst_p1_affineS4_RK14blst_p2_affine
FNF:8
FNH:8
DA:57,1734
DA:58,1734
DA:59,1734
DA:60,1734
DA:61,1734
DA:65,1626
DA:66,1626
DA:67,1626
DA:68,18
DA:72,1608
DA:73,12
DA:74,1596
DA:75,1608
DA:80,792
DA:81,792
DA:82,792
DA:83,792
DA:84,792
DA:85,792
DA:86,792
DA:89,792
DA:90,792
DA:91,792
DA:92,792
DA:93,792
DA:98,792
DA:99,792
DA:100,792
DA:101,792
DA:102,792
DA:103,792
DA:104,792
DA:107,792
DA:108,792
DA:109,792
DA:110,792
DA:111,792
DA:115,792
DA:116,792
DA:117,792
DA:118,792
DA:119,792
DA:120,792
DA:121,792
DA:126,906
DA:127,906
DA:128,906
DA:129,906
DA:130,906
DA:131,24
DA:135,882
DA:136,882
DA:137,30
DA:138,852
DA:139,852
DA:140,30
DA:146,822
DA:147,822
DA:148,18
DA:149,804
DA:150,804
DA:151,12
DA:154,792
DA:157,792
DA:160,792
DA:163,792
DA:166,792
DA:167,804
BRDA:60,0,0,1674
BRDA:60,0,1,60
BRDA:67,0,0,18
BRDA:67,0,1,1608
BRDA:72,0,0,12
BRDA:72,0,1,1596
BRDA:130,0,0,24
BRDA:130,0,1,882
BRDA:136,0,0,30
BRDA:136,0,1,852
BRDA:139,0,0,30
BRDA:139,0,1,822
BRDA:147,0,0,18
BRDA:147,0,1,804
BRDA:150,0,0,12
BRDA:150,0,1,792
BRF:16
BRH:16
LF:68
LH:68
end_of_record
SF:/home/builder/project/lib/evmone_precompiles/modexp.cpp
FN:140,_ZN6evmone6crypto6modexpESt4spanIKhLm18446744073709551615EES3_S3_Ph
FN:145,modexp.cpp:_ZZN6evmone6crypto6modexpESt4spanIKhLm18446744073709551615EES3_S3_PhENK3$_0clIhEEDaT_
FN:107,modexp.cpp:_ZN12_GLOBAL__N_111modexp_implILm16EEEvSt4spanIKhLm18446744073709551615EES3_S3_Ph
FN:96,modexp.cpp:_ZN12_GLOBAL__N_14loadIN4intx4uintILj128EEEEET_St4spanIKhLm18446744073709551615EE
FN:23,modexp.cpp:_ZN12_GLOBAL__N_13ctzILj128EEEjRKN4intx4uintIXT_EEE
FN:39,modexp.cpp:_ZN12_GLOBAL__N_110modexp_oddIN4intx4uintILj128EEEEET_RKS4_St4spanIKhLm18446744073709551615EES6_
FN:60,modexp.cpp:_ZN12_GLOBAL__N_111modexp_pow2IN4intx4uintILj128EEEEET_RKS4_St4spanIKhLm18446744073709551615EEj
FN:82,modexp.cpp:_ZN12_GLOBAL__N_111modinv_pow2IN4intx4uintILj128EEEEET_RKS4_j
FN:15,modexp.cpp:_ZN12_GLOBAL__N_15truncILj128EEEvSt4spanIhLm18446744073709551615EERKN4intx4uintIXT_EEE
FN:107,modexp.cpp:_ZN12_GLOBAL__N_111modexp_implILm32EEEvSt4spanIKhLm18446744073709551615EES3_S3_Ph
FN:96,modexp.cpp:_ZN12_GLOBAL__N_14loadIN4intx4uintILj256EEEEET_St4spanIKhLm18446744073709551615EE
FN:23,modexp.cpp:_ZN12_GLOBAL__N_13ctzILj256EEEjRKN4intx4uintIXT_EEE
FN:39,modexp.cpp:_ZN12_GLOBAL__N_110modexp_oddIN4intx4uintILj256EEEEET_RKS4_St4spanIKhLm18446744073709551615EES6_
FN:60,modexp.cpp:_ZN12_GLOBAL__N_111modexp_pow2IN4intx4uintILj256EEEEET_RKS4_St4spanIKhLm18446744073709551615EEj
FN:82,modexp.cpp:_ZN12_GLOBAL__N_111modinv_pow2IN4intx4uintILj256EEEEET_RKS4_j
FN:15,modexp.cpp:_ZN12_GLOBAL__N_15truncILj256EEEvSt4spanIhLm18446744073709551615EERKN4intx4uintIXT_EEE
FN:107,modexp.cpp:_ZN12_GLOBAL__N_111modexp_implILm64EEEvSt4spanIKhLm18446744073709551615EES3_S3_Ph
FN:96,modexp.cpp:_ZN12_GLOBAL__N_14loadIN4intx4uintILj512EEEEET_St4spanIKhLm18446744073709551615EE
FN:23,modexp.cpp:_ZN12_GLOBAL__N_13ctzILj512EEEjRKN4intx4uintIXT_EEE
FN:39,modexp.cpp:_ZN12_GLOBAL__N_110modexp_oddIN4intx4uintILj512EEEEET_RKS4_St4spanIKhLm18446744073709551615EES6_
FN:60,modexp.cpp:_ZN12_GLOBAL__N_111modexp_pow2IN4intx4uintILj512EEEEET_RKS4_St4spanIKhLm18446744073709551615EEj
FN:82,modexp.cpp:_ZN12_GLOBAL__N_111modinv_pow2IN4intx4uintILj512EEEEET_RKS4_j
FN:15,modexp.cpp:_ZN12_GLOBAL__N_15truncILj512EEEvSt4spanIhLm18446744073709551615EERKN4intx4uintIXT_EEE
FN:107,modexp.cpp:_ZN12_GLOBAL__N_111modexp_implILm128EEEvSt4spanIKhLm18446744073709551615EES3_S3_Ph
FN:96,modexp.cpp:_ZN12_GLOBAL__N_14loadIN4intx4uintILj1024EEEEET_St4spanIKhLm18446744073709551615EE
FN:23,modexp.cpp:_ZN12_GLOBAL__N_13ctzILj1024EEEjRKN4intx4uintIXT_EEE
FN:39,modexp.cpp:_ZN12_GLOBAL__N_110modexp_oddIN4intx4uintILj1024EEEEET_RKS4_St4spanIKhLm18446744073709551615EES6_
FN:60,modexp.cpp:_ZN12_GLOBAL__N_111modexp_pow2IN4intx4uintILj1024EEEEET_RKS4_St4spanIKhLm18446744073709551615EEj
FN:82,modexp.cpp:_ZN12_GLOBAL__N_111modinv_pow2IN4intx4uintILj1024EEEEET_RKS4_j
FN:15,modexp.cpp:_ZN12_GLOBAL__N_15truncILj1024EEEvSt4spanIhLm18446744073709551615EERKN4intx4uintIXT_EEE
FN:107,modexp.cpp:_ZN12_GLOBAL__N_111modexp_implILm256EEEvSt4spanIKhLm18446744073709551615EES3_S3_Ph
FN:96,modexp.cpp:_ZN12_GLOBAL__N_14loadIN4intx4uintILj2048EEEEET_St4spanIKhLm18446744073709551615EE
FN:23,modexp.cpp:_ZN12_GLOBAL__N_13ctzILj2048EEEjRKN4intx4uintIXT_EEE
FN:39,modexp.cpp:_ZN12_GLOBAL__N_110modexp_oddIN4intx4uintILj2048EEEEET_RKS4_St4spanIKhLm18446744073709551615EES6_
FN:60,modexp.cpp:_ZN12_GLOBAL__N_111modexp_pow2IN4intx4uintILj2048EEEEET_RKS4_St4spanIKhLm18446744073709551615EEj
FN:82,modexp.cpp:_ZN12_GLOBAL__N_111modinv_pow2IN4intx4uintILj2048EEEEET_RKS4_j
FN:15,modexp.cpp:_ZN12_GLOBAL__N_15truncILj2048EEEvSt4spanIhLm18446744073709551615EERKN4intx4uintIXT_EEE
FN:107,modexp.cpp:_ZN12_GLOBAL__N_111modexp_implILm1024EEEvSt4spanIKhLm18446744073709551615EES3_S3_Ph
FN:96,modexp.cpp:_ZN12_GLOBAL__N_14loadIN4intx4uintILj8192EEEEET_St4spanIKhLm18446744073709551615EE
FN:23,modexp.cpp:_ZN12_GLOBAL__N_13ctzILj8192EEEjRKN4intx4uintIXT_EEE
FN:39,modexp.cpp:_ZN12_GLOBAL__N_110modexp_oddIN4intx4uintILj8192EEEEET_RKS4_St4spanIKhLm18446744073709551615EES6_
FN:60,modexp.cpp:_ZN12_GLOBAL__N_111modexp_pow2IN4intx4uintILj8192EEEEET_RKS4_St4spanIKhLm18446744073709551615EEj
FN:82,modexp.cpp:_ZN12_GLOBAL__N_111modinv_pow2IN4intx4uintILj8192EEEEET_RKS4_j
FN:15,modexp.cpp:_ZN12_GLOBAL__N_15truncILj8192EEEvSt4spanIhLm18446744073709551615EERKN4intx4uintIXT_EEE
FNDA:2909,_ZN6evmone6crypto6modexpESt4spanIKhLm18446744073709551615EES3_S3_Ph
FNDA:66695,modexp.cpp:_ZZN6evmone6crypto6modexpESt4spanIKhLm18446744073709551615EES3_S3_PhENK3$_0clIhEEDaT_
FNDA:856,modexp.cpp:_ZN12_GLOBAL__N_111modexp_implILm16EEEvSt4spanIKhLm18446744073709551615EES3_S3_Ph
FNDA:1712,modexp.cpp:_ZN12_GLOBAL__N_14loadIN4intx4uintILj128EEEEET_St4spanIKhLm18446744073709551615EE
FNDA:856,modexp.cpp:_ZN12_GLOBAL__N_13ctzILj128EEEjRKN4intx4uintIXT_EEE
FNDA:590,modexp.cpp:_ZN12_GLOBAL__N_110modexp_oddIN4intx4uintILj128EEEEET_RKS4_St4spanIKhLm18446744073709551615EES6_
FNDA:610,modexp.cpp:_ZN12_GLOBAL__N_111modexp_pow2IN4intx4uintILj128EEEEET_RKS4_St4spanIKhLm18446744073709551615EEj
FNDA:344,modexp.cpp:_ZN12_GLOBAL__N_111modinv_pow2IN4intx4uintILj128EEEEET_RKS4_j
FNDA:856,modexp.cpp:_ZN12_GLOBAL__N_15truncILj128EEEvSt4spanIhLm18446744073709551615EERKN4intx4uintIXT_EEE
FNDA:1190,modexp.cpp:_ZN12_GLOBAL__N_111modexp_implILm32EEEvSt4spanIKhLm18446744073709551615EES3_S3_Ph
FNDA:2380,modexp.cpp:_ZN12_GLOBAL__N_14loadIN4intx4uintILj256EEEEET_St4spanIKhLm18446744073709551615EE
FNDA:1190,modexp.cpp:_ZN12_GLOBAL__N_13ctzILj256EEEjRKN4intx4uintIXT_EEE
FNDA:842,modexp.cpp:_ZN12_GLOBAL__N_110modexp_oddIN4intx4uintILj256EEEEET_RKS4_St4spanIKhLm18446744073709551615EES6_
FNDA:602,modexp.cpp:_ZN12_GLOBAL__N_111modexp_pow2IN4intx4uintILj256EEEEET_RKS4_St4spanIKhLm18446744073709551615EEj
FNDA:254,modexp.cpp:_ZN12_GLOBAL__N_111modinv_pow2IN4intx4uintILj256EEEEET_RKS4_j
FNDA:1190,modexp.cpp:_ZN12_GLOBAL__N_15truncILj256EEEvSt4spanIhLm18446744073709551615EERKN4intx4uintIXT_EEE
FNDA:593,modexp.cpp:_ZN12_GLOBAL__N_111modexp_implILm64EEEvSt4spanIKhLm18446744073709551615EES3_S3_Ph
FNDA:1186,modexp.cpp:_ZN12_GLOBAL__N_14loadIN4intx4uintILj512EEEEET_St4spanIKhLm18446744073709551615EE
FNDA:593,modexp.cpp:_ZN12_GLOBAL__N_13ctzILj512EEEjRKN4intx4uintIXT_EEE
FNDA:551,modexp.cpp:_ZN12_GLOBAL__N_110modexp_oddIN4intx4uintILj512EEEEET_RKS4_St4spanIKhLm18446744073709551615EES6_
FNDA:210,modexp.cpp:_ZN12_GLOBAL__N_111modexp_pow2IN4intx4uintILj512EEEEET_RKS4_St4spanIKhLm18446744073709551615EEj
FNDA:168,modexp.cpp:_ZN12_GLOBAL__N_111modinv_pow2IN4intx4uintILj512EEEEET_RKS4_j
FNDA:593,modexp.cpp:_ZN12_GLOBAL__N_15truncILj512EEEvSt4spanIhLm18446744073709551615EERKN4intx4uintIXT_EEE
FNDA:42,modexp.cpp:_ZN12_GLOBAL__N_111modexp_implILm128EEEvSt4spanIKhLm18446744073709551615EES3_S3_Ph
FNDA:84,modexp.cpp:_ZN12_GLOBAL__N_14loadIN4intx4uintILj1024EEEEET_St4spanIKhLm18446744073709551615EE
FNDA:42,modexp.cpp:_ZN12_GLOBAL__N_13ctzILj1024EEEjRKN4intx4uintIXT_EEE
FNDA:42,modexp.cpp:_ZN12_GLOBAL__N_110modexp_oddIN4intx4uintILj1024EEEEET_RKS4_St4spanIKhLm18446744073709551615EES6_
FNDA:0,modexp.cpp:_ZN12_GLOBAL__N_111modexp_pow2IN4intx4uintILj1024EEEEET_RKS4_St4spanIKhLm18446744073709551615EEj
FNDA:0,modexp.cpp:_ZN12_GLOBAL__N_111modinv_pow2IN4intx4uintILj1024EEEEET_RKS4_j
FNDA:42,modexp.cpp:_ZN12_GLOBAL__N_15truncILj1024EEEvSt4spanIhLm18446744073709551615EERKN4intx4uintIXT_EEE
FNDA:70,modexp.cpp:_ZN12_GLOBAL__N_111modexp_implILm256EEEvSt4spanIKhLm18446744073709551615EES3_S3_Ph
FNDA:140,modexp.cpp:_ZN12_GLOBAL__N_14loadIN4intx4uintILj2048EEEEET_St4spanIKhLm18446744073709551615EE
FNDA:70,modexp.cpp:_ZN12_GLOBAL__N_13ctzILj2048EEEjRKN4intx4uintIXT_EEE
FNDA:70,modexp.cpp:_ZN12_GLOBAL__N_110modexp_oddIN4intx4uintILj2048EEEEET_RKS4_St4spanIKhLm18446744073709551615EES6_
FNDA:14,modexp.cpp:_ZN12_GLOBAL__N_111modexp_pow2IN4intx4uintILj2048EEEEET_RKS4_St4spanIKhLm18446744073709551615EEj
FNDA:14,modexp.cpp:_ZN12_GLOBAL__N_111modinv_pow2IN4intx4uintILj2048EEEEET_RKS4_j
FNDA:70,modexp.cpp:_ZN12_GLOBAL__N_15truncILj2048EEEvSt4spanIhLm18446744073709551615EERKN4intx4uintIXT_EEE
FNDA:158,modexp.cpp:_ZN12_GLOBAL__N_111modexp_implILm1024EEEvSt4spanIKhLm18446744073709551615EES3_S3_Ph
FNDA:316,modexp.cpp:_ZN12_GLOBAL__N_14loadIN4intx4uintILj8192EEEEET_St4spanIKhLm18446744073709551615EE
FNDA:158,modexp.cpp:_ZN12_GLOBAL__N_13ctzILj8192EEEjRKN4intx4uintIXT_EEE
FNDA:156,modexp.cpp:_ZN12_GLOBAL__N_110modexp_oddIN4intx4uintILj8192EEEEET_RKS4_St4spanIKhLm18446744073709551615EES6_
FNDA:20,modexp.cpp:_ZN12_GLOBAL__N_111modexp_pow2IN4intx4uintILj8192EEEEET_RKS4_St4spanIKhLm18446744073709551615EEj
FNDA:18,modexp.cpp:_ZN12_GLOBAL__N_111modinv_pow2IN4intx4uintILj8192EEEEET_RKS4_j
FNDA:158,modexp.cpp:_ZN12_GLOBAL__N_15truncILj8192EEEvSt4spanIhLm18446744073709551615EERKN4intx4uintIXT_EEE
FNF:9
FNH:9
DA:15,2909
DA:16,2909
DA:17,2909
DA:18,2909
DA:19,2909
DA:23,2909
DA:24,2909
DA:25,4221
DA:26,4221
DA:27,4221
DA:28,2909
DA:29,2909
DA:30,2909
DA:31,2909
DA:32,1312
DA:33,1312
DA:34,2909
DA:35,2909
DA:39,2251
DA:40,2251
DA:41,2251
DA:43,2251
DA:44,2251
DA:45,40378
DA:46,363402
DA:47,323024
DA:48,323024
DA:49,323024
DA:50,323024
DA:51,229047
DA:52,323024
DA:53,40378
DA:55,2251
DA:56,2251
DA:60,1456
DA:61,1456
DA:62,1456
DA:63,1456
DA:64,23230
DA:65,209070
DA:66,185840
DA:67,185840
DA:68,185840
DA:69,185840
DA:70,119390
DA:71,185840
DA:72,23230
DA:74,1456
DA:75,1456
DA:76,1456
DA:77,1456
DA:82,798
DA:83,798
DA:84,798
DA:85,57030
DA:86,56232
DA:87,56232
DA:88,56232
DA:89,56232
DA:90,56232
DA:91,798
DA:92,798
DA:96,5818
DA:97,5818
DA:98,5818
DA:99,5818
DA:100,5818
DA:101,5818
DA:102,5818
DA:107,2909
DA:108,2909
DA:109,2909
DA:110,2909
DA:112,2909
DA:113,2909
DA:114,1453
DA:115,1453
DA:116,1453
DA:117,1456
DA:118,658
DA:119,658
DA:120,658
DA:121,798
DA:122,798
DA:123,798
DA:124,798
DA:126,798
DA:128,798
DA:129,798
DA:130,798
DA:132,2909
DA:133,2909
DA:140,2909
DA:141,2909
DA:142,2909
DA:143,2909
DA:145,66695
DA:146,2909
DA:148,2909
DA:149,856
DA:150,2053
DA:151,1190
DA:152,863
DA:153,593
DA:154,270
DA:155,42
DA:156,228
DA:157,70
DA:158,158
DA:159,158
DA:160,2909
BRDA:25,0,0,70
BRDA:25,0,1,0
BRDA:25,1,2,42
BRDA:25,1,3,0
BRDA:25,2,4,1676
BRDA:25,2,5,0
BRDA:25,3,6,593
BRDA:25,3,7,0
BRDA:25,4,8,870
BRDA:25,4,9,0
BRDA:25,5,10,970
BRDA:25,5,11,0
BRDA:27,0,0,1190
BRDA:27,0,1,486
BRDA:27,1,2,42
BRDA:27,1,3,0
BRDA:27,2,4,856
BRDA:27,2,5,14
BRDA:27,3,6,158
BRDA:27,3,7,812
BRDA:27,4,8,70
BRDA:27,4,9,0
BRDA:27,5,10,593
BRDA:27,5,11,0
BRDA:44,0,0,12724
BRDA:44,0,1,842
BRDA:44,1,2,5224
BRDA:44,1,3,551
BRDA:44,2,4,18510
BRDA:44,2,5,590
BRDA:44,3,6,182
BRDA:44,3,7,156
BRDA:44,4,8,3668
BRDA:44,4,9,70
BRDA:44,5,10,70
BRDA:44,5,11,42
BRDA:46,0,0,41792
BRDA:46,0,1,5224
BRDA:46,1,2,29344
BRDA:46,1,3,3668
BRDA:46,2,4,560
BRDA:46,2,5,70
BRDA:46,3,6,101792
BRDA:46,3,7,12724
BRDA:46,4,8,1456
BRDA:46,4,9,182
BRDA:46,5,10,148080
BRDA:46,5,11,18510
BRDA:50,0,0,73144
BRDA:50,0,1,28648
BRDA:50,1,2,196
BRDA:50,1,3,1260
BRDA:50,2,4,14910
BRDA:50,2,5,14434
BRDA:50,3,6,70
BRDA:50,3,7,490
BRDA:50,4,8,30835
BRDA:50,4,9,10957
BRDA:50,5,10,109892
BRDA:50,5,11,38188
BRDA:63,0,0,15636
BRDA:63,0,1,610
BRDA:63,1,2,3584
BRDA:63,1,3,14
BRDA:63,2,4,1008
BRDA:63,2,5,210
BRDA:63,3,6,-
BRDA:63,3,7,-
BRDA:63,4,8,2988
BRDA:63,4,9,602
BRDA:63,5,10,14
BRDA:63,5,11,20
BRDA:65,0,0,125088
BRDA:65,0,1,15636
BRDA:65,1,2,8064
BRDA:65,1,3,1008
BRDA:65,2,4,28672
BRDA:65,2,5,3584
BRDA:65,3,6,-
BRDA:65,3,7,-
BRDA:65,4,8,23904
BRDA:65,4,9,2988
BRDA:65,5,10,112
BRDA:65,5,11,14
BRDA:69,0,0,-
BRDA:69,0,1,-
BRDA:69,1,2,10996
BRDA:69,1,3,12908
BRDA:69,2,4,5376
BRDA:69,2,5,2688
BRDA:69,3,6,14812
BRDA:69,3,7,13860
BRDA:69,4,8,88192
BRDA:69,4,9,36896
BRDA:69,5,10,14
BRDA:69,5,11,98
BRDA:85,0,0,52420
BRDA:85,0,1,18
BRDA:85,1,2,42
BRDA:85,1,3,14
BRDA:85,2,4,-
BRDA:85,2,5,-
BRDA:85,3,6,2502
BRDA:85,3,7,344
BRDA:85,4,8,196
BRDA:85,4,9,168
BRDA:85,5,10,1072
BRDA:85,5,11,254
BRDA:113,0,0,56
BRDA:113,0,1,14
BRDA:113,1,2,246
BRDA:113,1,3,610
BRDA:113,2,4,588
BRDA:113,2,5,602
BRDA:113,3,6,138
BRDA:113,3,7,20
BRDA:113,4,8,383
BRDA:113,4,9,210
BRDA:113,5,10,42
BRDA:113,5,11,0
BRDA:117,0,0,348
BRDA:117,0,1,254
BRDA:117,1,2,42
BRDA:117,1,3,168
BRDA:117,2,4,2
BRDA:117,2,5,18
BRDA:117,3,6,-
BRDA:117,3,7,-
BRDA:117,4,8,266
BRDA:117,4,9,344
BRDA:117,5,10,0
BRDA:117,5,11,14
BRDA:148,0,0,856
BRDA:148,0,1,2053
BRDA:150,0,0,1190
BRDA:150,0,1,863
BRDA:152,0,0,593
BRDA:152,0,1,270
BRDA:154,0,0,42
BRDA:154,0,1,228
BRDA:156,0,0,70
BRDA:156,0,1,158
BRF:32
BRH:31
LF:110
LH:110
end_of_record
SF:/home/builder/project/lib/evmone_precompiles/pairing/bn254/fields.hpp
FN:64,_ZN6evmmax5bn2548multiplyERKNS_3ecc12ExtFieldElemINS0_9Fq2ConfigEEES6_
FN:96,_ZN6evmmax5bn2548multiplyERKNS_3ecc12ExtFieldElemINS0_10Fq12ConfigEEES6_
FN:73,_ZN6evmmax5bn2548multiplyERKNS_3ecc12ExtFieldElemINS0_9Fq6ConfigEEES6_
FN:165,_ZN6evmmax5bn2547inverseERKNS_3ecc12ExtFieldElemINS0_10Fq12ConfigEEE
FN:138,_ZN6evmmax5bn2547inverseERKNS_3ecc12ExtFieldElemINS0_9Fq6ConfigEEE
FN:121,_ZN6evmmax5bn2547inverseERKNS_3ecc12ExtFieldElemINS0_9Fq2ConfigEEE
FN:115,_ZN6evmmax5bn2547inverseERKNS_3ecc13BaseFieldElemINS0_15BaseFieldConfigEEE
FNDA:7542774,_ZN6evmmax5bn2548multiplyERKNS_3ecc12ExtFieldElemINS0_9Fq2ConfigEEES6_
FNDA:35058,_ZN6evmmax5bn2548multiplyERKNS_3ecc12ExtFieldElemINS0_10Fq12ConfigEEES6_
FNDA:235494,_ZN6evmmax5bn2548multiplyERKNS_3ecc12ExtFieldElemINS0_9Fq6ConfigEEES6_
FNDA:516,_ZN6evmmax5bn2547inverseERKNS_3ecc12ExtFieldElemINS0_10Fq12ConfigEEE
FNDA:516,_ZN6evmmax5bn2547inverseERKNS_3ecc12ExtFieldElemINS0_9Fq6ConfigEEE
FNDA:516,_ZN6evmmax5bn2547inverseERKNS_3ecc12ExtFieldElemINS0_9Fq2ConfigEEE
FNDA:516,_ZN6evmmax5bn2547inverseERKNS_3ecc13BaseFieldElemINS0_15BaseFieldConfigEEE
FNF:7
FNH:7
DA:64,7542774
DA:65,7542774
DA:66,7542774
DA:67,7542774
DA:68,7542774
DA:69,7542774
DA:73,235494
DA:74,235494
DA:75,235494
DA:76,235494
DA:77,235494
DA:78,235494
DA:79,235494
DA:81,235494
DA:83,235494
DA:84,235494
DA:85,235494
DA:87,235494
DA:88,235494
DA:89,235494
DA:91,235494
DA:92,235494
DA:96,35058
DA:97,35058
DA:98,35058
DA:99,35058
DA:100,35058
DA:102,35058
DA:103,35058
DA:105,35058
DA:107,35058
DA:108,35058
DA:110,35058
DA:111,35058
DA:115,516
DA:116,516
DA:117,516
DA:121,516
DA:122,516
DA:123,516
DA:124,516
DA:125,516
DA:127,516
DA:128,516
DA:130,516
DA:131,516
DA:133,516
DA:134,516
DA:138,516
DA:139,516
DA:140,516
DA:141,516
DA:143,516
DA:145,516
DA:146,516
DA:147,516
DA:149,516
DA:150,516
DA:151,516
DA:153,516
DA:154,516
DA:155,516
DA:157,516
DA:158,516
DA:160,516
DA:161,516
DA:165,516
DA:166,516
DA:167,516
DA:169,516
DA:170,516
DA:172,516
DA:174,516
DA:175,516
DA:177,516
DA:178,516
DA:180,516
DA:181,516
BRF:0
BRH:0
LF:78
LH:78
end_of_record
SF:/home/builder/project/lib/evmone_precompiles/pairing/bn254/pairing.cpp
FN:132,_ZN6evmmax5bn25413pairing_checkESt4spanIKSt4pairINS_3ecc5PointIN4intx4uintILj256EEEEENS4_IS2_IS7_S7_EEEELm18446744073709551615EE
FN:49,pairing.cpp:_ZN6evmmax5bn25412_GLOBAL__N_111miller_loopERKNS_3ecc5PointINS2_12ExtFieldElemINS0_9Fq2ConfigEEEEERKNS3_INS2_13BaseFieldElemINS0_15BaseFieldConfigEEEEE
FN:18,pairing.cpp:_ZN6evmmax5bn25412_GLOBAL__N_126multiply_by_lin_func_valueERNS_3ecc12ExtFieldElemINS0_10Fq12ConfigEEESt5arrayINS3_INS0_9Fq2ConfigEEELm3EERKNS2_13BaseFieldElemINS0_15BaseFieldConfigEEESF_
FN:96,pairing.cpp:_ZN6evmmax5bn25412_GLOBAL__N_19final_expERKNS_3ecc12ExtFieldElemINS0_10Fq12ConfigEEE
FNDA:1598,_ZN6evmmax5bn25413pairing_checkESt4spanIKSt4pairINS_3ecc5PointIN4intx4uintILj256EEEEENS4_IS2_IS7_S7_EEEELm18446744073709551615EE
FNDA:1002,pairing.cpp:_ZN6evmmax5bn25412_GLOBAL__N_111miller_loopERKNS_3ecc5PointINS2_12ExtFieldElemINS0_9Fq2ConfigEEEEERKNS3_INS2_13BaseFieldElemINS0_15BaseFieldConfigEEEEE
FNDA:87174,pairing.cpp:_ZN6evmmax5bn25412_GLOBAL__N_126multiply_by_lin_func_valueERNS_3ecc12ExtFieldElemINS0_10Fq12ConfigEEESt5arrayINS3_INS0_9Fq2ConfigEEELm3EERKNS2_13BaseFieldElemINS0_15BaseFieldConfigEEESF_
FNDA:516,pairing.cpp:_ZN6evmmax5bn25412_GLOBAL__N_19final_expERKNS_3ecc12ExtFieldElemINS0_10Fq12ConfigEEE
FNF:4
FNH:4
DA:18,87174
DA:19,87174
DA:20,87174
DA:22,87174
DA:23,87174
DA:24,87174
DA:26,87174
DA:27,87174
DA:28,87174
DA:29,87174
DA:30,87174
DA:31,87174
DA:32,87174
DA:33,87174
DA:34,87174
DA:35,87174
DA:36,87174
DA:37,87174
DA:38,87174
DA:49,1002
DA:50,1002
DA:51,1002
DA:52,1002
DA:53,1002
DA:54,1002
DA:55,1002
DA:57,65130
DA:58,64128
DA:59,64128
DA:60,64128
DA:61,64128
DA:63,64128
DA:64,9018
DA:65,9018
DA:66,9018
DA:67,9018
DA:68,55110
DA:69,12024
DA:70,12024
DA:71,12024
DA:72,12024
DA:73,64128
DA:74,64128
DA:78,1002
DA:82,1002
DA:84,1002
DA:85,1002
DA:87,1002
DA:88,1002
DA:90,1002
DA:91,1002
DA:96,516
DA:97,516
DA:98,516
DA:100,516
DA:101,516
DA:103,516
DA:105,516
DA:106,516
DA:107,516
DA:108,516
DA:109,516
DA:110,516
DA:111,516
DA:112,516
DA:113,516
DA:114,516
DA:115,516
DA:116,516
DA:117,516
DA:119,516
DA:120,516
DA:121,516
DA:122,516
DA:123,516
DA:124,516
DA:125,516
DA:126,516
DA:127,516
DA:128,516
DA:132,1598
DA:133,1598
DA:134,284
DA:136,1314
DA:138,1314
DA:139,2052
DA:140,2052
DA:141,2052
DA:142,2052
DA:143,132
DA:144,132
DA:145,132
DA:148,1920
DA:149,1920
DA:150,1920
DA:152,1920
DA:153,1920
DA:156,1920
DA:157,108
DA:161,1812
DA:162,558
DA:165,1254
DA:166,1002
DA:167,1254
DA:170,516
DA:171,1314
BRDA:57,0,0,64128
BRDA:57,0,1,1002
BRDA:63,0,0,9018
BRDA:63,0,1,55110
BRDA:68,0,0,12024
BRDA:68,0,1,43086
BRDA:133,0,0,284
BRDA:133,0,1,1314
BRDA:138,0,0,2052
BRDA:138,0,1,516
BRDA:140,0,0,36
BRDA:140,0,1,2016
BRDA:140,1,2,6
BRDA:140,1,3,2010
BRDA:140,2,4,30
BRDA:140,2,5,1980
BRDA:141,0,0,6
BRDA:141,0,1,1974
BRDA:141,1,2,30
BRDA:141,1,3,1944
BRDA:142,0,0,24
BRDA:142,0,1,1920
BRDA:156,0,0,1584
BRDA:156,0,1,336
BRDA:156,1,2,108
BRDA:156,1,3,1476
BRDA:161,0,0,1602
BRDA:161,0,1,210
BRDA:161,1,2,84
BRDA:161,1,3,1518
BRDA:161,2,4,474
BRDA:161,2,5,1044
BRDA:165,0,0,1146
BRDA:165,0,1,108
BRDA:165,1,2,1002
BRDA:165,1,3,144
BRF:36
BRH:36
LF:106
LH:106
end_of_record
SF:/home/builder/project/lib/evmone_precompiles/pairing/bn254/utils.hpp
FN:72,_ZN6evmmax5bn25416is_field_elementERKN4intx4uintILj256EEE
FN:98,_ZN6evmmax5bn25411is_infinityERKNS_3ecc5PointINS1_13BaseFieldElemINS0_15BaseFieldConfigEEEEE
FN:104,_ZN6evmmax5bn25414g2_is_infinityERKNS_3ecc5PointINS1_12ExtFieldElemINS0_9Fq2ConfigEEEEE
FN:78,_ZN6evmmax5bn25411is_on_curveERKNS_3ecc5PointINS1_13BaseFieldElemINS0_15BaseFieldConfigEEEEE
FN:89,_ZN6evmmax5bn25419is_on_twisted_curveERKNS_3ecc5PointINS1_12ExtFieldElemINS0_9Fq2ConfigEEEEE
FN:326,_ZN6evmmax5bn25417g2_subgroup_checkERKNS_3ecc5PointINS1_12ExtFieldElemINS0_9Fq2ConfigEEEEE
FN:288,_ZN6evmmax5bn2548mul_by_XERKNS_3ecc8JacPointINS1_12ExtFieldElemINS0_9Fq2ConfigEEEEE
FN:277,_ZN6evmmax5bn2545n_dblILi6EEENS_3ecc8JacPointINS2_12ExtFieldElemINS0_9Fq2ConfigEEEEERKS7_
FN:277,_ZN6evmmax5bn2545n_dblILi7EEENS_3ecc8JacPointINS2_12ExtFieldElemINS0_9Fq2ConfigEEEEERKS7_
FN:277,_ZN6evmmax5bn2545n_dblILi8EEENS_3ecc8JacPointINS2_12ExtFieldElemINS0_9Fq2ConfigEEEEERKS7_
FN:277,_ZN6evmmax5bn2545n_dblILi10EEENS_3ecc8JacPointINS2_12ExtFieldElemINS0_9Fq2ConfigEEEEERKS7_
FN:212,_ZN6evmmax5bn2543addERKNS_3ecc8JacPointINS1_12ExtFieldElemINS0_9Fq2ConfigEEEEES8_
FN:249,_ZN6evmmax5bn2543dblERKNS_3ecc8JacPointINS1_12ExtFieldElemINS0_9Fq2ConfigEEEEE
FN:120,_ZN6evmmax5bn25412endomorphismILi1EEENS_3ecc8JacPointINS2_12ExtFieldElemINS0_9Fq2ConfigEEEEERKS7_QooeqT_Li1EeqT_Li3E
FN:134,_ZN6evmmax5bn25412endomorphismILi2EEENS_3ecc8JacPointINS2_12ExtFieldElemINS0_9Fq2ConfigEEEEERKS7_QeqT_Li2E
FN:348,_ZN6evmmax5bn25416lin_func_and_dblERKNS_3ecc8JacPointINS1_12ExtFieldElemINS0_9Fq2ConfigEEEEERSt5arrayIS5_Lm3EE
FN:441,_ZN6evmmax5bn2546squareERKNS_3ecc12ExtFieldElemINS0_10Fq12ConfigEEE
FN:382,_ZN6evmmax5bn25416lin_func_and_addERKNS_3ecc8JacPointINS1_12ExtFieldElemINS0_9Fq2ConfigEEEEERKNS1_5PointIS5_EERSt5arrayIS5_Lm3EE
FN:148,_ZN6evmmax5bn25412endomorphismILi1EEENS_3ecc5PointINS2_12ExtFieldElemINS0_9Fq2ConfigEEEEERKS7_QooeqT_Li1EeqT_Li3E
FN:161,_ZN6evmmax5bn25412endomorphismILi2EEENS_3ecc5PointINS2_12ExtFieldElemINS0_9Fq2ConfigEEEEERKS7_QeqT_Li2E
FN:420,_ZN6evmmax5bn2548lin_funcERKNS_3ecc8JacPointINS1_12ExtFieldElemINS0_9Fq2ConfigEEEEERKNS1_5PointIS5_EERSt5arrayIS5_Lm3EE
FN:193,_ZN6evmmax5bn25412endomorphismILi2EEENS_3ecc12ExtFieldElemINS0_10Fq12ConfigEEERKS5_QeqT_Li2E
FN:520,_ZN6evmmax5bn25419cyclotomic_pow_to_XERKNS_3ecc12ExtFieldElemINS0_10Fq12ConfigEEE
FN:509,_ZN6evmmax5bn25419n_cyclotomic_squareILi6EEENS_3ecc12ExtFieldElemINS0_10Fq12ConfigEEERKS5_
FN:509,_ZN6evmmax5bn25419n_cyclotomic_squareILi7EEENS_3ecc12ExtFieldElemINS0_10Fq12ConfigEEERKS5_
FN:509,_ZN6evmmax5bn25419n_cyclotomic_squareILi8EEENS_3ecc12ExtFieldElemINS0_10Fq12ConfigEEERKS5_
FN:509,_ZN6evmmax5bn25419n_cyclotomic_squareILi10EEENS_3ecc12ExtFieldElemINS0_10Fq12ConfigEEERKS5_
FN:173,_ZN6evmmax5bn25412endomorphismILi1EEENS_3ecc12ExtFieldElemINS0_10Fq12ConfigEEERKS5_QooeqT_Li1EeqT_Li3E
FN:173,_ZN6evmmax5bn25412endomorphismILi3EEENS_3ecc12ExtFieldElemINS0_10Fq12ConfigEEERKS5_QooeqT_Li1EeqT_Li3E
FN:477,_ZN6evmmax5bn25417cyclotomic_squareERKNS_3ecc12ExtFieldElemINS0_10Fq12ConfigEEE
FN:460,_ZN6evmmax5bn25410fq4_squareERKSt4pairINS_3ecc12ExtFieldElemINS0_9Fq2ConfigEEES5_E
FNDA:11976,_ZN6evmmax5bn25416is_field_elementERKN4intx4uintILj256EEE
FNDA:1920,_ZN6evmmax5bn25411is_infinityERKNS_3ecc5PointINS1_13BaseFieldElemINS0_15BaseFieldConfigEEEEE
FNDA:1920,_ZN6evmmax5bn25414g2_is_infinityERKNS_3ecc5PointINS1_12ExtFieldElemINS0_9Fq2ConfigEEEEE
FNDA:1584,_ZN6evmmax5bn25411is_on_curveERKNS_3ecc5PointINS1_13BaseFieldElemINS0_15BaseFieldConfigEEEEE
FNDA:1602,_ZN6evmmax5bn25419is_on_twisted_curveERKNS_3ecc5PointINS1_12ExtFieldElemINS0_9Fq2ConfigEEEEE
FNDA:1518,_ZN6evmmax5bn25417g2_subgroup_checkERKNS_3ecc5PointINS1_12ExtFieldElemINS0_9Fq2ConfigEEEEE
FNDA:1518,_ZN6evmmax5bn2548mul_by_XERKNS_3ecc8JacPointINS1_12ExtFieldElemINS0_9Fq2ConfigEEEEE
FNDA:6072,_ZN6evmmax5bn2545n_dblILi6EEENS_3ecc8JacPointINS2_12ExtFieldElemINS0_9Fq2ConfigEEEEERKS7_
FNDA:1518,_ZN6evmmax5bn2545n_dblILi7EEENS_3ecc8JacPointINS2_12ExtFieldElemINS0_9Fq2ConfigEEEEERKS7_
FNDA:3036,_ZN6evmmax5bn2545n_dblILi8EEENS_3ecc8JacPointINS2_12ExtFieldElemINS0_9Fq2ConfigEEEEERKS7_
FNDA:1518,_ZN6evmmax5bn2545n_dblILi10EEENS_3ecc8JacPointINS2_12ExtFieldElemINS0_9Fq2ConfigEEEEERKS7_
FNDA:30360,_ZN6evmmax5bn2543addERKNS_3ecc8JacPointINS1_12ExtFieldElemINS0_9Fq2ConfigEEEEES8_
FNDA:95634,_ZN6evmmax5bn2543dblERKNS_3ecc8JacPointINS1_12ExtFieldElemINS0_9Fq2ConfigEEEEE
FNDA:4554,_ZN6evmmax5bn25412endomorphismILi1EEENS_3ecc8JacPointINS2_12ExtFieldElemINS0_9Fq2ConfigEEEEERKS7_QooeqT_Li1EeqT_Li3E
FNDA:1518,_ZN6evmmax5bn25412endomorphismILi2EEENS_3ecc8JacPointINS2_12ExtFieldElemINS0_9Fq2ConfigEEEEERKS7_QeqT_Li2E
FNDA:64128,_ZN6evmmax5bn25416lin_func_and_dblERKNS_3ecc8JacPointINS1_12ExtFieldElemINS0_9Fq2ConfigEEEEERSt5arrayIS5_Lm3EE
FNDA:64128,_ZN6evmmax5bn2546squareERKNS_3ecc12ExtFieldElemINS0_10Fq12ConfigEEE
FNDA:22044,_ZN6evmmax5bn25416lin_func_and_addERKNS_3ecc8JacPointINS1_12ExtFieldElemINS0_9Fq2ConfigEEEEERKNS1_5PointIS5_EERSt5arrayIS5_Lm3EE
FNDA:1002,_ZN6evmmax5bn25412endomorphismILi1EEENS_3ecc5PointINS2_12ExtFieldElemINS0_9Fq2ConfigEEEEERKS7_QooeqT_Li1EeqT_Li3E
FNDA:1002,_ZN6evmmax5bn25412endomorphismILi2EEENS_3ecc5PointINS2_12ExtFieldElemINS0_9Fq2ConfigEEEEERKS7_QeqT_Li2E
FNDA:1002,_ZN6evmmax5bn2548lin_funcERKNS_3ecc8JacPointINS1_12ExtFieldElemINS0_9Fq2ConfigEEEEERKNS1_5PointIS5_EERSt5arrayIS5_Lm3EE
FNDA:1548,_ZN6evmmax5bn25412endomorphismILi2EEENS_3ecc12ExtFieldElemINS0_10Fq12ConfigEEERKS5_QeqT_Li2E
FNDA:1548,_ZN6evmmax5bn25419cyclotomic_pow_to_XERKNS_3ecc12ExtFieldElemINS0_10Fq12ConfigEEE
FNDA:6192,_ZN6evmmax5bn25419n_cyclotomic_squareILi6EEENS_3ecc12ExtFieldElemINS0_10Fq12ConfigEEERKS5_
FNDA:1548,_ZN6evmmax5bn25419n_cyclotomic_squareILi7EEENS_3ecc12ExtFieldElemINS0_10Fq12ConfigEEERKS5_
FNDA:3096,_ZN6evmmax5bn25419n_cyclotomic_squareILi8EEENS_3ecc12ExtFieldElemINS0_10Fq12ConfigEEERKS5_
FNDA:1548,_ZN6evmmax5bn25419n_cyclotomic_squareILi10EEENS_3ecc12ExtFieldElemINS0_10Fq12ConfigEEERKS5_
FNDA:2064,_ZN6evmmax5bn25412endomorphismILi1EEENS_3ecc12ExtFieldElemINS0_10Fq12ConfigEEERKS5_QooeqT_Li1EeqT_Li3E
FNDA:516,_ZN6evmmax5bn25412endomorphismILi3EEENS_3ecc12ExtFieldElemINS0_10Fq12ConfigEEERKS5_QooeqT_Li1EeqT_Li3E
FNDA:98040,_ZN6evmmax5bn25417cyclotomic_squareERKNS_3ecc12ExtFieldElemINS0_10Fq12ConfigEEE
FNDA:294120,_ZN6evmmax5bn25410fq4_squareERKSt4pairINS_3ecc12ExtFieldElemINS0_9Fq2ConfigEEES5_E
FNF:24
FNH:24
DA:72,11976
DA:73,11976
DA:74,11976
DA:78,1584
DA:80,1584
DA:82,1584
DA:83,1584
DA:84,1584
DA:85,1584
DA:89,1602
DA:90,1602
DA:91,1602
DA:93,1602
DA:94,1602
DA:98,1920
DA:99,1920
DA:100,1920
DA:104,1920
DA:105,1920
DA:106,1920
DA:120,4554
DA:121,4554
DA:122,4554
DA:123,4554
DA:124,4554
DA:125,4554
DA:126,4554
DA:134,1518
DA:135,1518
DA:136,1518
DA:137,1518
DA:138,1518
DA:139,1518
DA:140,1518
DA:148,1002
DA:149,1002
DA:150,1002
DA:151,1002
DA:152,1002
DA:153,1002
DA:161,1002
DA:162,1002
DA:163,1002
DA:164,1002
DA:165,1002
DA:166,1002
DA:173,2580
DA:174,2580
DA:175,2580
DA:176,2580
DA:177,2580
DA:178,2580
DA:179,2580
DA:180,2580
DA:181,2580
DA:182,2580
DA:183,2580
DA:184,2580
DA:185,2580
DA:186,2580
DA:193,1548
DA:194,1548
DA:195,1548
DA:196,1548
DA:197,1548
DA:198,1548
DA:199,1548
DA:200,1548
DA:201,1548
DA:202,1548
DA:203,1548
DA:204,1548
DA:205,1548
DA:206,1548
DA:212,30360
DA:213,30360
DA:214,30360
DA:215,30360
DA:217,30360
DA:218,30360
DA:219,30360
DA:221,30360
DA:222,30360
DA:224,30360
DA:225,30360
DA:227,30360
DA:228,30360
DA:229,30360
DA:230,30360
DA:231,30360
DA:232,30360
DA:234,30360
DA:235,30360
DA:236,30360
DA:238,30360
DA:240,30360
DA:241,30360
DA:242,30360
DA:244,30360
DA:245,30360
DA:249,95634
DA:250,95634
DA:251,95634
DA:252,95634
DA:254,95634
DA:255,95634
DA:256,95634
DA:257,95634
DA:258,95634
DA:260,95634
DA:261,95634
DA:262,95634
DA:263,95634
DA:265,95634
DA:267,95634
DA:268,95634
DA:269,95634
DA:271,95634
DA:272,95634
DA:277,12144
DA:278,12144
DA:279,86526
DA:280,74382
DA:282,12144
DA:283,12144
DA:288,1518
DA:289,1518
DA:290,1518
DA:291,1518
DA:292,1518
DA:293,1518
DA:294,1518
DA:295,1518
DA:296,1518
DA:297,1518
DA:298,1518
DA:299,1518
DA:300,1518
DA:301,1518
DA:302,1518
DA:303,1518
DA:304,1518
DA:305,1518
DA:306,1518
DA:307,1518
DA:308,1518
DA:309,1518
DA:310,1518
DA:311,1518
DA:312,1518
DA:313,1518
DA:314,1518
DA:315,1518
DA:316,1518
DA:317,1518
DA:318,1518
DA:320,1518
DA:321,1518
DA:326,1518
DA:327,1518
DA:329,1518
DA:330,1518
DA:331,1518
DA:333,1518
DA:334,1518
DA:335,1518
DA:337,1518
DA:339,1518
DA:340,1518
DA:348,64128
DA:349,64128
DA:350,64128
DA:351,64128
DA:353,64128
DA:354,64128
DA:355,64128
DA:356,64128
DA:357,64128
DA:359,64128
DA:360,64128
DA:361,64128
DA:362,64128
DA:364,64128
DA:366,64128
DA:367,64128
DA:368,64128
DA:370,64128
DA:371,64128
DA:372,64128
DA:374,64128
DA:375,64128
DA:382,22044
DA:383,22044
DA:384,22044
DA:385,22044
DA:387,22044
DA:388,22044
DA:390,22044
DA:391,22044
DA:393,22044
DA:394,22044
DA:395,22044
DA:396,22044
DA:398,22044
DA:399,22044
DA:400,22044
DA:402,22044
DA:404,22044
DA:405,22044
DA:406,22044
DA:408,22044
DA:409,22044
DA:410,22044
DA:412,22044
DA:413,22044
DA:420,1002
DA:421,1002
DA:422,1002
DA:423,1002
DA:425,1002
DA:426,1002
DA:428,1002
DA:429,1002
DA:431,1002
DA:432,1002
DA:434,1002
DA:435,1002
DA:436,1002
DA:437,1002
DA:441,64128
DA:442,64128
DA:444,64128
DA:445,64128
DA:446,64128
DA:447,64128
DA:448,64128
DA:449,64128
DA:450,64128
DA:451,64128
DA:452,64128
DA:454,64128
DA:455,64128
DA:460,294120
DA:461,294120
DA:462,294120
DA:464,294120
DA:465,294120
DA:467,294120
DA:468,294120
DA:469,294120
DA:471,294120
DA:472,294120
DA:477,98040
DA:478,98040
DA:479,98040
DA:481,98040
DA:482,98040
DA:483,98040
DA:485,98040
DA:486,98040
DA:487,98040
DA:489,98040
DA:490,98040
DA:491,98040
DA:493,98040
DA:495,98040
DA:496,98040
DA:497,98040
DA:499,98040
DA:500,98040
DA:501,98040
DA:503,98040
DA:504,98040
DA:509,12384
DA:510,12384
DA:511,100620
DA:512,88236
DA:514,12384
DA:515,12384
DA:520,1548
DA:521,1548
DA:522,1548
DA:523,1548
DA:524,1548
DA:525,1548
DA:526,1548
DA:527,1548
DA:528,1548
DA:529,1548
DA:530,1548
DA:531,1548
DA:532,1548
DA:533,1548
DA:534,1548
DA:535,1548
DA:536,1548
DA:537,1548
DA:538,1548
DA:539,1548
DA:540,1548
DA:541,1548
DA:542,1548
DA:543,1548
DA:544,1548
DA:545,1548
DA:546,1548
DA:547,1548
DA:548,1548
DA:549,1548
DA:550,1548
DA:552,1548
DA:553,1548
BRDA:99,0,0,360
BRDA:99,0,1,1560
BRDA:99,1,2,336
BRDA:99,1,3,24
BRDA:105,0,0,276
BRDA:105,0,1,1644
BRDA:105,1,2,264
BRDA:105,1,3,12
BRDA:279,0,0,30360
BRDA:279,0,1,6072
BRDA:279,1,2,9108
BRDA:279,1,3,1518
BRDA:279,2,4,21252
BRDA:279,2,5,3036
BRDA:279,3,6,13662
BRDA:279,3,7,1518
BRDA:511,0,0,37152
BRDA:511,0,1,6192
BRDA:511,1,2,10836
BRDA:511,1,3,1548
BRDA:511,2,4,24768
BRDA:511,2,5,3096
BRDA:511,3,6,15480
BRDA:511,3,7,1548
BRF:12
BRH:12
LF:312
LH:312
end_of_record
SF:/home/builder/project/lib/evmone_precompiles/pairing/field_template.hpp
FN:97,_ZN6evmmax3ecc12ExtFieldElemINS_5bn25410Fq12ConfigEE3oneEv
FN:82,_ZN6evmmax3ecc12ExtFieldElemINS_5bn25410Fq12ConfigEEC2Ev
FN:82,_ZN6evmmax3ecc12ExtFieldElemINS_5bn2549Fq6ConfigEEC2Ev
FN:82,_ZN6evmmax3ecc12ExtFieldElemINS_5bn2549Fq2ConfigEEC2Ev
FN:23,_ZN6evmmax3ecc13BaseFieldElemINS_5bn25415BaseFieldConfigEEC2Ev
FN:97,_ZN6evmmax3ecc12ExtFieldElemINS_5bn2549Fq6ConfigEE3oneEv
FN:97,_ZN6evmmax3ecc12ExtFieldElemINS_5bn2549Fq2ConfigEE3oneEv
FN:38,_ZN6evmmax3ecc13BaseFieldElemINS_5bn25415BaseFieldConfigEE3oneEv
FN:25,_ZN6evmmax3ecc13BaseFieldElemINS_5bn25415BaseFieldConfigEEC2ERKN4intx4uintILj256EEE
FN:28,_ZN6evmmax3ecc13BaseFieldElemINS_5bn25415BaseFieldConfigEE8from_intERKN4intx4uintILj256EEE
FN:86,_ZN6evmmax3ecc12ExtFieldElemINS_5bn2549Fq2ConfigEEC2ERKSt5arrayINS0_13BaseFieldElemINS2_15BaseFieldConfigEEELm2EE
FN:36,_ZNK6evmmax3ecc13BaseFieldElemINS_5bn25415BaseFieldConfigEE7is_zeroEv
FN:137,_ZN6evmmax3ecceqERKNS0_12ExtFieldElemINS_5bn2549Fq2ConfigEEES6_
FN:66,_ZN6evmmax3ecceqERKNS0_13BaseFieldElemINS_5bn25415BaseFieldConfigEEES6_
FN:103,_ZN6evmmax3ecc12ExtFieldElemINS_5bn2549Fq2ConfigEE4zeroEv
FN:56,_ZN6evmmax3eccmlERKNS0_13BaseFieldElemINS_5bn25415BaseFieldConfigEEES6_
FN:44,_ZN6evmmax3eccplERKNS0_13BaseFieldElemINS_5bn25415BaseFieldConfigEEES6_
FN:132,_ZN6evmmax3eccmlERKNS0_12ExtFieldElemINS_5bn2549Fq2ConfigEEES6_
FN:50,_ZN6evmmax3eccmiERKNS0_13BaseFieldElemINS_5bn25415BaseFieldConfigEEES6_
FN:108,_ZN6evmmax3eccplERKNS0_12ExtFieldElemINS_5bn2549Fq2ConfigEEES6_
FN:116,_ZN6evmmax3eccmiERKNS0_12ExtFieldElemINS_5bn2549Fq2ConfigEEES6_
FN:89,_ZNK6evmmax3ecc12ExtFieldElemINS_5bn2549Fq2ConfigEE9conjugateEv
FN:61,_ZN6evmmax3eccngERKNS0_13BaseFieldElemINS_5bn25415BaseFieldConfigEEE
FN:132,_ZN6evmmax3eccmlERKNS0_12ExtFieldElemINS_5bn25410Fq12ConfigEEES6_
FN:132,_ZN6evmmax3eccmlERKNS0_12ExtFieldElemINS_5bn2549Fq6ConfigEEES6_
FN:108,_ZN6evmmax3eccplERKNS0_12ExtFieldElemINS_5bn2549Fq6ConfigEEES6_
FN:86,_ZN6evmmax3ecc12ExtFieldElemINS_5bn2549Fq6ConfigEEC2ERKSt5arrayINS1_INS2_9Fq2ConfigEEELm3EE
FN:116,_ZN6evmmax3eccmiERKNS0_12ExtFieldElemINS_5bn2549Fq6ConfigEEES6_
FN:86,_ZN6evmmax3ecc12ExtFieldElemINS_5bn25410Fq12ConfigEEC2ERKSt5arrayINS1_INS2_9Fq6ConfigEEELm2EE
FN:124,_ZN6evmmax3eccngERKNS0_12ExtFieldElemINS_5bn2549Fq2ConfigEEE
FN:140,_ZN6evmmax3eccmlERKNS0_12ExtFieldElemINS_5bn2549Fq2ConfigEEERKNS0_13BaseFieldElemINS2_15BaseFieldConfigEEE
FN:137,_ZN6evmmax3ecceqERKNS0_12ExtFieldElemINS_5bn25410Fq12ConfigEEES6_
FN:137,_ZN6evmmax3ecceqERKNS0_12ExtFieldElemINS_5bn2549Fq6ConfigEEES6_
FN:89,_ZNK6evmmax3ecc12ExtFieldElemINS_5bn25410Fq12ConfigEE9conjugateEv
FN:124,_ZN6evmmax3eccngERKNS0_12ExtFieldElemINS_5bn2549Fq6ConfigEEE
FN:105,_ZNK6evmmax3ecc12ExtFieldElemINS_5bn25410Fq12ConfigEE3invEv
FN:105,_ZNK6evmmax3ecc12ExtFieldElemINS_5bn2549Fq6ConfigEE3invEv
FN:105,_ZNK6evmmax3ecc12ExtFieldElemINS_5bn2549Fq2ConfigEE3invEv
FN:34,_ZNK6evmmax3ecc13BaseFieldElemINS_5bn25415BaseFieldConfigEE3invEv
FN:32,_ZNK6evmmax3ecc13BaseFieldElemINS_5bn25415BaseFieldConfigEE5valueEv
FNDA:2832,_ZN6evmmax3ecc12ExtFieldElemINS_5bn25410Fq12ConfigEE3oneEv
FNDA:2832,_ZN6evmmax3ecc12ExtFieldElemINS_5bn25410Fq12ConfigEEC2Ev
FNDA:8496,_ZN6evmmax3ecc12ExtFieldElemINS_5bn2549Fq6ConfigEEC2Ev
FNDA:46878,_ZN6evmmax3ecc12ExtFieldElemINS_5bn2549Fq2ConfigEEC2Ev
FNDA:119436,_ZN6evmmax3ecc13BaseFieldElemINS_5bn25415BaseFieldConfigEEC2Ev
FNDA:2832,_ZN6evmmax3ecc12ExtFieldElemINS_5bn2549Fq6ConfigEE3oneEv
FNDA:5352,_ZN6evmmax3ecc12ExtFieldElemINS_5bn2549Fq2ConfigEE3oneEv
FNDA:5352,_ZN6evmmax3ecc13BaseFieldElemINS_5bn25415BaseFieldConfigEE3oneEv
FNDA:71325000,_ZN6evmmax3ecc13BaseFieldElemINS_5bn25415BaseFieldConfigEEC2ERKN4intx4uintILj256EEE
FNDA:11520,_ZN6evmmax3ecc13BaseFieldElemINS_5bn25415BaseFieldConfigEE8from_intERKN4intx4uintILj256EEE
FNDA:20408622,_ZN6evmmax3ecc12ExtFieldElemINS_5bn2549Fq2ConfigEEC2ERKSt5arrayINS0_13BaseFieldElemINS2_15BaseFieldConfigEEELm2EE
FNDA:2280,_ZNK6evmmax3ecc13BaseFieldElemINS_5bn25415BaseFieldConfigEE7is_zeroEv
FNDA:9066,_ZN6evmmax3ecceqERKNS0_12ExtFieldElemINS_5bn2549Fq2ConfigEEES6_
FNDA:17544,_ZN6evmmax3ecceqERKNS0_13BaseFieldElemINS_5bn25415BaseFieldConfigEEES6_
FNDA:2196,_ZN6evmmax3ecc12ExtFieldElemINS_5bn2549Fq2ConfigEE4zeroEv
FNDA:30526608,_ZN6evmmax3eccmlERKNS0_13BaseFieldElemINS_5bn25415BaseFieldConfigEEES6_
FNDA:24260766,_ZN6evmmax3eccplERKNS0_13BaseFieldElemINS_5bn25415BaseFieldConfigEEES6_
FNDA:7542774,_ZN6evmmax3eccmlERKNS0_12ExtFieldElemINS_5bn2549Fq2ConfigEEES6_
FNDA:16461894,_ZN6evmmax3eccmiERKNS0_13BaseFieldElemINS_5bn25415BaseFieldConfigEEES6_
FNDA:8357946,_ZN6evmmax3eccplERKNS0_12ExtFieldElemINS_5bn2549Fq2ConfigEEES6_
FNDA:4459560,_ZN6evmmax3eccmiERKNS0_12ExtFieldElemINS_5bn2549Fq2ConfigEEES6_
FNDA:31146,_ZNK6evmmax3ecc12ExtFieldElemINS_5bn2549Fq2ConfigEE9conjugateEv
FNDA:58344,_ZN6evmmax3eccngERKNS0_13BaseFieldElemINS_5bn25415BaseFieldConfigEEE
FNDA:35058,_ZN6evmmax3eccmlERKNS0_12ExtFieldElemINS_5bn25410Fq12ConfigEEES6_
FNDA:235494,_ZN6evmmax3eccmlERKNS0_12ExtFieldElemINS_5bn2549Fq6ConfigEEES6_
FNDA:297558,_ZN6evmmax3eccplERKNS0_12ExtFieldElemINS_5bn2549Fq6ConfigEEES6_
FNDA:1104234,_ZN6evmmax3ecc12ExtFieldElemINS_5bn2549Fq6ConfigEEC2ERKSt5arrayINS1_INS2_9Fq2ConfigEEELm3EE
FNDA:198888,_ZN6evmmax3eccmiERKNS0_12ExtFieldElemINS_5bn2549Fq6ConfigEEES6_
FNDA:204966,_ZN6evmmax3ecc12ExtFieldElemINS_5bn25410Fq12ConfigEEC2ERKSt5arrayINS1_INS2_9Fq6ConfigEEELm2EE
FNDA:12840,_ZN6evmmax3eccngERKNS0_12ExtFieldElemINS_5bn2549Fq2ConfigEEE
FNDA:174348,_ZN6evmmax3eccmlERKNS0_12ExtFieldElemINS_5bn2549Fq2ConfigEEERKNS0_13BaseFieldElemINS2_15BaseFieldConfigEEE
FNDA:516,_ZN6evmmax3ecceqERKNS0_12ExtFieldElemINS_5bn25410Fq12ConfigEEES6_
FNDA:954,_ZN6evmmax3ecceqERKNS0_12ExtFieldElemINS_5bn2549Fq6ConfigEEES6_
FNDA:3096,_ZNK6evmmax3ecc12ExtFieldElemINS_5bn25410Fq12ConfigEE9conjugateEv
FNDA:3612,_ZN6evmmax3eccngERKNS0_12ExtFieldElemINS_5bn2549Fq6ConfigEEE
FNDA:516,_ZNK6evmmax3ecc12ExtFieldElemINS_5bn25410Fq12ConfigEE3invEv
FNDA:516,_ZNK6evmmax3ecc12ExtFieldElemINS_5bn2549Fq6ConfigEE3invEv
FNDA:516,_ZNK6evmmax3ecc12ExtFieldElemINS_5bn2549Fq2ConfigEE3invEv
FNDA:516,_ZNK6evmmax3ecc13BaseFieldElemINS_5bn25415BaseFieldConfigEE3invEv
FNDA:516,_ZNK6evmmax3ecc13BaseFieldElemINS_5bn25415BaseFieldConfigEE5valueEv
FNF:24
FNH:24
DA:23,119436
DA:25,71325000
DA:28,11520
DA:29,11520
DA:30,11520
DA:32,516
DA:34,516
DA:36,2280
DA:38,5352
DA:44,24260766
DA:45,24260766
DA:46,24260766
DA:50,16461894
DA:51,16461894
DA:52,16461894
DA:56,30526608
DA:57,30526608
DA:58,30526608
DA:61,58344
DA:62,58344
DA:63,58344
DA:66,17544
DA:82,58206
DA:86,21717822
DA:89,34242
DA:90,34242
DA:91,68484
DA:92,34242
DA:93,34242
DA:94,34242
DA:97,11016
DA:98,11016
DA:99,11016
DA:100,11016
DA:101,11016
DA:103,2196
DA:105,1548
DA:108,8655504
DA:109,8655504
DA:110,26264070
DA:111,17608566
DA:112,8655504
DA:113,8655504
DA:116,4658448
DA:117,4658448
DA:118,14174232
DA:119,9515784
DA:120,4658448
DA:121,4658448
DA:124,16452
DA:125,16452
DA:126,52968
DA:127,36516
DA:128,16452
DA:129,16452
DA:132,7813326
DA:133,7813326
DA:134,7813326
DA:137,10536
DA:140,174348
DA:141,174348
DA:142,174348
DA:143,348696
DA:144,174348
DA:145,174348
BRDA:91,0,0,31146
BRDA:91,0,1,31146
BRDA:91,1,2,3096
BRDA:91,1,3,3096
BRDA:110,0,0,16715892
BRDA:110,0,1,8357946
BRDA:110,1,2,892674
BRDA:110,1,3,297558
BRDA:118,0,0,8919120
BRDA:118,0,1,4459560
BRDA:118,1,2,596664
BRDA:118,1,3,198888
BRDA:126,0,0,25680
BRDA:126,0,1,12840
BRDA:126,1,2,10836
BRDA:126,1,3,3612
BRDA:142,0,0,348696
BRDA:142,0,1,174348
BRF:10
BRH:10
LF:65
LH:65
end_of_record
SF:/home/builder/project/lib/evmone_precompiles/ripemd160.cpp
FN:193,_ZN6evmone6crypto9ripemd160EPSt4bytePKS1_m
FN:181,ripemd160.cpp:_ZN6evmone6crypto12_GLOBAL__N_18compressERSt5arrayIjLm5EEPKSt4byte
FN:176,ripemd160.cpp:_ZN6evmone6crypto12_GLOBAL__N_15stepsIJLm0ELm1ELm2ELm3ELm4ELm5ELm6ELm7ELm8ELm9ELm10ELm11ELm12ELm13ELm14ELm15ELm16ELm17ELm18ELm19ELm20ELm21ELm22ELm23ELm24ELm25ELm26ELm27ELm28ELm29ELm30ELm31ELm32ELm33ELm34ELm35ELm36ELm37ELm38ELm39ELm40ELm41ELm42ELm43ELm44ELm45ELm46ELm47ELm48ELm49ELm50ELm51ELm52ELm53ELm54ELm55ELm56ELm57ELm58ELm59ELm60ELm61ELm62ELm63ELm64ELm65ELm66ELm67ELm68ELm69ELm70ELm71ELm72ELm73ELm74ELm75ELm76ELm77ELm78ELm79EEEEvPSt5arrayIjLm5EEPKSt4byteSt16integer_sequenceImJXspT_EEE
FN:145,ripemd160.cpp:_ZN6evmone6crypto12_GLOBAL__N_14stepILm0EEEvPSt5arrayIjLm5EEPKSt4byte
FN:52,ripemd160.cpp:_ZNK6evmone6crypto12_GLOBAL__N_13$_0clEjjj
FN:64,ripemd160.cpp:_ZNK6evmone6crypto12_GLOBAL__N_13$_1clEjjj
FN:132,ripemd160.cpp:_ZN6evmone6crypto12_GLOBAL__N_17load_leIjEET_PKSt4byte
FN:124,ripemd160.cpp:_ZN6evmone6crypto12_GLOBAL__N_15to_leITkSt8integraljEEDaT_
FN:145,ripemd160.cpp:_ZN6evmone6crypto12_GLOBAL__N_14stepILm1EEEvPSt5arrayIjLm5EEPKSt4byte
FN:145,ripemd160.cpp:_ZN6evmone6crypto12_GLOBAL__N_14stepILm2EEEvPSt5arrayIjLm5EEPKSt4byte
FN:145,ripemd160.cpp:_ZN6evmone6crypto12_GLOBAL__N_14stepILm3EEEvPSt5arrayIjLm5EEPKSt4byte
FN:145,ripemd160.cpp:_ZN6evmone6crypto12_GLOBAL__N_14stepILm4EEEvPSt5arrayIjLm5EEPKSt4byte
FN:145,ripemd160.cpp:_ZN6evmone6crypto12_GLOBAL__N_14stepILm5EEEvPSt5arrayIjLm5EEPKSt4byte
FN:145,ripemd160.cpp:_ZN6evmone6crypto12_GLOBAL__N_14stepILm6EEEvPSt5arrayIjLm5EEPKSt4byte
FN:145,ripemd160.cpp:_ZN6evmone6crypto12_GLOBAL__N_14stepILm7EEEvPSt5arrayIjLm5EEPKSt4byte
FN:145,ripemd160.cpp:_ZN6evmone6crypto12_GLOBAL__N_14stepILm8EEEvPSt5arrayIjLm5EEPKSt4byte
FN:145,ripemd160.cpp:_ZN6evmone6crypto12_GLOBAL__N_14stepILm9EEEvPSt5arrayIjLm5EEPKSt4byte
FN:145,ripemd160.cpp:_ZN6evmone6crypto12_GLOBAL__N_14stepILm10EEEvPSt5arrayIjLm5EEPKSt4byte
FN:145,ripemd160.cpp:_ZN6evmone6crypto12_GLOBAL__N_14stepILm11EEEvPSt5arrayIjLm5EEPKSt4byte
FN:145,ripemd160.cpp:_ZN6evmone6crypto12_GLOBAL__N_14stepILm12EEEvPSt5arrayIjLm5EEPKSt4byte
FN:145,ripemd160.cpp:_ZN6evmone6crypto12_GLOBAL__N_14stepILm13EEEvPSt5arrayIjLm5EEPKSt4byte
FN:145,ripemd160.cpp:_ZN6evmone6crypto12_GLOBAL__N_14stepILm14EEEvPSt5arrayIjLm5EEPKSt4byte
FN:145,ripemd160.cpp:_ZN6evmone6crypto12_GLOBAL__N_14stepILm15EEEvPSt5arrayIjLm5EEPKSt4byte
FN:145,ripemd160.cpp:_ZN6evmone6crypto12_GLOBAL__N_14stepILm16EEEvPSt5arrayIjLm5EEPKSt4byte
FN:55,ripemd160.cpp:_ZNK6evmone6crypto12_GLOBAL__N_13$_2clEjjj
FN:61,ripemd160.cpp:_ZNK6evmone6crypto12_GLOBAL__N_13$_3clEjjj
FN:145,ripemd160.cpp:_ZN6evmone6crypto12_GLOBAL__N_14stepILm17EEEvPSt5arrayIjLm5EEPKSt4byte
FN:145,ripemd160.cpp:_ZN6evmone6crypto12_GLOBAL__N_14stepILm18EEEvPSt5arrayIjLm5EEPKSt4byte
FN:145,ripemd160.cpp:_ZN6evmone6crypto12_GLOBAL__N_14stepILm19EEEvPSt5arrayIjLm5EEPKSt4byte
FN:145,ripemd160.cpp:_ZN6evmone6crypto12_GLOBAL__N_14stepILm20EEEvPSt5arrayIjLm5EEPKSt4byte
FN:145,ripemd160.cpp:_ZN6evmone6crypto12_GLOBAL__N_14stepILm21EEEvPSt5arrayIjLm5EEPKSt4byte
FN:145,ripemd160.cpp:_ZN6evmone6crypto12_GLOBAL__N_14stepILm22EEEvPSt5arrayIjLm5EEPKSt4byte
FN:145,ripemd160.cpp:_ZN6evmone6crypto12_GLOBAL__N_14stepILm23EEEvPSt5arrayIjLm5EEPKSt4byte
FN:145,ripemd160.cpp:_ZN6evmone6crypto12_GLOBAL__N_14stepILm24EEEvPSt5arrayIjLm5EEPKSt4byte
FN:145,ripemd160.cpp:_ZN6evmone6crypto12_GLOBAL__N_14stepILm25EEEvPSt5arrayIjLm5EEPKSt4byte
FN:145,ripemd160.cpp:_ZN6evmone6crypto12_GLOBAL__N_14stepILm26EEEvPSt5arrayIjLm5EEPKSt4byte
FN:145,ripemd160.cpp:_ZN6evmone6crypto12_GLOBAL__N_14stepILm27EEEvPSt5arrayIjLm5EEPKSt4byte
FN:145,ripemd160.cpp:_ZN6evmone6crypto12_GLOBAL__N_14stepILm28EEEvPSt5arrayIjLm5EEPKSt4byte
FN:145,ripemd160.cpp:_ZN6evmone6crypto12_GLOBAL__N_14stepILm29EEEvPSt5arrayIjLm5EEPKSt4byte
FN:145,ripemd160.cpp:_ZN6evmone6crypto12_GLOBAL__N_14stepILm30EEEvPSt5arrayIjLm5EEPKSt4byte
FN:145,ripemd160.cpp:_ZN6evmone6crypto12_GLOBAL__N_14stepILm31EEEvPSt5arrayIjLm5EEPKSt4byte
FN:145,ripemd160.cpp:_ZN6evmone6crypto12_GLOBAL__N_14stepILm32EEEvPSt5arrayIjLm5EEPKSt4byte
FN:58,ripemd160.cpp:_ZNK6evmone6crypto12_GLOBAL__N_13$_4clEjjj
FN:145,ripemd160.cpp:_ZN6evmone6crypto12_GLOBAL__N_14stepILm33EEEvPSt5arrayIjLm5EEPKSt4byte
FN:145,ripemd160.cpp:_ZN6evmone6crypto12_GLOBAL__N_14stepILm34EEEvPSt5arrayIjLm5EEPKSt4byte
FN:145,ripemd160.cpp:_ZN6evmone6crypto12_GLOBAL__N_14stepILm35EEEvPSt5arrayIjLm5EEPKSt4byte
FN:145,ripemd160.cpp:_ZN6evmone6crypto12_GLOBAL__N_14stepILm36EEEvPSt5arrayIjLm5EEPKSt4byte
FN:145,ripemd160.cpp:_ZN6evmone6crypto12_GLOBAL__N_14stepILm37EEEvPSt5arrayIjLm5EEPKSt4byte
FN:145,ripemd160.cpp:_ZN6evmone6crypto12_GLOBAL__N_14stepILm38EEEvPSt5arrayIjLm5EEPKSt4byte
FN:145,ripemd160.cpp:_ZN6evmone6crypto12_GLOBAL__N_14stepILm39EEEvPSt5arrayIjLm5EEPKSt4byte
FN:145,ripemd160.cpp:_ZN6evmone6crypto12_GLOBAL__N_14stepILm40EEEvPSt5arrayIjLm5EEPKSt4byte
FN:145,ripemd160.cpp:_ZN6evmone6crypto12_GLOBAL__N_14stepILm41EEEvPSt5arrayIjLm5EEPKSt4byte
FN:145,ripemd160.cpp:_ZN6evmone6crypto12_GLOBAL__N_14stepILm42EEEvPSt5arrayIjLm5EEPKSt4byte
FN:145,ripemd160.cpp:_ZN6evmone6crypto12_GLOBAL__N_14stepILm43EEEvPSt5arrayIjLm5EEPKSt4byte
FN:145,ripemd160.cpp:_ZN6evmone6crypto12_GLOBAL__N_14stepILm44EEEvPSt5arrayIjLm5EEPKSt4byte
FN:145,ripemd160.cpp:_ZN6evmone6crypto12_GLOBAL__N_14stepILm45EEEvPSt5arrayIjLm5EEPKSt4byte
FN:145,ripemd160.cpp:_ZN6evmone6crypto12_GLOBAL__N_14stepILm46EEEvPSt5arrayIjLm5EEPKSt4byte
FN:145,ripemd160.cpp:_ZN6evmone6crypto12_GLOBAL__N_14stepILm47EEEvPSt5arrayIjLm5EEPKSt4byte
FN:145,ripemd160.cpp:_ZN6evmone6crypto12_GLOBAL__N_14stepILm48EEEvPSt5arrayIjLm5EEPKSt4byte
FN:145,ripemd160.cpp:_ZN6evmone6crypto12_GLOBAL__N_14stepILm49EEEvPSt5arrayIjLm5EEPKSt4byte
FN:145,ripemd160.cpp:_ZN6evmone6crypto12_GLOBAL__N_14stepILm50EEEvPSt5arrayIjLm5EEPKSt4byte
FN:145,ripemd160.cpp:_ZN6evmone6crypto12_GLOBAL__N_14stepILm51EEEvPSt5arrayIjLm5EEPKSt4byte
FN:145,ripemd160.cpp:_ZN6evmone6crypto12_GLOBAL__N_14stepILm52EEEvPSt5arrayIjLm5EEPKSt4byte
FN:145,ripemd160.cpp:_ZN6evmone6crypto12_GLOBAL__N_14stepILm53EEEvPSt5arrayIjLm5EEPKSt4byte
FN:145,ripemd160.cpp:_ZN6evmone6crypto12_GLOBAL__N_14stepILm54EEEvPSt5arrayIjLm5EEPKSt4byte
FN:145,ripemd160.cpp:_ZN6evmone6crypto12_GLOBAL__N_14stepILm55EEEvPSt5arrayIjLm5EEPKSt4byte
FN:145,ripemd160.cpp:_ZN6evmone6crypto12_GLOBAL__N_14stepILm56EEEvPSt5arrayIjLm5EEPKSt4byte
FN:145,ripemd160.cpp:_ZN6evmone6crypto12_GLOBAL__N_14stepILm57EEEvPSt5arrayIjLm5EEPKSt4byte
FN:145,ripemd160.cpp:_ZN6evmone6crypto12_GLOBAL__N_14stepILm58EEEvPSt5arrayIjLm5EEPKSt4byte
FN:145,ripemd160.cpp:_ZN6evmone6crypto12_GLOBAL__N_14stepILm59EEEvPSt5arrayIjLm5EEPKSt4byte
FN:145,ripemd160.cpp:_ZN6evmone6crypto12_GLOBAL__N_14stepILm60EEEvPSt5arrayIjLm5EEPKSt4byte
FN:145,ripemd160.cpp:_ZN6evmone6crypto12_GLOBAL__N_14stepILm61EEEvPSt5arrayIjLm5EEPKSt4byte
FN:145,ripemd160.cpp:_ZN6evmone6crypto12_GLOBAL__N_14stepILm62EEEvPSt5arrayIjLm5EEPKSt4byte
FN:145,ripemd160.cpp:_ZN6evmone6crypto12_GLOBAL__N_14stepILm63EEEvPSt5arrayIjLm5EEPKSt4byte
FN:145,ripemd160.cpp:_ZN6evmone6crypto12_GLOBAL__N_14stepILm64EEEvPSt5arrayIjLm5EEPKSt4byte
FN:145,ripemd160.cpp:_ZN6evmone6crypto12_GLOBAL__N_14stepILm65EEEvPSt5arrayIjLm5EEPKSt4byte
FN:145,ripemd160.cpp:_ZN6evmone6crypto12_GLOBAL__N_14stepILm66EEEvPSt5arrayIjLm5EEPKSt4byte
FN:145,ripemd160.cpp:_ZN6evmone6crypto12_GLOBAL__N_14stepILm67EEEvPSt5arrayIjLm5EEPKSt4byte
FN:145,ripemd160.cpp:_ZN6evmone6crypto12_GLOBAL__N_14stepILm68EEEvPSt5arrayIjLm5EEPKSt4byte
FN:145,ripemd160.cpp:_ZN6evmone6crypto12_GLOBAL__N_14stepILm69EEEvPSt5arrayIjLm5EEPKSt4byte
FN:145,ripemd160.cpp:_ZN6evmone6crypto12_GLOBAL__N_14stepILm70EEEvPSt5arrayIjLm5EEPKSt4byte
FN:145,ripemd160.cpp:_ZN6evmone6crypto12_GLOBAL__N_14stepILm71EEEvPSt5arrayIjLm5EEPKSt4byte
FN:145,ripemd160.cpp:_ZN6evmone6crypto12_GLOBAL__N_14stepILm72EEEvPSt5arrayIjLm5EEPKSt4byte
FN:145,ripemd160.cpp:_ZN6evmone6crypto12_GLOBAL__N_14stepILm73EEEvPSt5arrayIjLm5EEPKSt4byte
FN:145,ripemd160.cpp:_ZN6evmone6crypto12_GLOBAL__N_14stepILm74EEEvPSt5arrayIjLm5EEPKSt4byte
FN:145,ripemd160.cpp:_ZN6evmone6crypto12_GLOBAL__N_14stepILm75EEEvPSt5arrayIjLm5EEPKSt4byte
FN:145,ripemd160.cpp:_ZN6evmone6crypto12_GLOBAL__N_14stepILm76EEEvPSt5arrayIjLm5EEPKSt4byte
FN:145,ripemd160.cpp:_ZN6evmone6crypto12_GLOBAL__N_14stepILm77EEEvPSt5arrayIjLm5EEPKSt4byte
FN:145,ripemd160.cpp:_ZN6evmone6crypto12_GLOBAL__N_14stepILm78EEEvPSt5arrayIjLm5EEPKSt4byte
FN:145,ripemd160.cpp:_ZN6evmone6crypto12_GLOBAL__N_14stepILm79EEEvPSt5arrayIjLm5EEPKSt4byte
FN:139,ripemd160.cpp:_ZN6evmone6crypto12_GLOBAL__N_18store_leITkSt8integralmEEPSt4byteS4_T_
FN:124,ripemd160.cpp:_ZN6evmone6crypto12_GLOBAL__N_15to_leITkSt8integralmEEDaT_
FN:139,ripemd160.cpp:_ZN6evmone6crypto12_GLOBAL__N_18store_leITkSt8integraljEEPSt4byteS4_T_
FNDA:568,_ZN6evmone6crypto9ripemd160EPSt4bytePKS1_m
FNDA:624,ripemd160.cpp:_ZN6evmone6crypto12_GLOBAL__N_18compressERSt5arrayIjLm5EEPKSt4byte
FNDA:624,ripemd160.cpp:_ZN6evmone6crypto12_GLOBAL__N_15stepsIJLm0ELm1ELm2ELm3ELm4ELm5ELm6ELm7ELm8ELm9ELm10ELm11ELm12ELm13ELm14ELm15ELm16ELm17ELm18ELm19ELm20ELm21ELm22ELm23ELm24ELm25ELm26ELm27ELm28ELm29ELm30ELm31ELm32ELm33ELm34ELm35ELm36ELm37ELm38ELm39ELm40ELm41ELm42ELm43ELm44ELm45ELm46ELm47ELm48ELm49ELm50ELm51ELm52ELm53ELm54ELm55ELm56ELm57ELm58ELm59ELm60ELm61ELm62ELm63ELm64ELm65ELm66ELm67ELm68ELm69ELm70ELm71ELm72ELm73ELm74ELm75ELm76ELm77ELm78ELm79EEEEvPSt5arrayIjLm5EEPKSt4byteSt16integer_sequenceImJXspT_EEE
FNDA:624,ripemd160.cpp:_ZN6evmone6crypto12_GLOBAL__N_14stepILm0EEEvPSt5arrayIjLm5EEPKSt4byte
FNDA:19968,ripemd160.cpp:_ZNK6evmone6crypto12_GLOBAL__N_13$_0clEjjj
FNDA:19968,ripemd160.cpp:_ZNK6evmone6crypto12_GLOBAL__N_13$_1clEjjj
FNDA:99840,ripemd160.cpp:_ZN6evmone6crypto12_GLOBAL__N_17load_leIjEET_PKSt4byte
FNDA:102680,ripemd160.cpp:_ZN6evmone6crypto12_GLOBAL__N_15to_leITkSt8integraljEEDaT_
FNDA:624,ripemd160.cpp:_ZN6evmone6crypto12_GLOBAL__N_14stepILm1EEEvPSt5arrayIjLm5EEPKSt4byte
FNDA:624,ripemd160.cpp:_ZN6evmone6crypto12_GLOBAL__N_14stepILm2EEEvPSt5arrayIjLm5EEPKSt4byte
FNDA:624,ripemd160.cpp:_ZN6evmone6crypto12_GLOBAL__N_14stepILm3EEEvPSt5arrayIjLm5EEPKSt4byte
FNDA:624,ripemd160.cpp:_ZN6evmone6crypto12_GLOBAL__N_14stepILm4EEEvPSt5arrayIjLm5EEPKSt4byte
FNDA:624,ripemd160.cpp:_ZN6evmone6crypto12_GLOBAL__N_14stepILm5EEEvPSt5arrayIjLm5EEPKSt4byte
FNDA:624,ripemd160.cpp:_ZN6evmone6crypto12_GLOBAL__N_14stepILm6EEEvPSt5arrayIjLm5EEPKSt4byte
FNDA:624,ripemd160.cpp:_ZN6evmone6crypto12_GLOBAL__N_14stepILm7EEEvPSt5arrayIjLm5EEPKSt4byte
FNDA:624,ripemd160.cpp:_ZN6evmone6crypto12_GLOBAL__N_14stepILm8EEEvPSt5arrayIjLm5EEPKSt4byte
FNDA:624,ripemd160.cpp:_ZN6evmone6crypto12_GLOBAL__N_14stepILm9EEEvPSt5arrayIjLm5EEPKSt4byte
FNDA:624,ripemd160.cpp:_ZN6evmone6crypto12_GLOBAL__N_14stepILm10EEEvPSt5arrayIjLm5EEPKSt4byte
FNDA:624,ripemd160.cpp:_ZN6evmone6crypto12_GLOBAL__N_14stepILm11EEEvPSt5arrayIjLm5EEPKSt4byte
FNDA:624,ripemd160.cpp:_ZN6evmone6crypto12_GLOBAL__N_14stepILm12EEEvPSt5arrayIjLm5EEPKSt4byte
FNDA:624,ripemd160.cpp:_ZN6evmone6crypto12_GLOBAL__N_14stepILm13EEEvPSt5arrayIjLm5EEPKSt4byte
FNDA:624,ripemd160.cpp:_ZN6evmone6crypto12_GLOBAL__N_14stepILm14EEEvPSt5arrayIjLm5EEPKSt4byte
FNDA:624,ripemd160.cpp:_ZN6evmone6crypto12_GLOBAL__N_14stepILm15EEEvPSt5arrayIjLm5EEPKSt4byte
FNDA:624,ripemd160.cpp:_ZN6evmone6crypto12_GLOBAL__N_14stepILm16EEEvPSt5arrayIjLm5EEPKSt4byte
FNDA:19968,ripemd160.cpp:_ZNK6evmone6crypto12_GLOBAL__N_13$_2clEjjj
FNDA:19968,ripemd160.cpp:_ZNK6evmone6crypto12_GLOBAL__N_13$_3clEjjj
FNDA:624,ripemd160.cpp:_ZN6evmone6crypto12_GLOBAL__N_14stepILm17EEEvPSt5arrayIjLm5EEPKSt4byte
FNDA:624,ripemd160.cpp:_ZN6evmone6crypto12_GLOBAL__N_14stepILm18EEEvPSt5arrayIjLm5EEPKSt4byte
FNDA:624,ripemd160.cpp:_ZN6evmone6crypto12_GLOBAL__N_14stepILm19EEEvPSt5arrayIjLm5EEPKSt4byte
FNDA:624,ripemd160.cpp:_ZN6evmone6crypto12_GLOBAL__N_14stepILm20EEEvPSt5arrayIjLm5EEPKSt4byte
FNDA:624,ripemd160.cpp:_ZN6evmone6crypto12_GLOBAL__N_14stepILm21EEEvPSt5arrayIjLm5EEPKSt4byte
FNDA:624,ripemd160.cpp:_ZN6evmone6crypto12_GLOBAL__N_14stepILm22EEEvPSt5arrayIjLm5EEPKSt4byte
FNDA:624,ripemd160.cpp:_ZN6evmone6crypto12_GLOBAL__N_14stepILm23EEEvPSt5arrayIjLm5EEPKSt4byte
FNDA:624,ripemd160.cpp:_ZN6evmone6crypto12_GLOBAL__N_14stepILm24EEEvPSt5arrayIjLm5EEPKSt4byte
FNDA:624,ripemd160.cpp:_ZN6evmone6crypto12_GLOBAL__N_14stepILm25EEEvPSt5arrayIjLm5EEPKSt4byte
FNDA:624,ripemd160.cpp:_ZN6evmone6crypto12_GLOBAL__N_14stepILm26EEEvPSt5arrayIjLm5EEPKSt4byte
FNDA:624,ripemd160.cpp:_ZN6evmone6crypto12_GLOBAL__N_14stepILm27EEEvPSt5arrayIjLm5EEPKSt4byte
FNDA:624,ripemd160.cpp:_ZN6evmone6crypto12_GLOBAL__N_14stepILm28EEEvPSt5arrayIjLm5EEPKSt4byte
FNDA:624,ripemd160.cpp:_ZN6evmone6crypto12_GLOBAL__N_14stepILm29EEEvPSt5arrayIjLm5EEPKSt4byte
FNDA:624,ripemd160.cpp:_ZN6evmone6crypto12_GLOBAL__N_14stepILm30EEEvPSt5arrayIjLm5EEPKSt4byte
FNDA:624,ripemd160.cpp:_ZN6evmone6crypto12_GLOBAL__N_14stepILm31EEEvPSt5arrayIjLm5EEPKSt4byte
FNDA:624,ripemd160.cpp:_ZN6evmone6crypto12_GLOBAL__N_14stepILm32EEEvPSt5arrayIjLm5EEPKSt4byte
FNDA:19968,ripemd160.cpp:_ZNK6evmone6crypto12_GLOBAL__N_13$_4clEjjj
FNDA:624,ripemd160.cpp:_ZN6evmone6crypto12_GLOBAL__N_14stepILm33EEEvPSt5arrayIjLm5EEPKSt4byte
FNDA:624,ripemd160.cpp:_ZN6evmone6crypto12_GLOBAL__N_14stepILm34EEEvPSt5arrayIjLm5EEPKSt4byte
FNDA:624,ripemd160.cpp:_ZN6evmone6crypto12_GLOBAL__N_14stepILm35EEEvPSt5arrayIjLm5EEPKSt4byte
FNDA:624,ripemd160.cpp:_ZN6evmone6crypto12_GLOBAL__N_14stepILm36EEEvPSt5arrayIjLm5EEPKSt4byte
FNDA:624,ripemd160.cpp:_ZN6evmone6crypto12_GLOBAL__N_14stepILm37EEEvPSt5arrayIjLm5EEPKSt4byte
FNDA:624,ripemd160.cpp:_ZN6evmone6crypto12_GLOBAL__N_14stepILm38EEEvPSt5arrayIjLm5EEPKSt4byte
FNDA:624,ripemd160.cpp:_ZN6evmone6crypto12_GLOBAL__N_14stepILm39EEEvPSt5arrayIjLm5EEPKSt4byte
FNDA:624,ripemd160.cpp:_ZN6evmone6crypto12_GLOBAL__N_14stepILm40EEEvPSt5arrayIjLm5EEPKSt4byte
FNDA:624,ripemd160.cpp:_ZN6evmone6crypto12_GLOBAL__N_14stepILm41EEEvPSt5arrayIjLm5EEPKSt4byte
FNDA:624,ripemd160.cpp:_ZN6evmone6crypto12_GLOBAL__N_14stepILm42EEEvPSt5arrayIjLm5EEPKSt4byte
FNDA:624,ripemd160.cpp:_ZN6evmone6crypto12_GLOBAL__N_14stepILm43EEEvPSt5arrayIjLm5EEPKSt4byte
FNDA:624,ripemd160.cpp:_ZN6evmone6crypto12_GLOBAL__N_14stepILm44EEEvPSt5arrayIjLm5EEPKSt4byte
FNDA:624,ripemd160.cpp:_ZN6evmone6crypto12_GLOBAL__N_14stepILm45EEEvPSt5arrayIjLm5EEPKSt4byte
FNDA:624,ripemd160.cpp:_ZN6evmone6crypto12_GLOBAL__N_14stepILm46EEEvPSt5arrayIjLm5EEPKSt4byte
FNDA:624,ripemd160.cpp:_ZN6evmone6crypto12_GLOBAL__N_14stepILm47EEEvPSt5arrayIjLm5EEPKSt4byte
FNDA:624,ripemd160.cpp:_ZN6evmone6crypto12_GLOBAL__N_14stepILm48EEEvPSt5arrayIjLm5EEPKSt4byte
FNDA:624,ripemd160.cpp:_ZN6evmone6crypto12_GLOBAL__N_14stepILm49EEEvPSt5arrayIjLm5EEPKSt4byte
FNDA:624,ripemd160.cpp:_ZN6evmone6crypto12_GLOBAL__N_14stepILm50EEEvPSt5arrayIjLm5EEPKSt4byte
FNDA:624,ripemd160.cpp:_ZN6evmone6crypto12_GLOBAL__N_14stepILm51EEEvPSt5arrayIjLm5EEPKSt4byte
FNDA:624,ripemd160.cpp:_ZN6evmone6crypto12_GLOBAL__N_14stepILm52EEEvPSt5arrayIjLm5EEPKSt4byte
FNDA:624,ripemd160.cpp:_ZN6evmone6crypto12_GLOBAL__N_14stepILm53EEEvPSt5arrayIjLm5EEPKSt4byte
FNDA:624,ripemd160.cpp:_ZN6evmone6crypto12_GLOBAL__N_14stepILm54EEEvPSt5arrayIjLm5EEPKSt4byte
FNDA:624,ripemd160.cpp:_ZN6evmone6crypto12_GLOBAL__N_14stepILm55EEEvPSt5arrayIjLm5EEPKSt4byte
FNDA:624,ripemd160.cpp:_ZN6evmone6crypto12_GLOBAL__N_14stepILm56EEEvPSt5arrayIjLm5EEPKSt4byte
FNDA:624,ripemd160.cpp:_ZN6evmone6crypto12_GLOBAL__N_14stepILm57EEEvPSt5arrayIjLm5EEPKSt4byte
FNDA:624,ripemd160.cpp:_ZN6evmone6crypto12_GLOBAL__N_14stepILm58EEEvPSt5arrayIjLm5EEPKSt4byte
FNDA:624,ripemd160.cpp:_ZN6evmone6crypto12_GLOBAL__N_14stepILm59EEEvPSt5arrayIjLm5EEPKSt4byte
FNDA:624,ripemd160.cpp:_ZN6evmone6crypto12_GLOBAL__N_14stepILm60EEEvPSt5arrayIjLm5EEPKSt4byte
FNDA:624,ripemd160.cpp:_ZN6evmone6crypto12_GLOBAL__N_14stepILm61EEEvPSt5arrayIjLm5EEPKSt4byte
FNDA:624,ripemd160.cpp:_ZN6evmone6crypto12_GLOBAL__N_14stepILm62EEEvPSt5arrayIjLm5EEPKSt4byte
FNDA:624,ripemd160.cpp:_ZN6evmone6crypto12_GLOBAL__N_14stepILm63EEEvPSt5arrayIjLm5EEPKSt4byte
FNDA:624,ripemd160.cpp:_ZN6evmone6crypto12_GLOBAL__N_14stepILm64EEEvPSt5arrayIjLm5EEPKSt4byte
FNDA:624,ripemd160.cpp:_ZN6evmone6crypto12_GLOBAL__N_14stepILm65EEEvPSt5arrayIjLm5EEPKSt4byte
FNDA:624,ripemd160.cpp:_ZN6evmone6crypto12_GLOBAL__N_14stepILm66EEEvPSt5arrayIjLm5EEPKSt4byte
FNDA:624,ripemd160.cpp:_ZN6evmone6crypto12_GLOBAL__N_14stepILm67EEEvPSt5arrayIjLm5EEPKSt4byte
FNDA:624,ripemd160.cpp:_ZN6evmone6crypto12_GLOBAL__N_14stepILm68EEEvPSt5arrayIjLm5EEPKSt4byte
FNDA:624,ripemd160.cpp:_ZN6evmone6crypto12_GLOBAL__N_14stepILm69EEEvPSt5arrayIjLm5EEPKSt4byte
FNDA:624,ripemd160.cpp:_ZN6evmone6crypto12_GLOBAL__N_14stepILm70EEEvPSt5arrayIjLm5EEPKSt4byte
FNDA:624,ripemd160.cpp:_ZN6evmone6crypto12_GLOBAL__N_14stepILm71EEEvPSt5arrayIjLm5EEPKSt4byte
FNDA:624,ripemd160.cpp:_ZN6evmone6crypto12_GLOBAL__N_14stepILm72EEEvPSt5arrayIjLm5EEPKSt4byte
FNDA:624,ripemd160.cpp:_ZN6evmone6crypto12_GLOBAL__N_14stepILm73EEEvPSt5arrayIjLm5EEPKSt4byte
FNDA:624,ripemd160.cpp:_ZN6evmone6crypto12_GLOBAL__N_14stepILm74EEEvPSt5arrayIjLm5EEPKSt4byte
FNDA:624,ripemd160.cpp:_ZN6evmone6crypto12_GLOBAL__N_14stepILm75EEEvPSt5arrayIjLm5EEPKSt4byte
FNDA:624,ripemd160.cpp:_ZN6evmone6crypto12_GLOBAL__N_14stepILm76EEEvPSt5arrayIjLm5EEPKSt4byte
FNDA:624,ripemd160.cpp:_ZN6evmone6crypto12_GLOBAL__N_14stepILm77EEEvPSt5arrayIjLm5EEPKSt4byte
FNDA:624,ripemd160.cpp:_ZN6evmone6crypto12_GLOBAL__N_14stepILm78EEEvPSt5arrayIjLm5EEPKSt4byte
FNDA:624,ripemd160.cpp:_ZN6evmone6crypto12_GLOBAL__N_14stepILm79EEEvPSt5arrayIjLm5EEPKSt4byte
FNDA:568,ripemd160.cpp:_ZN6evmone6crypto12_GLOBAL__N_18store_leITkSt8integralmEEPSt4byteS4_T_
FNDA:568,ripemd160.cpp:_ZN6evmone6crypto12_GLOBAL__N_15to_leITkSt8integralmEEDaT_
FNDA:2840,ripemd160.cpp:_ZN6evmone6crypto12_GLOBAL__N_18store_leITkSt8integraljEEPSt4byteS4_T_
FNF:12
FNH:12
DA:52,19968
DA:55,19968
DA:58,19968
DA:61,19968
DA:64,19968
DA:124,103248
DA:127,103248
DA:128,103248
DA:132,99840
DA:133,99840
DA:134,99840
DA:135,99840
DA:136,99840
DA:139,3408
DA:140,3408
DA:141,3408
DA:145,49920
DA:146,49920
DA:147,49920
DA:149,149760
DA:150,99840
DA:151,99840
DA:152,99840
DA:153,99840
DA:154,99840
DA:156,99840
DA:157,99840
DA:158,99840
DA:159,99840
DA:160,99840
DA:162,99840
DA:163,99840
DA:164,99840
DA:165,99840
DA:166,99840
DA:167,99840
DA:168,49920
DA:176,624
DA:177,624
DA:178,624
DA:181,624
DA:182,624
DA:183,624
DA:185,624
DA:186,3744
DA:187,3120
DA:188,624
DA:189,624
DA:193,568
DA:194,568
DA:195,568
DA:197,568
DA:198,624
DA:199,56
DA:201,568
DA:202,568
DA:203,568
DA:204,568
DA:207,568
DA:208,568
DA:209,568
DA:210,0
DA:211,0
DA:212,0
DA:213,0
DA:214,568
DA:215,568
DA:216,568
DA:218,568
DA:219,2840
DA:220,568
BRDA:149,0,0,1248
BRDA:149,0,1,624
BRDA:149,1,2,1248
BRDA:149,1,3,624
BRDA:149,2,4,1248
BRDA:149,2,5,624
BRDA:149,3,6,1248
BRDA:149,3,7,624
BRDA:149,4,8,1248
BRDA:149,4,9,624
BRDA:149,5,10,1248
BRDA:149,5,11,624
BRDA:149,6,12,1248
BRDA:149,6,13,624
BRDA:149,7,14,1248
BRDA:149,7,15,624
BRDA:149,8,16,1248
BRDA:149,8,17,624
BRDA:149,9,18,1248
BRDA:149,9,19,624
BRDA:149,10,20,1248
BRDA:149,10,21,624
BRDA:149,11,22,1248
BRDA:149,11,23,624
BRDA:149,12,24,1248
BRDA:149,12,25,624
BRDA:149,13,26,1248
BRDA:149,13,27,624
BRDA:149,14,28,1248
BRDA:149,14,29,624
BRDA:149,15,30,1248
BRDA:149,15,31,624
BRDA:149,16,32,1248
BRDA:149,16,33,624
BRDA:149,17,34,1248
BRDA:149,17,35,624
BRDA:149,18,36,1248
BRDA:149,18,37,624
BRDA:149,19,38,1248
BRDA:149,19,39,624
BRDA:149,20,40,1248
BRDA:149,20,41,624
BRDA:149,21,42,1248
BRDA:149,21,43,624
BRDA:149,22,44,1248
BRDA:149,22,45,624
BRDA:149,23,46,1248
BRDA:149,23,47,624
BRDA:149,24,48,1248
BRDA:149,24,49,624
BRDA:149,25,50,1248
BRDA:149,25,51,624
BRDA:149,26,52,1248
BRDA:149,26,53,624
BRDA:149,27,54,1248
BRDA:149,27,55,624
BRDA:149,28,56,1248
BRDA:149,28,57,624
BRDA:149,29,58,1248
BRDA:149,29,59,624
BRDA:149,30,60,1248
BRDA:149,30,61,624
BRDA:149,31,62,1248
BRDA:149,31,63,624
BRDA:149,32,64,1248
BRDA:149,32,65,624
BRDA:149,33,66,1248
BRDA:149,33,67,624
BRDA:149,34,68,1248
BRDA:149,34,69,624
BRDA:149,35,70,1248
BRDA:149,35,71,624
BRDA:149,36,72,1248
BRDA:149,36,73,624
BRDA:149,37,74,1248
BRDA:149,37,75,624
BRDA:149,38,76,1248
BRDA:149,38,77,624
BRDA:149,39,78,1248
BRDA:149,39,79,624
BRDA:149,40,80,1248
BRDA:149,40,81,624
BRDA:149,41,82,1248
BRDA:149,41,83,624
BRDA:149,42,84,1248
BRDA:149,42,85,624
BRDA:149,43,86,1248
BRDA:149,43,87,624
BRDA:149,44,88,1248
BRDA:149,44,89,624
BRDA:149,45,90,1248
BRDA:149,45,91,624
BRDA:149,46,92,1248
BRDA:149,46,93,624
BRDA:149,47,94,1248
BRDA:149,47,95,624
BRDA:149,48,96,1248
BRDA:149,48,97,624
BRDA:149,49,98,1248
BRDA:149,49,99,624
BRDA:149,50,100,1248
BRDA:149,50,101,624
BRDA:149,51,102,1248
BRDA:149,51,103,624
BRDA:149,52,104,1248
BRDA:149,52,105,624
BRDA:149,53,106,1248
BRDA:149,53,107,624
BRDA:149,54,108,1248
BRDA:149,54,109,624
BRDA:149,55,110,1248
BRDA:149,55,111,624
BRDA:149,56,112,1248
BRDA:149,56,113,624
BRDA:149,57,114,1248
BRDA:149,57,115,624
BRDA:149,58,116,1248
BRDA:149,58,117,624
BRDA:149,59,118,1248
BRDA:149,59,119,624
BRDA:149,60,120,1248
BRDA:149,60,121,624
BRDA:149,61,122,1248
BRDA:149,61,123,624
BRDA:149,62,124,1248
BRDA:149,62,125,624
BRDA:149,63,126,1248
BRDA:149,63,127,624
BRDA:149,64,128,1248
BRDA:149,64,129,624
BRDA:149,65,130,1248
BRDA:149,65,131,624
BRDA:149,66,132,1248
BRDA:149,66,133,624
BRDA:149,67,134,1248
BRDA:149,67,135,624
BRDA:149,68,136,1248
BRDA:149,68,137,624
BRDA:149,69,138,1248
BRDA:149,69,139,624
BRDA:149,70,140,1248
BRDA:149,70,141,624
BRDA:149,71,142,1248
BRDA:149,71,143,624
BRDA:149,72,144,1248
BRDA:149,72,145,624
BRDA:149,73,146,1248
BRDA:149,73,147,624
BRDA:149,74,148,1248
BRDA:149,74,149,624
BRDA:149,75,150,1248
BRDA:149,75,151,624
BRDA:149,76,152,1248
BRDA:149,76,153,624
BRDA:149,77,154,1248
BRDA:149,77,155,624
BRDA:149,78,156,1248
BRDA:149,78,157,624
BRDA:149,79,158,1248
BRDA:149,79,159,624
BRDA:186,0,0,3120
BRDA:186,0,1,624
BRDA:198,0,0,56
BRDA:198,0,1,568
BRDA:209,0,0,0
BRDA:209,0,1,568
BRDA:218,0,0,2840
BRDA:218,0,1,568
BRF:10
BRH:9
LF:71
LH:67
end_of_record
SF:/home/builder/project/lib/evmone_precompiles/secp256k1.cpp
FN:20,_ZN6evmmax9secp256k111calculate_yERKNS_8ModArithIN4intx4uintILj256EEEEERKS4_b
FN:33,_ZN6evmmax9secp256k13mulERKNS_3ecc11AffinePointINS0_5CurveEEERKN4intx4uintILj256EEE
FN:39,_ZN6evmmax9secp256k110to_addressERKNS_3ecc11AffinePointINS0_5CurveEEE
FN:53,_ZN6evmmax9secp256k123secp256k1_ecdsa_recoverERK14ethash_hash256RKN4intx4uintILj256EEES8_b
FN:110,_ZN6evmmax9secp256k19ecrecoverERK14ethash_hash256RKN4intx4uintILj256EEES8_b
FN:119,_ZN6evmmax9secp256k110field_sqrtERKNS_8ModArithIN4intx4uintILj256EEEEERKS4_
FNDA:730,_ZN6evmmax9secp256k111calculate_yERKNS_8ModArithIN4intx4uintILj256EEEEERKS4_b
FNDA:0,_ZN6evmmax9secp256k13mulERKNS_3ecc11AffinePointINS0_5CurveEEERKN4intx4uintILj256EEE
FNDA:676,_ZN6evmmax9secp256k110to_addressERKNS_3ecc11AffinePointINS0_5CurveEEE
FNDA:952,_ZN6evmmax9secp256k123secp256k1_ecdsa_recoverERK14ethash_hash256RKN4intx4uintILj256EEES8_b
FNDA:952,_ZN6evmmax9secp256k19ecrecoverERK14ethash_hash256RKN4intx4uintILj256EEES8_b
FNDA:730,_ZN6evmmax9secp256k110field_sqrtERKNS_8ModArithIN4intx4uintILj256EEEEERKS4_
FNF:6
FNH:5
DA:20,730
DA:22,730
DA:23,730
DA:24,730
DA:25,48
DA:28,682
DA:29,682
DA:30,730
DA:33,0
DA:34,0
DA:35,0
DA:36,0
DA:39,676
DA:41,676
DA:42,676
DA:44,676
DA:45,676
DA:46,676
DA:48,676
DA:49,676
DA:53,952
DA:58,952
DA:59,222
DA:65,730
DA:66,730
DA:67,730
DA:68,0
DA:70,730
DA:73,730
DA:74,730
DA:76,730
DA:77,730
DA:78,730
DA:79,730
DA:81,730
DA:82,730
DA:83,730
DA:84,730
DA:87,730
DA:88,730
DA:89,730
DA:90,730
DA:91,48
DA:94,682
DA:95,682
DA:96,682
DA:97,682
DA:98,682
DA:100,682
DA:102,682
DA:103,6
DA:105,676
DA:106,682
DA:110,952
DA:111,952
DA:112,952
DA:113,276
DA:115,676
DA:116,952
DA:119,730
DA:149,730
DA:150,730
DA:151,730
DA:152,730
DA:153,730
DA:157,730
DA:160,730
DA:163,730
DA:164,1460
DA:165,730
DA:168,730
DA:171,730
DA:174,730
DA:177,730
DA:178,1460
DA:179,730
DA:182,730
DA:185,730
DA:186,2920
DA:187,2190
DA:190,730
DA:193,730
DA:194,8030
DA:195,7300
DA:198,730
DA:201,730
DA:202,3650
DA:203,2920
DA:206,730
DA:209,730
DA:210,19710
DA:211,18980
DA:214,730
DA:217,730
DA:218,39420
DA:219,38690
DA:222,730
DA:225,730
DA:226,78840
DA:227,78110
DA:230,730
DA:233,5840
DA:234,5110
DA:237,730
DA:240,17520
DA:241,16790
DA:244,730
DA:247,5110
DA:248,4380
DA:251,730
DA:254,2190
DA:255,1460
DA:257,730
DA:258,48
DA:260,682
DA:261,730
BRDA:24,0,0,48
BRDA:24,0,1,682
BRDA:29,0,0,256
BRDA:29,0,1,426
BRDA:58,0,0,222
BRDA:58,0,1,730
BRDA:58,1,2,6
BRDA:58,1,3,946
BRDA:58,2,4,12
BRDA:58,2,5,934
BRDA:58,3,6,192
BRDA:58,3,7,742
BRDA:58,4,8,12
BRDA:58,4,9,730
BRDA:67,0,0,0
BRDA:67,0,1,730
BRDA:90,0,0,48
BRDA:90,0,1,682
BRDA:102,0,0,6
BRDA:102,0,1,676
BRDA:112,0,0,276
BRDA:112,0,1,676
BRDA:164,0,0,730
BRDA:164,0,1,730
BRDA:178,0,0,730
BRDA:178,0,1,730
BRDA:186,0,0,2190
BRDA:186,0,1,730
BRDA:194,0,0,7300
BRDA:194,0,1,730
BRDA:202,0,0,2920
BRDA:202,0,1,730
BRDA:210,0,0,18980
BRDA:210,0,1,730
BRDA:218,0,0,38690
BRDA:218,0,1,730
BRDA:226,0,0,78110
BRDA:226,0,1,730
BRDA:233,0,0,5110
BRDA:233,0,1,730
BRDA:240,0,0,16790
BRDA:240,0,1,730
BRDA:247,0,0,4380
BRDA:247,0,1,730
BRDA:254,0,0,1460
BRDA:254,0,1,730
BRDA:257,0,0,48
BRDA:257,0,1,682
BRF:48
BRH:47
LF:116
LH:111
end_of_record
SF:/home/builder/project/lib/evmone_precompiles/secp256r1.cpp
FN:20,_ZN6evmmax9secp256r16verifyERK14ethash_hash256RKN4intx4uintILj256EEES8_S8_S8_
FN:11,secp256r1.cpp:_ZN6evmmax9secp256r112_GLOBAL__N_111is_on_curveERKNS_3ecc11AffinePointINS0_5CurveEEE
FNDA:710,_ZN6evmmax9secp256r16verifyERK14ethash_hash256RKN4intx4uintILj256EEES8_S8_S8_
FNDA:572,secp256r1.cpp:_ZN6evmmax9secp256r112_GLOBAL__N_111is_on_curveERKNS_3ecc11AffinePointINS0_5CurveEEE
FNF:2
FNH:2
DA:11,572
DA:12,572
DA:13,572
DA:14,572
DA:15,572
DA:20,710
DA:27,710
DA:28,126
DA:31,584
DA:32,8
DA:33,576
DA:34,576
DA:35,4
DA:38,572
DA:39,50
DA:41,522
DA:44,522
DA:45,522
DA:48,522
DA:49,522
DA:50,522
DA:53,522
DA:54,522
DA:55,522
DA:56,522
DA:61,522
DA:62,522
DA:63,6
DA:65,522
DA:66,572
BRDA:27,0,0,126
BRDA:27,0,1,584
BRDA:27,1,2,24
BRDA:27,1,3,686
BRDA:27,2,4,70
BRDA:27,2,5,616
BRDA:27,3,6,10
BRDA:27,3,7,606
BRDA:27,4,8,22
BRDA:27,4,9,584
BRDA:31,0,0,4
BRDA:31,0,1,580
BRDA:31,1,2,4
BRDA:31,1,3,576
BRDA:34,0,0,4
BRDA:34,0,1,572
BRDA:38,0,0,50
BRDA:38,0,1,522
BRDA:62,0,0,6
BRDA:62,0,1,516
BRF:20
BRH:20
LF:30
LH:30
end_of_record
SF:/home/builder/project/lib/evmone_precompiles/sha256.cpp
FN:476,sha256.cpp:_ZN6evmone6cryptoL28select_sha256_implementationEv
FN:714,_ZN6evmone6crypto6sha256EPSt4bytePKS1_m
FN:471,sha256.cpp:_ZN6evmone6cryptoL5cpuidEPii
FN:268,sha256.cpp:_ZN6evmone6cryptoL15sha_256_x86_shaEPjPKSt4bytem
FN:255,sha256.cpp:_ZN6evmone6cryptoL3setEmm
FN:70,_ZN6evmone6crypto11BufferStateC2EPKSt4bytem
FN:75,sha256.cpp:_ZN6evmone6cryptoL10calc_chunkEPhPNS0_11BufferStateE
FN:240,sha256.cpp:_ZN6evmone6cryptoL15sha_256_genericEPjPKSt4bytem
FN:140,sha256.cpp:_ZN6evmone6cryptoL22sha_256_implementationEPjPKSt4bytem
FN:250,sha256.cpp:_ZN6evmone6cryptoL15sha_256_x86_bmiEPjPKSt4bytem
FNDA:2,sha256.cpp:_ZN6evmone6cryptoL28select_sha256_implementationEv
FNDA:65503,_ZN6evmone6crypto6sha256EPSt4bytePKS1_m
FNDA:6,sha256.cpp:_ZN6evmone6cryptoL5cpuidEPii
FNDA:0,sha256.cpp:_ZN6evmone6cryptoL15sha_256_x86_shaEPjPKSt4bytem
FNDA:0,sha256.cpp:_ZN6evmone6cryptoL3setEmm
FNDA:65503,_ZN6evmone6crypto11BufferStateC2EPKSt4bytem
FNDA:156702,sha256.cpp:_ZN6evmone6cryptoL10calc_chunkEPhPNS0_11BufferStateE
FNDA:0,sha256.cpp:_ZN6evmone6cryptoL15sha_256_genericEPjPKSt4bytem
FNDA:65503,sha256.cpp:_ZN6evmone6cryptoL22sha_256_implementationEPjPKSt4bytem
FNDA:65503,sha256.cpp:_ZN6evmone6cryptoL15sha_256_x86_bmiEPjPKSt4bytem
FNF:10
FNH:7
DA:39,233778
DA:40,131012
DA:70,65503
DA:71,65503
DA:75,156702
DA:76,156702
DA:77,65503
DA:78,65503
DA:79,65503
DA:81,91199
DA:82,25690
DA:83,25690
DA:84,25690
DA:85,25690
DA:86,25690
DA:87,25690
DA:89,65509
DA:90,65509
DA:91,3701
DA:92,3701
DA:93,3701
DA:94,3701
DA:95,3701
DA:96,65509
DA:99,65509
DA:100,65503
DA:101,65503
DA:102,65503
DA:103,65503
DA:104,65503
DA:112,65509
DA:113,65503
DA:114,65503
DA:115,65503
DA:116,65503
DA:117,65503
DA:118,65503
DA:121,65503
DA:122,65503
DA:123,524024
DA:124,458521
DA:125,458521
DA:126,458521
DA:127,458521
DA:128,65503
DA:129,65503
DA:130,6
DA:131,6
DA:132,6
DA:133,6
DA:135,65509
DA:136,91199
DA:140,65503
DA:155,65503
DA:158,65503
DA:160,156702
DA:161,91199
DA:162,91199
DA:163,91199
DA:165,91199
DA:167,820791
DA:168,729592
DA:169,729592
DA:170,729592
DA:172,91199
DA:187,91199
DA:190,455995
DA:191,364796
DA:192,6201532
DA:193,5836736
DA:194,5836736
DA:195,1459184
DA:196,1459184
DA:197,1459184
DA:198,1459184
DA:199,1459184
DA:200,4377552
DA:201,4377552
DA:204,4377552
DA:205,4377552
DA:206,4377552
DA:207,4377552
DA:208,4377552
DA:209,4377552
DA:210,4377552
DA:211,5836736
DA:212,5836736
DA:213,5836736
DA:214,5836736
DA:215,5836736
DA:216,5836736
DA:217,5836736
DA:218,5836736
DA:220,5836736
DA:221,5836736
DA:222,5836736
DA:223,5836736
DA:224,5836736
DA:225,5836736
DA:226,5836736
DA:227,5836736
DA:228,5836736
DA:229,364796
DA:232,820791
DA:233,729592
DA:234,729592
DA:235,729592
DA:236,91199
DA:237,65503
DA:240,0
DA:241,0
DA:242,0
DA:250,65503
DA:251,65503
DA:252,65503
DA:255,0
DA:257,0
DA:258,0
DA:268,0
DA:270,0
DA:271,0
DA:272,0
DA:273,0
DA:276,0
DA:281,0
DA:282,0
DA:284,0
DA:285,0
DA:286,0
DA:287,0
DA:289,0
DA:292,0
DA:294,0
DA:295,0
DA:297,0
DA:298,0
DA:301,0
DA:302,0
DA:303,0
DA:304,0
DA:305,0
DA:306,0
DA:309,0
DA:310,0
DA:311,0
DA:312,0
DA:313,0
DA:314,0
DA:315,0
DA:318,0
DA:319,0
DA:320,0
DA:321,0
DA:322,0
DA:323,0
DA:324,0
DA:327,0
DA:328,0
DA:329,0
DA:330,0
DA:331,0
DA:332,0
DA:333,0
DA:334,0
DA:335,0
DA:336,0
DA:339,0
DA:340,0
DA:341,0
DA:342,0
DA:343,0
DA:344,0
DA:345,0
DA:346,0
DA:349,0
DA:350,0
DA:351,0
DA:352,0
DA:353,0
DA:354,0
DA:355,0
DA:356,0
DA:359,0
DA:360,0
DA:361,0
DA:362,0
DA:363,0
DA:364,0
DA:365,0
DA:366,0
DA:369,0
DA:370,0
DA:371,0
DA:372,0
DA:373,0
DA:374,0
DA:375,0
DA:376,0
DA:379,0
DA:380,0
DA:381,0
DA:382,0
DA:383,0
DA:384,0
DA:385,0
DA:386,0
DA:389,0
DA:390,0
DA:391,0
DA:392,0
DA:393,0
DA:394,0
DA:395,0
DA:396,0
DA:399,0
DA:400,0
DA:401,0
DA:402,0
DA:403,0
DA:404,0
DA:405,0
DA:406,0
DA:409,0
DA:410,0
DA:411,0
DA:412,0
DA:413,0
DA:414,0
DA:415,0
DA:416,0
DA:419,0
DA:420,0
DA:421,0
DA:422,0
DA:423,0
DA:424,0
DA:425,0
DA:426,0
DA:429,0
DA:430,0
DA:431,0
DA:432,0
DA:433,0
DA:434,0
DA:435,0
DA:438,0
DA:439,0
DA:440,0
DA:441,0
DA:442,0
DA:443,0
DA:444,0
DA:447,0
DA:448,0
DA:449,0
DA:450,0
DA:453,0
DA:454,0
DA:455,0
DA:457,0
DA:458,0
DA:459,0
DA:460,0
DA:463,0
DA:464,0
DA:467,0
DA:471,6
DA:472,6
DA:473,6
DA:476,2
DA:477,2
DA:478,2
DA:479,2
DA:481,2
DA:482,2
DA:483,2
DA:484,2
DA:486,2
DA:487,2
DA:488,2
DA:489,2
DA:490,2
DA:491,2
DA:492,2
DA:493,2
DA:494,2
DA:495,2
DA:496,2
DA:497,2
DA:499,2
DA:500,0
DA:501,0
DA:502,0
DA:503,2
DA:504,2
DA:505,2
DA:506,2
DA:507,2
DA:714,65503
DA:719,65503
DA:720,65503
DA:722,65503
DA:725,589527
DA:726,524024
DA:727,524024
DA:728,524024
DA:729,524024
DA:730,524024
DA:731,524024
DA:732,65503
BRDA:76,0,0,65503
BRDA:76,0,1,91199
BRDA:81,0,0,25690
BRDA:81,0,1,65509
BRDA:90,0,0,3701
BRDA:90,0,1,61808
BRDA:99,0,0,65503
BRDA:99,0,1,6
BRDA:112,0,0,65503
BRDA:112,0,1,6
BRDA:123,0,0,458521
BRDA:123,0,1,65503
BRDA:160,0,0,91199
BRDA:160,0,1,65503
BRDA:167,0,0,729592
BRDA:167,0,1,91199
BRDA:190,0,0,364796
BRDA:190,0,1,91199
BRDA:192,0,0,5836736
BRDA:192,0,1,364796
BRDA:194,0,0,1459184
BRDA:194,0,1,4377552
BRDA:232,0,0,729592
BRDA:232,0,1,91199
BRDA:294,0,0,-
BRDA:294,0,1,-
BRDA:486,0,0,2
BRDA:486,0,1,0
BRDA:491,0,0,2
BRDA:491,0,1,0
BRDA:499,0,0,2
BRDA:499,0,1,0
BRDA:499,1,2,0
BRDA:499,1,3,2
BRDA:503,0,0,2
BRDA:503,0,1,0
BRDA:503,1,2,2
BRDA:503,1,3,0
BRDA:725,0,0,524024
BRDA:725,0,1,65503
BRF:40
BRH:32
LF:307
LH:150
end_of_record
SF:/home/builder/project/test/state/account.hpp
FN:82,_ZNK6evmone5state7Account8is_emptyEv
FNDA:2431069,_ZNK6evmone5state7Account8is_emptyEv
FNF:1
FNH:1
DA:82,2431069
DA:83,2431069
DA:84,2431069
BRDA:83,0,0,2099578
BRDA:83,0,1,331491
BRDA:83,1,2,1042273
BRDA:83,1,3,1057305
BRDA:83,2,4,303295
BRDA:83,2,5,738978
BRF:6
BRH:6
LF:3
LH:3
end_of_record
SF:/home/builder/project/test/state/blob_schedule.hpp
FN:27,_ZN6evmone5state17get_blob_scheduleE13evmc_revision
FNDA:379919,_ZN6evmone5state17get_blob_scheduleE13evmc_revision
FNF:1
FNH:1
DA:27,379919
DA:28,379919
DA:29,259890
DA:30,120029
DA:31,379919
BRDA:28,0,0,259890
BRDA:28,0,1,120029
BRF:2
BRH:2
LF:5
LH:5
end_of_record
SF:/home/builder/project/test/state/block.cpp
FN:17,_ZN6evmone5state13calc_base_feeEllm
FN:44,_ZN6evmone5state22max_blob_gas_per_blockE13evmc_revision
FN:50,_ZN6evmone5state22compute_blob_gas_priceE13evmc_revisionm
FN:81,_ZN6evmone5state20calc_excess_blob_gasE13evmc_revisionmmmRKN4intx4uintILj256EEE
FN:98,_ZN6evmone5state10rlp_encodeB5cxx11ERKNS0_10WithdrawalE
FN:54,block.cpp:_ZZN6evmone5state22compute_blob_gas_priceE13evmc_revisionmENK3$_0clEmmm
FNDA:73328,_ZN6evmone5state13calc_base_feeEllm
FNDA:123630,_ZN6evmone5state22max_blob_gas_per_blockE13evmc_revision
FNDA:190462,_ZN6evmone5state22compute_blob_gas_priceE13evmc_revisionm
FNDA:65827,_ZN6evmone5state20calc_excess_blob_gasE13evmc_revisionmmmRKN4intx4uintILj256EEE
FNDA:4026,_ZN6evmone5state10rlp_encodeB5cxx11ERKNS0_10WithdrawalE
FNDA:190462,block.cpp:_ZZN6evmone5state22compute_blob_gas_priceE13evmc_revisionmENK3$_0clEmmm
FNF:6
FNH:6
DA:17,73328
DA:18,73328
DA:21,73328
DA:22,672
DA:23,672
DA:24,672
DA:25,72656
DA:26,0
DA:27,0
DA:28,0
DA:29,0
DA:30,0
DA:31,0
DA:32,0
DA:33,0
DA:34,72656
DA:35,72656
DA:36,72656
DA:37,72656
DA:38,72656
DA:39,72656
DA:40,72656
DA:41,73328
DA:44,123630
DA:45,123630
DA:46,123630
DA:50,190462
DA:53,190462
DA:54,190462
DA:55,190462
DA:56,190462
DA:57,190462
DA:58,190462
DA:59,486629
DA:60,296647
DA:61,296647
DA:63,296647
DA:64,296647
DA:65,296167
DA:66,480
DA:67,480
DA:68,296167
DA:69,296167
DA:70,189982
DA:71,190462
DA:73,190462
DA:74,190462
DA:75,190462
DA:76,190462
DA:81,65827
DA:83,65827
DA:85,65827
DA:86,65827
DA:87,65827
DA:88,58201
DA:90,7626
DA:91,171
DA:92,171
DA:94,7455
DA:95,7626
DA:98,4026
DA:99,4026
DA:100,4026
DA:101,4026
BRDA:21,0,0,672
BRDA:21,0,1,72656
BRDA:25,0,0,0
BRDA:25,0,1,72656
BRDA:59,0,0,296647
BRDA:59,0,1,189982
BRDA:64,0,0,296167
BRDA:64,0,1,480
BRDA:87,0,0,58201
BRDA:87,0,1,7626
BRDA:90,0,0,171
BRDA:90,0,1,7455
BRDA:90,1,2,2786
BRDA:90,1,3,4840
BRDA:90,2,4,171
BRDA:90,2,5,2615
BRF:16
BRH:15
LF:81
LH:73
end_of_record
SF:/home/builder/project/test/state/block.hpp
FN:28,_ZNK6evmone5state10Withdrawal10get_amountEv
FNDA:4030,_ZNK6evmone5state10Withdrawal10get_amountEv
FNF:1
FNH:1
DA:28,4030
DA:29,4030
DA:30,4030
BRF:0
BRH:0
LF:3
LH:3
end_of_record
SF:/home/builder/project/test/state/bloom_filter.cpp
FN:34,_ZN6evmone5state20compute_bloom_filterESt4spanIKNS0_3LogELm18446744073709551615EE
FN:47,_ZN6evmone5state20compute_bloom_filterESt4spanIKNS0_18TransactionReceiptELm18446744073709551615EE
FN:58,_ZN6evmone5state23bloom_filter_from_bytesERKSt17basic_string_viewIhN4evmc11byte_traitsIhEEE
FN:17,bloom_filter.cpp:_ZN6evmone5state12_GLOBAL__N_16add_toERNS0_11BloomFilterERKSt17basic_string_viewIhN4evmc11byte_traitsIhEEE
FNDA:136939,_ZN6evmone5state20compute_bloom_filterESt4spanIKNS0_3LogELm18446744073709551615EE
FNDA:79949,_ZN6evmone5state20compute_bloom_filterESt4spanIKNS0_18TransactionReceiptELm18446744073709551615EE
FNDA:145312,_ZN6evmone5state23bloom_filter_from_bytesERKSt17basic_string_viewIhN4evmc11byte_traitsIhEEE
FNDA:65049,bloom_filter.cpp:_ZN6evmone5state12_GLOBAL__N_16add_toERNS0_11BloomFilterERKSt17basic_string_viewIhN4evmc11byte_traitsIhEEE
FNF:4
FNH:4
DA:17,65049
DA:18,65049
DA:21,65049
DA:22,195147
DA:23,195147
DA:24,195147
DA:25,195147
DA:26,195147
DA:27,195147
DA:28,195147
DA:29,65049
DA:34,136939
DA:35,136939
DA:36,136939
DA:37,27327
DA:38,27327
DA:39,27327
DA:40,37722
DA:41,27327
DA:43,136939
DA:44,136939
DA:47,79949
DA:48,79949
DA:50,79949
DA:51,81177
DA:52,81177
DA:54,79949
DA:55,79949
DA:58,145312
DA:60,145312
DA:61,145312
DA:62,145312
DA:63,145312
BRDA:21,0,0,195147
BRDA:21,0,1,65049
BRDA:36,0,0,27327
BRDA:36,0,1,136939
BRDA:39,0,0,37722
BRDA:39,0,1,27327
BRDA:50,0,0,81177
BRDA:50,0,1,79949
BRF:8
BRH:8
LF:33
LH:33
end_of_record
SF:/home/builder/project/test/state/bloom_filter.hpp
FN:21,_ZNK6evmone5state11BloomFiltercvSt17basic_string_viewIhN4evmc11byte_traitsIhEEEEv
FNDA:360632,_ZNK6evmone5state11BloomFiltercvSt17basic_string_viewIhN4evmc11byte_traitsIhEEEEv
FNF:1
FNH:1
DA:21,360632
BRF:0
BRH:0
LF:1
LH:1
end_of_record
SF:/home/builder/project/test/state/errors.hpp
FN:45,_ZZN6evmone5state15evmone_categoryEvENK8Category4nameEv
FN:48,_ZZN6evmone5state15evmone_categoryEvENK8Category7messageB5cxx11Ei
FN:42,_ZN6evmone5state15evmone_categoryEv
FN:115,_ZN6evmone5state15make_error_codeENS0_9ErrorCodeE
FNDA:0,_ZZN6evmone5state15evmone_categoryEvENK8Category4nameEv
FNDA:3562,_ZZN6evmone5state15evmone_categoryEvENK8Category7messageB5cxx11Ei
FNDA:6605,_ZN6evmone5state15evmone_categoryEv
FNDA:6605,_ZN6evmone5state15make_error_codeENS0_9ErrorCodeE
FNF:4
FNH:3
DA:42,6605
DA:43,6605
DA:44,6605
DA:45,6605
DA:47,6605
DA:48,6605
DA:49,3562
DA:50,3562
DA:51,0
DA:52,0
DA:53,2183
DA:54,2183
DA:55,4
DA:56,4
DA:57,1104
DA:58,1104
DA:59,6
DA:60,6
DA:61,12
DA:62,12
DA:63,2
DA:64,2
DA:65,5
DA:66,5
DA:67,14
DA:68,14
DA:69,6
DA:70,6
DA:71,4
DA:72,4
DA:73,37
DA:74,37
DA:75,11
DA:76,11
DA:77,3
DA:78,3
DA:79,6
DA:80,6
DA:81,27
DA:82,27
DA:83,123
DA:84,123
DA:85,2
DA:86,2
DA:87,2
DA:88,2
DA:89,0
DA:90,0
DA:91,0
DA:92,0
DA:93,0
DA:94,0
DA:95,11
DA:96,11
DA:97,0
DA:98,0
DA:99,0
DA:100,0
DA:101,0
DA:102,3562
DA:103,3562
DA:104,6605
DA:106,6605
DA:107,6605
DA:108,6605
DA:115,6605
DA:116,6605
DA:117,6605
BRDA:51,0,0,0
BRDA:51,0,1,3562
BRDA:53,0,0,2183
BRDA:53,0,1,1379
BRDA:55,0,0,4
BRDA:55,0,1,3558
BRDA:57,0,0,1104
BRDA:57,0,1,2458
BRDA:59,0,0,6
BRDA:59,0,1,3556
BRDA:61,0,0,12
BRDA:61,0,1,3550
BRDA:63,0,0,2
BRDA:63,0,1,3560
BRDA:65,0,0,5
BRDA:65,0,1,3557
BRDA:67,0,0,14
BRDA:67,0,1,3548
BRDA:69,0,0,6
BRDA:69,0,1,3556
BRDA:71,0,0,4
BRDA:71,0,1,3558
BRDA:73,0,0,37
BRDA:73,0,1,3525
BRDA:75,0,0,11
BRDA:75,0,1,3551
BRDA:77,0,0,3
BRDA:77,0,1,3559
BRDA:79,0,0,6
BRDA:79,0,1,3556
BRDA:81,0,0,27
BRDA:81,0,1,3535
BRDA:83,0,0,123
BRDA:83,0,1,3439
BRDA:85,0,0,2
BRDA:85,0,1,3560
BRDA:87,0,0,2
BRDA:87,0,1,3560
BRDA:89,0,0,0
BRDA:89,0,1,3562
BRDA:91,0,0,0
BRDA:91,0,1,3562
BRDA:93,0,0,0
BRDA:93,0,1,3562
BRDA:95,0,0,11
BRDA:95,0,1,3551
BRDA:97,0,0,0
BRDA:97,0,1,3562
BRDA:99,0,0,0
BRDA:99,0,1,3562
BRF:50
BRH:44
LF:124
LH:111
end_of_record
SF:/home/builder/project/test/state/ethash_difficulty.cpp
FN:76,_ZN6evmone5state20calculate_difficultyElblll13evmc_revision
FN:34,ethash_difficulty.cpp:_ZN6evmone5state12_GLOBAL__N_134calculate_difficulty_pre_byzantiumEllll13evmc_revision
FN:57,ethash_difficulty.cpp:_ZN6evmone5state12_GLOBAL__N_136calculate_difficulty_since_byzantiumElblll13evmc_revision
FN:14,ethash_difficulty.cpp:_ZN6evmone5state12_GLOBAL__N_114get_bomb_delayE13evmc_revision
FNDA:0,_ZN6evmone5state20calculate_difficultyElblll13evmc_revision
FNDA:0,ethash_difficulty.cpp:_ZN6evmone5state12_GLOBAL__N_134calculate_difficulty_pre_byzantiumEllll13evmc_revision
FNDA:0,ethash_difficulty.cpp:_ZN6evmone5state12_GLOBAL__N_136calculate_difficulty_since_byzantiumElblll13evmc_revision
FNDA:0,ethash_difficulty.cpp:_ZN6evmone5state12_GLOBAL__N_114get_bomb_delayE13evmc_revision
FNF:4
FNH:0
DA:14,0
DA:15,0
DA:16,0
DA:17,0
DA:18,0
DA:19,0
DA:20,0
DA:21,0
DA:22,0
DA:23,0
DA:24,0
DA:25,0
DA:26,0
DA:27,0
DA:28,0
DA:29,0
DA:30,0
DA:34,0
DA:36,0
DA:37,0
DA:39,0
DA:41,0
DA:42,0
DA:43,0
DA:44,0
DA:46,0
DA:47,0
DA:48,0
DA:49,0
DA:51,0
DA:52,0
DA:57,0
DA:58,0
DA:59,0
DA:60,0
DA:61,0
DA:62,0
DA:63,0
DA:65,0
DA:66,0
DA:67,0
DA:68,0
DA:69,0
DA:70,0
DA:76,0
DA:78,0
DA:80,0
DA:81,0
DA:83,0
DA:84,0
DA:85,0
DA:86,0
DA:87,0
DA:88,0
DA:90,0
DA:91,0
BRDA:17,0,0,-
BRDA:17,0,1,-
BRDA:19,0,0,-
BRDA:19,0,1,-
BRDA:21,0,0,-
BRDA:21,0,1,-
BRDA:22,0,0,-
BRDA:22,0,1,-
BRDA:23,0,0,-
BRDA:23,0,1,-
BRDA:25,0,0,-
BRDA:25,0,1,-
BRDA:27,0,0,-
BRDA:27,0,1,-
BRDA:41,0,0,-
BRDA:41,0,1,-
BRDA:42,0,0,-
BRDA:42,0,1,-
BRDA:46,0,0,-
BRDA:46,0,1,-
BRDA:48,0,0,-
BRDA:48,0,1,-
BRDA:62,0,0,-
BRDA:62,0,1,-
BRDA:63,0,0,-
BRDA:63,0,1,-
BRDA:80,0,0,-
BRDA:80,0,1,-
BRDA:84,0,0,-
BRDA:84,0,1,-
BRF:30
BRH:0
LF:55
LH:0
end_of_record
SF:/home/builder/project/test/state/hash_utils.hpp
FN:31,_ZN6evmone9keccak256ESt17basic_string_viewIhN4evmc11byte_traitsIhEEE
FNDA:42079923,_ZN6evmone9keccak256ESt17basic_string_viewIhN4evmc11byte_traitsIhEEE
FNF:1
FNH:1
DA:31,42079923
DA:32,42079923
DA:33,42079923
BRF:0
BRH:0
LF:3
LH:3
end_of_record
SF:/home/builder/project/test/state/host.cpp
FN:13,_ZNK6evmone5state4Host14account_existsERKN4evmc7addressE
FN:19,_ZNK6evmone5state4Host11get_storageERKN4evmc7addressERKNS2_7bytes32E
FN:25,_ZN6evmone5state4Host11set_storageERKN4evmc7addressERKNS2_7bytes32ES8_
FN:72,_ZNK6evmone5state4Host11get_balanceERKN4evmc7addressE
FN:110,_ZNK6evmone5state4Host13get_code_sizeERKN4evmc7addressE
FN:116,_ZNK6evmone5state4Host13get_code_hashERKN4evmc7addressE
FN:131,_ZNK6evmone5state4Host9copy_codeERKN4evmc7addressEmPhm
FN:141,_ZN6evmone5state4Host12selfdestructERKN4evmc7addressES5_
FN:180,_ZN6evmone5state22compute_create_addressERKN4evmc7addressEm
FN:216,_ZN6evmone5state23compute_create2_addressERKN4evmc7addressERKNS1_7bytes32ESt17basic_string_viewIhNS1_11byte_traitsIhEEE
FN:232,_ZN6evmone5state25compute_eofcreate_addressERKN4evmc7addressERKNS1_7bytes32E
FN:247,_ZN6evmone5state4Host15prepare_messageE12evmc_message
FN:294,_ZN6evmone5state4Host6createERK12evmc_message
FN:400,_ZN6evmone5state4Host15execute_messageERK12evmc_message
FN:446,_ZN6evmone5state4Host4callERK12evmc_message
FN:474,_ZNK6evmone5state4Host14get_tx_contextEv
FN:501,_ZNK6evmone5state4Host14get_block_hashEl
FN:507,_ZN6evmone5state4Host8emit_logERKN4evmc7addressEPKhmPKNS2_7bytes32Em
FN:512,_ZN6evmone5state4Host14access_accountERKN4evmc7addressE
FN:527,_ZN6evmone5state4Host14access_storageERKN4evmc7addressERKNS2_7bytes32E
FN:535,_ZNK6evmone5state4Host21get_transient_storageERKN4evmc7addressERKNS2_7bytes32E
FN:543,_ZN6evmone5state4Host21set_transient_storageERKN4evmc7addressERKNS2_7bytes32ES8_
FN:83,host.cpp:_ZN6evmone5state12_GLOBAL__N_17extcodeESt17basic_string_viewIhN4evmc11byte_traitsIhEEE
FN:90,host.cpp:_ZN6evmone5state12_GLOBAL__N_119is_create_collisionERKNS0_7AccountE
FNDA:104010,_ZNK6evmone5state4Host14account_existsERKN4evmc7addressE
FNDA:1014922,_ZNK6evmone5state4Host11get_storageERKN4evmc7addressERKNS2_7bytes32E
FNDA:4435632,_ZN6evmone5state4Host11set_storageERKN4evmc7addressERKNS2_7bytes32ES8_
FNDA:122175,_ZNK6evmone5state4Host11get_balanceERKN4evmc7addressE
FNDA:470404,_ZNK6evmone5state4Host13get_code_sizeERKN4evmc7addressE
FNDA:3331,_ZNK6evmone5state4Host13get_code_hashERKN4evmc7addressE
FNDA:2447473,_ZNK6evmone5state4Host9copy_codeERKN4evmc7addressEmPhm
FNDA:7273,_ZN6evmone5state4Host12selfdestructERKN4evmc7addressES5_
FNDA:60188,_ZN6evmone5state22compute_create_addressERKN4evmc7addressEm
FNDA:24774,_ZN6evmone5state23compute_create2_addressERKN4evmc7addressERKNS1_7bytes32ESt17basic_string_viewIhNS1_11byte_traitsIhEEE
FNDA:0,_ZN6evmone5state25compute_eofcreate_addressERKN4evmc7addressERKNS1_7bytes32E
FNDA:4304875,_ZN6evmone5state4Host15prepare_messageE12evmc_message
FNDA:84962,_ZN6evmone5state4Host6createERK12evmc_message
FNDA:4304779,_ZN6evmone5state4Host15execute_messageERK12evmc_message
FNDA:4304875,_ZN6evmone5state4Host4callERK12evmc_message
FNDA:168811,_ZNK6evmone5state4Host14get_tx_contextEv
FNDA:69647,_ZNK6evmone5state4Host14get_block_hashEl
FNDA:28883,_ZN6evmone5state4Host8emit_logERKN4evmc7addressEPKhmPKNS2_7bytes32Em
FNDA:4999027,_ZN6evmone5state4Host14access_accountERKN4evmc7addressE
FNDA:5415262,_ZN6evmone5state4Host14access_storageERKN4evmc7addressERKNS2_7bytes32E
FNDA:1890161,_ZNK6evmone5state4Host21get_transient_storageERKN4evmc7addressERKNS2_7bytes32E
FNDA:9079194,_ZN6evmone5state4Host21set_transient_storageERKN4evmc7addressERKNS2_7bytes32ES8_
FNDA:2917877,host.cpp:_ZN6evmone5state12_GLOBAL__N_17extcodeESt17basic_string_viewIhN4evmc11byte_traitsIhEEE
FNDA:80126,host.cpp:_ZN6evmone5state12_GLOBAL__N_119is_create_collisionERKNS0_7AccountE
FNF:24
FNH:23
DA:13,104010
DA:14,104010
DA:15,104010
DA:16,104010
DA:19,1014922
DA:20,1014922
DA:21,1014922
DA:25,4435632
DA:29,4435632
DA:30,4435632
DA:32,4435632
DA:33,4435632
DA:34,4435632
DA:35,4435632
DA:37,4435632
DA:38,4435632
DA:39,1281729
DA:40,1281729
DA:41,1192169
DA:42,89560
DA:43,42930
DA:44,46630
DA:45,46630
DA:46,1281729
DA:47,3153903
DA:48,792076
DA:49,792076
DA:50,48
DA:51,792028
DA:52,234
DA:53,792076
DA:54,2361827
DA:55,754243
DA:56,754243
DA:57,72
DA:58,754171
DA:59,754147
DA:60,24
DA:61,24
DA:62,754243
DA:65,4435632
DA:66,34886
DA:67,4435632
DA:68,4435632
DA:69,4435632
DA:72,122175
DA:73,122175
DA:74,122175
DA:75,122175
DA:83,2917877
DA:84,2917877
DA:85,2917877
DA:90,80126
DA:95,80126
DA:96,218
DA:97,79908
DA:98,162
DA:99,79746
DA:100,28
DA:104,79746
DA:105,79718
DA:106,79746
DA:110,470404
DA:111,470404
DA:112,470404
DA:113,470404
DA:116,3331
DA:117,3331
DA:118,3331
DA:119,650
DA:123,2681
DA:124,0
DA:126,2681
DA:127,2681
DA:131,2447473
DA:132,2447473
DA:133,2447473
DA:134,2447473
DA:135,2447473
DA:136,2447473
DA:137,2447473
DA:138,2447473
DA:141,7273
DA:142,7273
DA:143,19
DA:144,7273
DA:145,7273
DA:146,7273
DA:148,7273
DA:149,7273
DA:151,7273
DA:152,2268
DA:156,2268
DA:157,2268
DA:161,2268
DA:162,2268
DA:166,5005
DA:167,5005
DA:170,5005
DA:171,4142
DA:172,4142
DA:173,4142
DA:174,4142
DA:175,4142
DA:176,863
DA:177,5005
DA:180,60188
DA:181,60188
DA:182,60188
DA:183,60188
DA:184,60188
DA:186,60188
DA:187,60188
DA:188,60188
DA:189,60188
DA:191,60188
DA:192,54506
DA:193,54506
DA:194,54506
DA:195,5682
DA:196,5682
DA:199,5682
DA:200,5682
DA:201,5682
DA:202,5682
DA:203,5682
DA:205,60188
DA:206,60188
DA:208,60188
DA:209,60188
DA:210,60188
DA:211,60188
DA:212,60188
DA:216,24774
DA:217,24774
DA:218,24774
DA:219,24774
DA:220,24774
DA:221,24774
DA:222,24774
DA:223,24774
DA:224,24774
DA:225,24774
DA:226,24774
DA:227,24774
DA:228,24774
DA:229,24774
DA:232,0
DA:233,0
DA:234,0
DA:235,0
DA:236,0
DA:237,0
DA:238,0
DA:239,0
DA:240,0
DA:241,0
DA:242,0
DA:243,0
DA:244,0
DA:247,4304875
DA:248,4304875
DA:249,4304875
DA:250,183410
DA:251,183410
DA:254,183410
DA:255,96
DA:257,183314
DA:258,46375
DA:259,46375
DA:260,46375
DA:261,46375
DA:263,183314
DA:264,84962
DA:266,84962
DA:267,84962
DA:269,84962
DA:270,84962
DA:271,84962
DA:272,60188
DA:273,24774
DA:274,24774
DA:275,24774
DA:276,24774
DA:277,24774
DA:278,0
DA:279,0
DA:281,0
DA:282,0
DA:283,0
DA:286,84962
DA:287,84962
DA:288,183314
DA:290,4304779
DA:291,4304875
DA:294,84962
DA:295,84962
DA:297,84962
DA:298,84962
DA:299,84962
DA:300,4836
DA:301,80126
DA:302,408
DA:303,84554
DA:305,84554
DA:306,84554
DA:308,84554
DA:309,83282
DA:311,84554
DA:313,84554
DA:314,84554
DA:315,84554
DA:316,84554
DA:317,84554
DA:318,84554
DA:319,84554
DA:321,84554
DA:322,84554
DA:323,84554
DA:325,84554
DA:326,0
DA:333,0
DA:334,0
DA:335,0
DA:336,84554
DA:337,84554
DA:338,84554
DA:339,84554
DA:340,84554
DA:342,84554
DA:343,84554
DA:344,3840
DA:345,3840
DA:346,3840
DA:347,3840
DA:349,80714
DA:350,80714
DA:352,80714
DA:356,80714
DA:358,80714
DA:359,94
DA:362,80620
DA:363,80620
DA:364,80620
DA:365,300
DA:366,300
DA:367,0
DA:368,300
DA:369,300
DA:371,80320
DA:372,26047
DA:373,26047
DA:374,102
DA:375,102
DA:376,0
DA:379,0
DA:380,0
DA:381,0
DA:382,0
DA:383,0
DA:384,102
DA:385,84
DA:387,84
DA:388,84
DA:389,102
DA:391,25963
DA:392,25963
DA:393,25963
DA:394,25963
DA:396,80236
DA:397,80320
DA:400,4304779
DA:401,4304779
DA:402,84962
DA:404,4219817
DA:405,4036655
DA:406,4036655
DA:407,4036655
DA:408,5059
DA:409,4036655
DA:411,4219817
DA:412,4036655
DA:413,4036655
DA:414,3910540
DA:415,126115
DA:416,126115
DA:420,126115
DA:424,126115
DA:425,126115
DA:426,126115
DA:427,126115
DA:428,126115
DA:429,126115
DA:430,126115
DA:431,4036655
DA:434,4219817
DA:435,1638857
DA:438,2580960
DA:439,2580960
DA:440,114785
DA:442,2466175
DA:443,2580960
DA:446,4304875
DA:447,4304875
DA:448,4304875
DA:449,96
DA:451,4304779
DA:452,4304779
DA:454,4304779
DA:456,4304779
DA:457,2406362
DA:458,2406362
DA:459,2406362
DA:460,2406362
DA:463,2406362
DA:464,2406362
DA:467,2406362
DA:468,395170
DA:469,2406362
DA:470,4304779
DA:471,4304875
DA:474,168811
DA:477,168811
DA:478,168811
DA:479,168811
DA:480,168811
DA:482,168811
DA:483,168811
DA:484,168811
DA:485,168811
DA:486,168811
DA:487,168811
DA:488,168811
DA:489,168811
DA:490,168811
DA:491,168811
DA:492,168811
DA:493,168811
DA:494,168811
DA:495,168811
DA:496,168811
DA:497,168811
DA:498,168811
DA:501,69647
DA:502,69647
DA:503,69647
DA:507,28883
DA:508,28883
DA:509,28883
DA:512,4999027
DA:513,4999027
DA:514,11614
DA:516,4987413
DA:518,4987413
DA:519,4404030
DA:521,583383
DA:522,583383
DA:523,583383
DA:524,4987413
DA:527,5415262
DA:528,5415262
DA:529,5415262
DA:530,5415262
DA:531,5415262
DA:535,1890161
DA:536,1890161
DA:537,1890161
DA:538,1890161
DA:539,1890161
DA:543,9079194
DA:544,9079194
DA:545,9079194
DA:546,9079194
DA:547,9079194
BRDA:15,0,0,103940
BRDA:15,0,1,70
BRDA:15,1,2,10566
BRDA:15,1,3,93374
BRDA:15,2,4,91702
BRDA:15,2,5,1672
BRDA:38,0,0,2889313
BRDA:38,0,1,1546319
BRDA:38,1,2,1281729
BRDA:38,1,3,1607584
BRDA:40,0,0,1192169
BRDA:40,0,1,89560
BRDA:42,0,0,42930
BRDA:42,0,1,46630
BRDA:47,0,0,1546319
BRDA:47,0,1,1607584
BRDA:47,1,2,792076
BRDA:47,1,3,754243
BRDA:49,0,0,2532
BRDA:49,0,1,789544
BRDA:49,1,2,48
BRDA:49,1,3,2484
BRDA:51,0,0,789544
BRDA:51,0,1,2484
BRDA:51,1,2,234
BRDA:51,1,3,789310
BRDA:54,0,0,754243
BRDA:54,0,1,1607584
BRDA:54,1,2,754243
BRDA:54,1,3,0
BRDA:56,0,0,72
BRDA:56,0,1,754171
BRDA:58,0,0,754147
BRDA:58,0,1,24
BRDA:65,0,0,34886
BRDA:65,0,1,4400746
BRDA:74,0,0,122163
BRDA:74,0,1,12
BRDA:84,0,0,0
BRDA:84,0,1,2917877
BRDA:95,0,0,218
BRDA:95,0,1,79908
BRDA:97,0,0,162
BRDA:97,0,1,79746
BRDA:99,0,0,28
BRDA:99,0,1,79718
BRDA:118,0,0,4
BRDA:118,0,1,3327
BRDA:118,1,2,646
BRDA:118,1,3,2681
BRDA:123,0,0,0
BRDA:123,0,1,2681
BRDA:142,0,0,19
BRDA:142,0,1,7254
BRDA:151,0,0,6382
BRDA:151,0,1,891
BRDA:151,1,2,2268
BRDA:151,1,3,4114
BRDA:170,0,0,4142
BRDA:170,0,1,863
BRDA:191,0,0,54506
BRDA:191,0,1,5682
BRDA:193,0,0,13777
BRDA:193,0,1,40729
BRDA:248,0,0,136939
BRDA:248,0,1,4167936
BRDA:248,1,2,21655
BRDA:248,1,3,4146281
BRDA:248,2,4,24816
BRDA:248,2,5,4121465
BRDA:249,0,0,0
BRDA:249,0,1,4121465
BRDA:254,0,0,96
BRDA:254,0,1,183314
BRDA:257,0,0,46375
BRDA:257,0,1,136939
BRDA:263,0,0,60188
BRDA:263,0,1,123126
BRDA:263,1,2,24774
BRDA:263,1,3,98352
BRDA:263,2,4,0
BRDA:263,2,5,98352
BRDA:271,0,0,60188
BRDA:271,0,1,24774
BRDA:273,0,0,24774
BRDA:273,0,1,0
BRDA:299,0,0,4836
BRDA:299,0,1,80126
BRDA:301,0,0,408
BRDA:301,0,1,79718
BRDA:308,0,0,83282
BRDA:308,0,1,1272
BRDA:322,0,0,0
BRDA:322,0,1,84554
BRDA:325,0,0,0
BRDA:325,0,1,84554
BRDA:325,1,2,-
BRDA:325,1,3,-
BRDA:325,2,4,-
BRDA:325,2,5,-
BRDA:333,0,0,-
BRDA:333,0,1,-
BRDA:336,0,0,84554
BRDA:336,0,1,0
BRDA:343,0,0,3840
BRDA:343,0,1,80714
BRDA:358,0,0,79470
BRDA:358,0,1,1244
BRDA:358,1,2,94
BRDA:358,1,3,79376
BRDA:364,0,0,300
BRDA:364,0,1,80320
BRDA:366,0,0,0
BRDA:366,0,1,300
BRDA:371,0,0,26047
BRDA:371,0,1,54273
BRDA:373,0,0,102
BRDA:373,0,1,25945
BRDA:375,0,0,0
BRDA:375,0,1,102
BRDA:379,0,0,-
BRDA:379,0,1,-
BRDA:384,0,0,84
BRDA:384,0,1,18
BRDA:401,0,0,60188
BRDA:401,0,1,4244591
BRDA:401,1,2,24774
BRDA:401,1,3,4219817
BRDA:401,2,4,0
BRDA:401,2,5,4219817
BRDA:404,0,0,4036655
BRDA:404,0,1,183162
BRDA:407,0,0,5059
BRDA:407,0,1,4031596
BRDA:411,0,0,4036655
BRDA:411,0,1,183162
BRDA:413,0,0,3910540
BRDA:413,0,1,126115
BRDA:434,0,0,4214441
BRDA:434,0,1,5376
BRDA:434,1,2,1638857
BRDA:434,1,3,2580960
BRDA:434,2,4,1638857
BRDA:434,2,5,2575584
BRDA:439,0,0,114785
BRDA:439,0,1,2466175
BRDA:448,0,0,96
BRDA:448,0,1,4304779
BRDA:456,0,0,2406362
BRDA:456,0,1,1898417
BRDA:460,0,0,400714
BRDA:460,0,1,2005648
BRDA:460,1,2,395170
BRDA:460,1,3,5544
BRDA:467,0,0,395170
BRDA:467,0,1,2011192
BRDA:467,1,2,395170
BRDA:467,1,3,0
BRDA:513,0,0,11614
BRDA:513,0,1,4987413
BRDA:518,0,0,2291716
BRDA:518,0,1,2695697
BRDA:518,1,2,2112314
BRDA:518,1,3,583383
BRDA:538,0,0,1888547
BRDA:538,0,1,1614
BRF:166
BRH:145
LF:374
LH:344
end_of_record
SF:/home/builder/project/test/state/host.hpp
FN:61,_ZN6evmone5state4HostC2E13evmc_revisionRN4evmc2VMERNS0_5StateERKNS0_9BlockInfoERKNS0_11BlockHashesERKNS0_11TransactionE
FN:73,_ZN6evmone5state4Host9take_logsEv
FNDA:337919,_ZN6evmone5state4HostC2E13evmc_revisionRN4evmc2VMERNS0_5StateERKNS0_9BlockInfoERKNS0_11BlockHashesERKNS0_11TransactionE
FNDA:136939,_ZN6evmone5state4Host9take_logsEv
FNF:2
FNH:2
DA:61,337919
DA:62,337919
DA:63,337919
DA:64,0
DA:65,0
DA:66,0
DA:67,0
DA:68,0
DA:69,0
DA:70,0
DA:71,337919
DA:73,136939
BRDA:63,0,0,0
BRDA:63,0,1,337919
BRDA:65,0,0,-
BRDA:65,0,1,-
BRF:4
BRH:1
LF:12
LH:5
end_of_record
SF:/home/builder/project/test/state/mpt.cpp
FN:162,_ZNK6evmone5state7MPTNode6encodeB5cxx11Ev
FN:192,_ZN6evmone5state3MPTC2Ev
FN:193,_ZN6evmone5state3MPTD2Ev
FN:196,_ZN6evmone5state3MPT6insertESt17basic_string_viewIhN4evmc11byte_traitsIhEEEONSt7__cxx1112basic_stringIhS5_SaIhEEE
FN:207,_ZNK6evmone5state3MPT4hashEv
FN:163,mpt.cpp:_ZZNK6evmone5state7MPTNode6encodeB5cxx11EvENK3$_0clEONSt7__cxx1112basic_stringIhN4evmc11byte_traitsIhEESaIhEEE
FN:56,mpt.cpp:_ZNK6evmone5state12_GLOBAL__N_14Path5emptyEv
FN:61,mpt.cpp:_ZNK6evmone5state12_GLOBAL__N_14Path6encodeB5cxx11ENS1_4KindE
FN:44,mpt.cpp:_ZN6evmone5state12_GLOBAL__N_14PathC2ESt17basic_string_viewIhN4evmc11byte_traitsIhEEE
FN:107,mpt.cpp:_ZN6evmone5state7MPTNode6insertERKNS0_12_GLOBAL__N_14PathEONSt7__cxx1112basic_stringIhN4evmc11byte_traitsIhEESaIhEEE
FN:58,mpt.cpp:_ZNK6evmone5state12_GLOBAL__N_14Path3endEv
FN:37,mpt.cpp:_ZN6evmone5state12_GLOBAL__N_14PathC2EPKhS4_
FN:57,mpt.cpp:_ZNK6evmone5state12_GLOBAL__N_14Path5beginEv
FN:99,mpt.cpp:_ZN6evmone5state7MPTNodeC2ERKNS0_12_GLOBAL__N_14PathEONSt7__cxx1112basic_stringIhN4evmc11byte_traitsIhEESaIhEEE
FN:87,mpt.cpp:_ZN6evmone5state7MPTNodeC2ERKNS0_12_GLOBAL__N_14PathEmOS1_mS6_
FN:55,mpt.cpp:_ZN6evmone5state12_GLOBAL__N_14Path8capacityEv
FNDA:20572234,_ZNK6evmone5state7MPTNode6encodeB5cxx11Ev
FNDA:5565992,_ZN6evmone5state3MPTC2Ev
FNDA:5565992,_ZN6evmone5state3MPTD2Ev
FNDA:15155868,_ZN6evmone5state3MPT6insertESt17basic_string_viewIhN4evmc11byte_traitsIhEEEONSt7__cxx1112basic_stringIhS5_SaIhEEE
FNDA:5565992,_ZNK6evmone5state3MPT4hashEv
FNDA:18529853,mpt.cpp:_ZZNK6evmone5state7MPTNode6encodeB5cxx11EvENK3$_0clEONSt7__cxx1112basic_stringIhN4evmc11byte_traitsIhEESaIhEEE
FNDA:5416366,mpt.cpp:_ZNK6evmone5state12_GLOBAL__N_14Path5emptyEv
FNDA:20572234,mpt.cpp:_ZNK6evmone5state12_GLOBAL__N_14Path6encodeB5cxx11ENS1_4KindE
FNDA:15155868,mpt.cpp:_ZN6evmone5state12_GLOBAL__N_14PathC2ESt17basic_string_viewIhN4evmc11byte_traitsIhEEE
FNDA:23479483,mpt.cpp:_ZN6evmone5state7MPTNode6insertERKNS0_12_GLOBAL__N_14PathEONSt7__cxx1112basic_stringIhN4evmc11byte_traitsIhEESaIhEEE
FNDA:93967349,mpt.cpp:_ZNK6evmone5state12_GLOBAL__N_14Path3endEv
FNDA:34312215,mpt.cpp:_ZN6evmone5state12_GLOBAL__N_14PathC2EPKhS4_
FNDA:52375332,mpt.cpp:_ZNK6evmone5state12_GLOBAL__N_14Path5beginEv
FNDA:15155868,mpt.cpp:_ZN6evmone5state7MPTNodeC2ERKNS0_12_GLOBAL__N_14PathEONSt7__cxx1112basic_stringIhN4evmc11byte_traitsIhEESaIhEEE
FNDA:5416366,mpt.cpp:_ZN6evmone5state7MPTNodeC2ERKNS0_12_GLOBAL__N_14PathEmOS1_mS6_
FNDA:0,mpt.cpp:_ZN6evmone5state12_GLOBAL__N_14Path8capacityEv
FNF:16
FNH:15
DA:37,34312215
DA:38,34312215
DA:39,34312215
DA:40,34312215
DA:41,34312215
DA:44,15155868
DA:45,15155868
DA:46,15155868
DA:47,15155868
DA:48,15155868
DA:49,479902442
DA:50,479902442
DA:51,479902442
DA:52,479902442
DA:53,15155868
DA:55,0
DA:56,5416366
DA:57,52375332
DA:58,93967349
DA:61,20572234
DA:62,20572234
DA:63,5207912
DA:65,15364322
DA:66,15364322
DA:67,15364322
DA:69,15364322
DA:70,477577035
DA:71,462212713
DA:72,15364322
DA:73,20572234
DA:87,5416366
DA:88,5416366
DA:89,5416366
DA:90,5416366
DA:91,5416366
DA:93,5416366
DA:94,5416366
DA:95,5416366
DA:99,15155868
DA:107,23479483
DA:131,23479483
DA:138,23479483
DA:139,23479483
DA:141,23479483
DA:142,18063117
DA:143,18063117
DA:144,10574450
DA:145,7488667
DA:146,7488667
DA:147,18063117
DA:148,5416366
DA:149,5416366
DA:150,5416366
DA:151,5416366
DA:152,5416366
DA:153,5416366
DA:154,5416366
DA:155,5416366
DA:156,5416366
DA:157,5416366
DA:158,23479483
DA:162,20572234
DA:163,20572234
DA:164,18529853
DA:165,18529853
DA:167,20572234
DA:168,20572234
DA:169,20572234
DA:170,15155868
DA:171,15155868
DA:172,15155868
DA:173,15155868
DA:174,0
DA:175,5416366
DA:176,5416366
DA:177,5416366
DA:179,5416366
DA:180,86661856
DA:181,5416366
DA:183,5416366
DA:184,208454
DA:185,5416366
DA:186,0
DA:187,20572234
DA:188,20572234
DA:189,20572234
DA:192,5565992
DA:193,5565992
DA:196,15155868
DA:197,15155868
DA:198,15155868
DA:200,15155868
DA:201,2250835
DA:202,12905033
DA:203,12905033
DA:204,15155868
DA:207,5565992
DA:208,5565992
DA:209,3315157
DA:210,2250835
DA:211,5565992
BRDA:48,0,0,479902442
BRDA:48,0,1,15155868
BRDA:62,0,0,5416366
BRDA:62,0,1,15155868
BRDA:62,1,2,5207912
BRDA:62,1,3,208454
BRDA:65,0,0,15155868
BRDA:65,0,1,208454
BRDA:67,0,0,6209796
BRDA:67,0,1,9154526
BRDA:70,0,0,462212713
BRDA:70,0,1,15364322
BRDA:141,0,0,18112534
BRDA:141,0,1,5366949
BRDA:141,1,2,18063117
BRDA:141,1,3,49417
BRDA:143,0,0,10574450
BRDA:143,0,1,7488667
BRDA:164,0,0,3210
BRDA:164,0,1,18526643
BRDA:168,0,0,20572234
BRDA:168,0,1,0
BRDA:170,0,0,15155868
BRDA:170,0,1,5416366
BRDA:175,0,0,5416366
BRDA:175,0,1,15155868
BRDA:179,0,0,86661856
BRDA:179,0,1,5416366
BRDA:180,0,0,18321399
BRDA:180,0,1,68340457
BRDA:183,0,0,208454
BRDA:183,0,1,5207912
BRDA:200,0,0,2250835
BRDA:200,0,1,12905033
BRDA:208,0,0,3315157
BRDA:208,0,1,2250835
BRF:36
BRH:35
LF:103
LH:100
end_of_record
SF:/home/builder/project/test/state/mpt_hash.cpp
FN:41,_ZN6evmone5state8mpt_hashINS0_11TransactionEEEN4evmc7bytes32ESt4spanIKT_Lm18446744073709551615EE
FN:41,_ZN6evmone5state8mpt_hashINS0_18TransactionReceiptEEEN4evmc7bytes32ESt4spanIKT_Lm18446744073709551615EE
FN:41,_ZN6evmone5state8mpt_hashINS0_10WithdrawalEEEN4evmc7bytes32ESt4spanIKT_Lm18446744073709551615EE
FN:29,_ZN6evmone5state8mpt_hashERKNS_4test9TestStateE
FN:17,mpt_hash.cpp:_ZN6evmone5state12_GLOBAL__N_18mpt_hashERKSt3mapIN4evmc7bytes32ES4_St4lessIS4_ESaISt4pairIKS4_S4_EEE
FNDA:76274,_ZN6evmone5state8mpt_hashINS0_11TransactionEEEN4evmc7bytes32ESt4spanIKT_Lm18446744073709551615EE
FNDA:76274,_ZN6evmone5state8mpt_hashINS0_18TransactionReceiptEEEN4evmc7bytes32ESt4spanIKT_Lm18446744073709551615EE
FNDA:64430,_ZN6evmone5state8mpt_hashINS0_10WithdrawalEEEN4evmc7bytes32ESt4spanIKT_Lm18446744073709551615EE
FNDA:264844,_ZN6evmone5state8mpt_hashERKNS_4test9TestStateE
FNDA:5084170,mpt_hash.cpp:_ZN6evmone5state12_GLOBAL__N_18mpt_hashERKSt3mapIN4evmc7bytes32ES4_St4lessIS4_ESaISt4pairIKS4_S4_EEE
FNF:3
FNH:3
DA:17,5084170
DA:18,5084170
DA:19,5084170
DA:20,9907576
DA:21,9907576
DA:22,9907576
DA:23,9907576
DA:24,5084170
DA:25,5084170
DA:29,264844
DA:30,264844
DA:31,264844
DA:32,5084170
DA:33,5084170
DA:34,5084170
DA:35,5084170
DA:36,264844
DA:37,264844
DA:41,216978
DA:42,216978
DA:43,381100
DA:44,164122
DA:46,216978
DA:47,216978
BRDA:19,0,0,9907576
BRDA:19,0,1,5084170
BRDA:21,0,0,9907576
BRDA:21,0,1,0
BRDA:31,0,0,5084170
BRDA:31,0,1,264844
BRDA:43,0,0,80048
BRDA:43,0,1,76274
BRDA:43,1,2,80048
BRDA:43,1,3,76274
BRDA:43,2,4,4026
BRDA:43,2,5,64430
BRF:8
BRH:7
LF:24
LH:24
end_of_record
SF:/home/builder/project/test/state/mpt_hash.hpp
FN:33,_ZN6evmone5state8mpt_hashISt5arrayINS0_11TransactionELm1EEEEN4evmc7bytes32ERKT_Qsr3stdE16is_convertible_vIS7_St4spanIKNS7_10value_typeELm18446744073709551615EEE
FN:33,_ZN6evmone5state8mpt_hashISt5arrayINS0_18TransactionReceiptELm2EEEEN4evmc7bytes32ERKT_Qsr3stdE16is_convertible_vIS7_St4spanIKNS7_10value_typeELm18446744073709551615EEE
FN:33,_ZN6evmone5state8mpt_hashISt5arrayINS0_18TransactionReceiptELm3EEEEN4evmc7bytes32ERKT_Qsr3stdE16is_convertible_vIS7_St4spanIKNS7_10value_typeELm18446744073709551615EEE
FN:33,_ZN6evmone5state8mpt_hashISt6vectorINS0_10WithdrawalESaIS3_EEEEN4evmc7bytes32ERKT_Qsr3stdE16is_convertible_vIS8_St4spanIKNS8_10value_typeELm18446744073709551615EEE
FN:33,_ZN6evmone5state8mpt_hashISt6vectorINS0_11TransactionESaIS3_EEEEN4evmc7bytes32ERKT_Qsr3stdE16is_convertible_vIS8_St4spanIKNS8_10value_typeELm18446744073709551615EEE
FN:33,_ZN6evmone5state8mpt_hashISt6vectorINS0_18TransactionReceiptESaIS3_EEEEN4evmc7bytes32ERKT_Qsr3stdE16is_convertible_vIS8_St4spanIKNS8_10value_typeELm18446744073709551615EEE
FNDA:0,_ZN6evmone5state8mpt_hashISt5arrayINS0_11TransactionELm1EEEEN4evmc7bytes32ERKT_Qsr3stdE16is_convertible_vIS7_St4spanIKNS7_10value_typeELm18446744073709551615EEE
FNDA:0,_ZN6evmone5state8mpt_hashISt5arrayINS0_18TransactionReceiptELm2EEEEN4evmc7bytes32ERKT_Qsr3stdE16is_convertible_vIS7_St4spanIKNS7_10value_typeELm18446744073709551615EEE
FNDA:0,_ZN6evmone5state8mpt_hashISt5arrayINS0_18TransactionReceiptELm3EEEEN4evmc7bytes32ERKT_Qsr3stdE16is_convertible_vIS7_St4spanIKNS7_10value_typeELm18446744073709551615EEE
FNDA:64430,_ZN6evmone5state8mpt_hashISt6vectorINS0_10WithdrawalESaIS3_EEEEN4evmc7bytes32ERKT_Qsr3stdE16is_convertible_vIS8_St4spanIKNS8_10value_typeELm18446744073709551615EEE
FNDA:76274,_ZN6evmone5state8mpt_hashISt6vectorINS0_11TransactionESaIS3_EEEEN4evmc7bytes32ERKT_Qsr3stdE16is_convertible_vIS8_St4spanIKNS8_10value_typeELm18446744073709551615EEE
FNDA:76274,_ZN6evmone5state8mpt_hashISt6vectorINS0_18TransactionReceiptESaIS3_EEEEN4evmc7bytes32ERKT_Qsr3stdE16is_convertible_vIS8_St4spanIKNS8_10value_typeELm18446744073709551615EEE
FNF:1
FNH:1
DA:33,216978
DA:34,216978
DA:35,216978
BRF:0
BRH:0
LF:3
LH:3
end_of_record
SF:/home/builder/project/test/state/precompiles.cpp
FN:61,_ZN6evmone5state17ecrecover_analyzeESt17basic_string_viewIhN4evmc11byte_traitsIhEEE13evmc_revision
FN:66,_ZN6evmone5state14sha256_analyzeESt17basic_string_viewIhN4evmc11byte_traitsIhEEE13evmc_revision
FN:71,_ZN6evmone5state17ripemd160_analyzeESt17basic_string_viewIhN4evmc11byte_traitsIhEEE13evmc_revision
FN:76,_ZN6evmone5state16identity_analyzeESt17basic_string_viewIhN4evmc11byte_traitsIhEEE13evmc_revision
FN:81,_ZN6evmone5state13ecadd_analyzeESt17basic_string_viewIhN4evmc11byte_traitsIhEEE13evmc_revision
FN:86,_ZN6evmone5state13ecmul_analyzeESt17basic_string_viewIhN4evmc11byte_traitsIhEEE13evmc_revision
FN:91,_ZN6evmone5state17ecpairing_analyzeESt17basic_string_viewIhN4evmc11byte_traitsIhEEE13evmc_revision
FN:99,_ZN6evmone5state16blake2bf_analyzeESt17basic_string_viewIhN4evmc11byte_traitsIhEEE13evmc_revision
FN:105,_ZN6evmone5state14expmod_analyzeESt17basic_string_viewIhN4evmc11byte_traitsIhEEE13evmc_revision
FN:200,_ZN6evmone5state24point_evaluation_analyzeESt17basic_string_viewIhN4evmc11byte_traitsIhEEE13evmc_revision
FN:206,_ZN6evmone5state19bls12_g1add_analyzeESt17basic_string_viewIhN4evmc11byte_traitsIhEEE13evmc_revision
FN:212,_ZN6evmone5state19bls12_g1msm_analyzeESt17basic_string_viewIhN4evmc11byte_traitsIhEEE13evmc_revision
FN:234,_ZN6evmone5state19bls12_g2add_analyzeESt17basic_string_viewIhN4evmc11byte_traitsIhEEE13evmc_revision
FN:240,_ZN6evmone5state19bls12_g2msm_analyzeESt17basic_string_viewIhN4evmc11byte_traitsIhEEE13evmc_revision
FN:262,_ZN6evmone5state27bls12_pairing_check_analyzeESt17basic_string_viewIhN4evmc11byte_traitsIhEEE13evmc_revision
FN:278,_ZN6evmone5state26bls12_map_fp_to_g1_analyzeESt17basic_string_viewIhN4evmc11byte_traitsIhEEE13evmc_revision
FN:284,_ZN6evmone5state27bls12_map_fp2_to_g2_analyzeESt17basic_string_viewIhN4evmc11byte_traitsIhEEE13evmc_revision
FN:296,_ZN6evmone5state17ecrecover_executeEPKhmPhm
FN:327,_ZN6evmone5state14sha256_executeEPKhmPhm
FN:336,_ZN6evmone5state17ripemd160_executeEPKhmPhm
FN:402,_ZN6evmone5state14expmod_executeEPKhmPhm
FN:436,_ZN6evmone5state13ecadd_executeEPKhmPhm
FN:463,_ZN6evmone5state13ecmul_executeEPKhmPhm
FN:490,_ZN6evmone5state17ecpairing_executeEPKhmPhm
FN:526,_ZN6evmone5state16identity_executeEPKhmPhm
FN:534,_ZN6evmone5state16blake2bf_executeEPKhmPhm
FN:566,_ZN6evmone5state24point_evaluation_executeEPKhmPhm
FN:589,_ZN6evmone5state19bls12_g1add_executeEPKhmPhm
FN:603,_ZN6evmone5state19bls12_g1msm_executeEPKhmPhm
FN:617,_ZN6evmone5state19bls12_g2add_executeEPKhmPhm
FN:631,_ZN6evmone5state19bls12_g2msm_executeEPKhmPhm
FN:645,_ZN6evmone5state27bls12_pairing_check_executeEPKhmPhm
FN:659,_ZN6evmone5state26bls12_map_fp_to_g1_executeEPKhmPhm
FN:673,_ZN6evmone5state27bls12_map_fp2_to_g2_executeEPKhmPhm
FN:758,_ZN6evmone5state13is_precompileE13evmc_revisionRKN4evmc7addressE
FN:774,_ZN6evmone5state15call_precompileE13evmc_revisionRK12evmc_message
FN:55,precompiles.cpp:_ZN6evmone5state12_GLOBAL__N_119cost_per_input_wordILi60ELi12EEElm
FN:49,precompiles.cpp:_ZN6evmone5state12_GLOBAL__N_19num_wordsEm
FN:55,precompiles.cpp:_ZN6evmone5state12_GLOBAL__N_119cost_per_input_wordILi600ELi120EEElm
FN:55,precompiles.cpp:_ZN6evmone5state12_GLOBAL__N_119cost_per_input_wordILi15ELi3EEElm
FN:155,precompiles.cpp:_ZZN6evmone5state14expmod_analyzeESt17basic_string_viewIhN4evmc11byte_traitsIhEEE13evmc_revisionENK3$_1clEv
FN:128,precompiles.cpp:_ZZN6evmone5state14expmod_analyzeESt17basic_string_viewIhN4evmc11byte_traitsIhEEE13evmc_revisionENK3$_2clEj
FN:135,precompiles.cpp:_ZZN6evmone5state14expmod_analyzeESt17basic_string_viewIhN4evmc11byte_traitsIhEEE13evmc_revisionENK3$_3clEj
FN:139,precompiles.cpp:_ZZN6evmone5state14expmod_analyzeESt17basic_string_viewIhN4evmc11byte_traitsIhEEE13evmc_revisionENK3$_4clEj
FN:108,precompiles.cpp:_ZZN6evmone5state14expmod_analyzeESt17basic_string_viewIhN4evmc11byte_traitsIhEEE13evmc_revisionENK3$_0clEmj
FN:347,precompiles.cpp:_ZN6evmone5stateL18expmod_parse_inputEPKhmPhm
FN:376,precompiles.cpp:_ZZN6evmone5stateL18expmod_parse_inputEPKhmPhmENK3$_0clEh
FN:750,precompiles.cpp:_ZN6evmone5state12_GLOBAL__N_115to_lookup_indexERKN4evmc7addressE
FN:290,precompiles.cpp:_ZN6evmone5stateL18p256verify_analyzeESt17basic_string_viewIhN4evmc11byte_traitsIhEEE13evmc_revision
FN:687,precompiles.cpp:_ZN6evmone5stateL18p256verify_executeEPKhmPhm
FN:804,precompiles.cpp:_ZZN6evmone5state15call_precompileE13evmc_revisionRK12evmc_messageENK3$_1clEPK11evmc_result
FNDA:402202,_ZN6evmone5state17ecrecover_analyzeESt17basic_string_viewIhN4evmc11byte_traitsIhEEE13evmc_revision
FNDA:20455,_ZN6evmone5state14sha256_analyzeESt17basic_string_viewIhN4evmc11byte_traitsIhEEE13evmc_revision
FNDA:394736,_ZN6evmone5state17ripemd160_analyzeESt17basic_string_viewIhN4evmc11byte_traitsIhEEE13evmc_revision
FNDA:792124,_ZN6evmone5state16identity_analyzeESt17basic_string_viewIhN4evmc11byte_traitsIhEEE13evmc_revision
FNDA:2938,_ZN6evmone5state13ecadd_analyzeESt17basic_string_viewIhN4evmc11byte_traitsIhEEE13evmc_revision
FNDA:6452,_ZN6evmone5state13ecmul_analyzeESt17basic_string_viewIhN4evmc11byte_traitsIhEEE13evmc_revision
FNDA:2098,_ZN6evmone5state17ecpairing_analyzeESt17basic_string_viewIhN4evmc11byte_traitsIhEEE13evmc_revision
FNDA:2128,_ZN6evmone5state16blake2bf_analyzeESt17basic_string_viewIhN4evmc11byte_traitsIhEEE13evmc_revision
FNDA:4228,_ZN6evmone5state14expmod_analyzeESt17basic_string_viewIhN4evmc11byte_traitsIhEEE13evmc_revision
FNDA:1314,_ZN6evmone5state24point_evaluation_analyzeESt17basic_string_viewIhN4evmc11byte_traitsIhEEE13evmc_revision
FNDA:532,_ZN6evmone5state19bls12_g1add_analyzeESt17basic_string_viewIhN4evmc11byte_traitsIhEEE13evmc_revision
FNDA:3424,_ZN6evmone5state19bls12_g1msm_analyzeESt17basic_string_viewIhN4evmc11byte_traitsIhEEE13evmc_revision
FNDA:556,_ZN6evmone5state19bls12_g2add_analyzeESt17basic_string_viewIhN4evmc11byte_traitsIhEEE13evmc_revision
FNDA:3448,_ZN6evmone5state19bls12_g2msm_analyzeESt17basic_string_viewIhN4evmc11byte_traitsIhEEE13evmc_revision
FNDA:844,_ZN6evmone5state27bls12_pairing_check_analyzeESt17basic_string_viewIhN4evmc11byte_traitsIhEEE13evmc_revision
FNDA:328,_ZN6evmone5state26bls12_map_fp_to_g1_analyzeESt17basic_string_viewIhN4evmc11byte_traitsIhEEE13evmc_revision
FNDA:316,_ZN6evmone5state27bls12_map_fp2_to_g2_analyzeESt17basic_string_viewIhN4evmc11byte_traitsIhEEE13evmc_revision
FNDA:2048,_ZN6evmone5state17ecrecover_executeEPKhmPhm
FNDA:20427,_ZN6evmone5state14sha256_executeEPKhmPhm
FNDA:568,_ZN6evmone5state17ripemd160_executeEPKhmPhm
FNDA:3986,_ZN6evmone5state14expmod_executeEPKhmPhm
FNDA:2928,_ZN6evmone5state13ecadd_executeEPKhmPhm
FNDA:6442,_ZN6evmone5state13ecmul_executeEPKhmPhm
FNDA:1740,_ZN6evmone5state17ecpairing_executeEPKhmPhm
FNDA:4646,_ZN6evmone5state16identity_executeEPKhmPhm
FNDA:1168,_ZN6evmone5state16blake2bf_executeEPKhmPhm
FNDA:1220,_ZN6evmone5state24point_evaluation_executeEPKhmPhm
FNDA:520,_ZN6evmone5state19bls12_g1add_executeEPKhmPhm
FNDA:1584,_ZN6evmone5state19bls12_g1msm_executeEPKhmPhm
FNDA:544,_ZN6evmone5state19bls12_g2add_executeEPKhmPhm
FNDA:1608,_ZN6evmone5state19bls12_g2msm_executeEPKhmPhm
FNDA:412,_ZN6evmone5state27bls12_pairing_check_executeEPKhmPhm
FNDA:316,_ZN6evmone5state26bls12_map_fp_to_g1_executeEPKhmPhm
FNDA:304,_ZN6evmone5state27bls12_map_fp2_to_g2_executeEPKhmPhm
FNDA:7349122,_ZN6evmone5state13is_precompileE13evmc_revisionRKN4evmc7addressE
FNDA:1638857,_ZN6evmone5state15call_precompileE13evmc_revisionRK12evmc_message
FNDA:20455,precompiles.cpp:_ZN6evmone5state12_GLOBAL__N_119cost_per_input_wordILi60ELi12EEElm
FNDA:1207315,precompiles.cpp:_ZN6evmone5state12_GLOBAL__N_19num_wordsEm
FNDA:394736,precompiles.cpp:_ZN6evmone5state12_GLOBAL__N_119cost_per_input_wordILi600ELi120EEElm
FNDA:792124,precompiles.cpp:_ZN6evmone5state12_GLOBAL__N_119cost_per_input_wordILi15ELi3EEElm
FNDA:4228,precompiles.cpp:_ZZN6evmone5state14expmod_analyzeESt17basic_string_viewIhN4evmc11byte_traitsIhEEE13evmc_revisionENK3$_1clEv
FNDA:528,precompiles.cpp:_ZZN6evmone5state14expmod_analyzeESt17basic_string_viewIhN4evmc11byte_traitsIhEEE13evmc_revisionENK3$_2clEj
FNDA:3374,precompiles.cpp:_ZZN6evmone5state14expmod_analyzeESt17basic_string_viewIhN4evmc11byte_traitsIhEEE13evmc_revisionENK3$_3clEj
FNDA:90,precompiles.cpp:_ZZN6evmone5state14expmod_analyzeESt17basic_string_viewIhN4evmc11byte_traitsIhEEE13evmc_revisionENK3$_4clEj
FNDA:3992,precompiles.cpp:_ZZN6evmone5state14expmod_analyzeESt17basic_string_viewIhN4evmc11byte_traitsIhEEE13evmc_revisionENK3$_0clEmj
FNDA:3986,precompiles.cpp:_ZN6evmone5stateL18expmod_parse_inputEPKhmPhm
FNDA:34192,precompiles.cpp:_ZZN6evmone5stateL18expmod_parse_inputEPKhmPhmENK3$_0clEh
FNDA:5507040,precompiles.cpp:_ZN6evmone5state12_GLOBAL__N_115to_lookup_indexERKN4evmc7addressE
FNDA:734,precompiles.cpp:_ZN6evmone5stateL18p256verify_analyzeESt17basic_string_viewIhN4evmc11byte_traitsIhEEE13evmc_revision
FNDA:724,precompiles.cpp:_ZN6evmone5stateL18p256verify_executeEPKhmPhm
FNDA:51185,precompiles.cpp:_ZZN6evmone5state15call_precompileE13evmc_revisionRK12evmc_messageENK3$_1clEPK11evmc_result
FNF:49
FNH:49
DA:49,1207315
DA:50,1207315
DA:51,1207315
DA:55,1207315
DA:56,1207315
DA:57,1207315
DA:61,402202
DA:62,402202
DA:63,402202
DA:66,20455
DA:67,20455
DA:68,20455
DA:71,394736
DA:72,394736
DA:73,394736
DA:76,792124
DA:77,792124
DA:78,792124
DA:81,2938
DA:82,2938
DA:83,2938
DA:86,6452
DA:87,6452
DA:88,6452
DA:91,2098
DA:92,2098
DA:93,2098
DA:94,2098
DA:95,2098
DA:96,2098
DA:99,2128
DA:101,2128
DA:102,2128
DA:105,4228
DA:106,4228
DA:108,4228
DA:109,3992
DA:110,3992
DA:111,3992
DA:112,3434
DA:113,3992
DA:115,3992
DA:116,3992
DA:117,3992
DA:118,2523
DA:119,2523
DA:120,3992
DA:122,3992
DA:123,3992
DA:124,3992
DA:125,3992
DA:126,3992
DA:128,4228
DA:130,528
DA:131,528
DA:132,528
DA:133,528
DA:134,528
DA:135,4228
DA:136,3374
DA:137,3374
DA:138,3374
DA:139,4228
DA:140,90
DA:141,90
DA:142,90
DA:143,0
DA:144,0
DA:146,0
DA:147,0
DA:149,4228
DA:150,4228
DA:151,4228
DA:152,4228
DA:153,4228
DA:154,4228
DA:155,4228
DA:156,4228
DA:157,594
DA:158,3634
DA:159,3538
DA:160,96
DA:161,96
DA:162,4228
DA:164,4228
DA:165,4228
DA:167,4228
DA:169,4228
DA:170,4228
DA:171,4228
DA:175,4228
DA:176,4228
DA:177,4228
DA:178,158
DA:180,4070
DA:181,78
DA:183,78
DA:184,32
DA:185,46
DA:186,78
DA:188,3992
DA:189,3992
DA:190,3992
DA:192,3992
DA:193,3992
DA:194,3992
DA:195,3992
DA:196,3992
DA:197,4070
DA:200,1314
DA:201,1314
DA:202,1314
DA:203,1314
DA:206,532
DA:207,532
DA:208,532
DA:209,532
DA:212,3424
DA:213,3424
DA:214,3424
DA:215,3424
DA:216,3424
DA:217,3424
DA:218,3424
DA:219,3424
DA:220,3424
DA:221,3424
DA:223,3424
DA:224,1316
DA:226,2108
DA:227,2108
DA:228,2108
DA:229,2108
DA:230,2108
DA:231,3424
DA:234,556
DA:235,556
DA:236,556
DA:237,556
DA:240,3448
DA:241,3448
DA:242,3448
DA:243,3448
DA:244,3448
DA:245,3448
DA:246,3448
DA:247,3448
DA:248,3448
DA:249,3448
DA:251,3448
DA:252,1316
DA:254,2132
DA:255,2132
DA:256,2132
DA:257,2132
DA:258,2132
DA:259,3448
DA:262,844
DA:263,844
DA:265,844
DA:266,344
DA:268,500
DA:270,500
DA:271,500
DA:272,500
DA:273,500
DA:274,500
DA:275,844
DA:278,328
DA:279,328
DA:280,328
DA:281,328
DA:284,316
DA:285,316
DA:286,316
DA:287,316
DA:290,734
DA:291,734
DA:292,734
DA:296,2048
DA:297,2048
DA:299,2048
DA:300,2048
DA:301,1718
DA:303,2048
DA:304,2048
DA:306,2048
DA:307,2048
DA:308,1096
DA:309,952
DA:311,952
DA:312,952
DA:314,952
DA:315,952
DA:316,676
DA:317,676
DA:318,676
DA:319,676
DA:320,676
DA:321,276
DA:322,276
DA:323,952
DA:327,20427
DA:328,20427
DA:329,20427
DA:330,20427
DA:331,20427
DA:332,20427
DA:336,568
DA:337,568
DA:338,568
DA:339,568
DA:340,568
DA:341,568
DA:342,568
DA:347,3986
DA:348,3986
DA:349,3986
DA:350,3986
DA:353,3986
DA:356,3986
DA:357,524
DA:358,524
DA:359,524
DA:360,524
DA:362,3462
DA:363,3462
DA:364,3462
DA:366,3462
DA:367,3462
DA:368,3462
DA:369,3462
DA:370,3462
DA:376,34192
DA:377,552
DA:379,552
DA:380,552
DA:381,552
DA:383,2910
DA:384,2910
DA:385,100
DA:389,100
DA:390,100
DA:391,100
DA:393,2910
DA:394,2910
DA:395,2910
DA:397,2910
DA:398,3462
DA:402,3986
DA:403,3986
DA:404,3986
DA:405,1076
DA:407,2910
DA:408,2909
DA:409,2909
DA:410,2909
DA:411,2909
DA:416,1
DA:417,1
DA:418,1
DA:419,2910
DA:436,2928
DA:437,2928
DA:439,2928
DA:440,2928
DA:441,2632
DA:443,2928
DA:445,2928
DA:447,2928
DA:448,2928
DA:450,2928
DA:451,2596
DA:452,2596
DA:453,2596
DA:454,2596
DA:455,2596
DA:456,2596
DA:457,332
DA:458,332
DA:459,2928
DA:463,6442
DA:464,6442
DA:466,6442
DA:467,6442
DA:468,6146
DA:470,6442
DA:472,6442
DA:474,6442
DA:475,6442
DA:477,6442
DA:478,4604
DA:479,4604
DA:480,4604
DA:481,4604
DA:482,4604
DA:483,4604
DA:484,1838
DA:485,1838
DA:486,6442
DA:490,1740
DA:491,1740
DA:492,1740
DA:493,1740
DA:495,1740
DA:496,142
DA:498,1598
DA:499,1598
DA:500,4442
DA:501,2844
DA:502,2844
DA:503,2844
DA:504,2844
DA:505,2844
DA:506,2844
DA:507,2844
DA:508,2844
DA:509,2844
DA:510,2844
DA:511,2844
DA:512,2844
DA:513,2844
DA:515,1598
DA:516,1598
DA:517,798
DA:519,800
DA:520,800
DA:521,800
DA:522,1598
DA:526,4646
DA:527,4646
DA:528,4646
DA:529,4646
DA:530,4646
DA:534,1168
DA:535,1168
DA:536,1168
DA:537,1168
DA:538,1168
DA:540,1168
DA:541,1168
DA:543,1168
DA:544,1168
DA:545,1168
DA:547,1168
DA:548,1168
DA:549,1168
DA:551,1168
DA:552,1168
DA:553,1168
DA:555,1168
DA:556,1168
DA:557,144
DA:559,1024
DA:560,1024
DA:561,1024
DA:562,1168
DA:566,1220
DA:567,1220
DA:568,1220
DA:569,314
DA:571,906
DA:572,906
DA:573,906
DA:574,906
DA:575,906
DA:577,906
DA:578,486
DA:582,420
DA:583,420
DA:584,420
DA:585,906
DA:589,520
DA:590,520
DA:591,196
DA:593,520
DA:595,324
DA:596,144
DA:598,180
DA:599,324
DA:603,1584
DA:604,1584
DA:605,0
DA:607,1584
DA:609,1584
DA:610,220
DA:612,1364
DA:613,1584
DA:617,544
DA:618,544
DA:619,196
DA:621,544
DA:623,348
DA:624,176
DA:626,172
DA:627,348
DA:631,1608
DA:632,1608
DA:633,0
DA:635,1608
DA:637,1608
DA:638,240
DA:640,1368
DA:641,1608
DA:645,412
DA:646,412
DA:647,0
DA:649,412
DA:651,412
DA:652,204
DA:654,208
DA:655,412
DA:659,316
DA:660,316
DA:661,200
DA:663,316
DA:665,116
DA:666,36
DA:668,80
DA:669,116
DA:673,304
DA:674,304
DA:675,200
DA:677,304
DA:679,104
DA:680,56
DA:682,48
DA:683,104
DA:687,724
DA:688,724
DA:690,724
DA:691,14
DA:693,710
DA:694,710
DA:695,710
DA:696,710
DA:697,710
DA:698,710
DA:700,710
DA:701,258
DA:704,452
DA:705,452
DA:706,452
DA:707,710
DA:750,5507040
DA:751,5507040
DA:752,5507040
DA:753,5507040
DA:754,5507040
DA:758,7349122
DA:759,7349122
DA:760,7349122
DA:761,7349122
DA:762,7349122
DA:763,7349122
DA:764,7349122
DA:765,7349122
DA:766,7349122
DA:768,7349122
DA:769,3480939
DA:770,3868183
DA:771,7349122
DA:774,1638857
DA:775,1638857
DA:776,1638857
DA:777,1638857
DA:778,1638857
DA:779,1638857
DA:780,1638857
DA:781,1638857
DA:782,1638857
DA:783,1638857
DA:784,1638857
DA:785,1638857
DA:787,1638857
DA:789,1638857
DA:791,1638857
DA:792,1638857
DA:793,1638857
DA:794,1638857
DA:795,1587672
DA:799,51185
DA:800,51185
DA:801,51185
DA:802,51185
DA:803,51185
DA:804,51185
DA:805,51185
DA:806,1638857
BRDA:82,0,0,2938
BRDA:82,0,1,0
BRDA:87,0,0,6452
BRDA:87,0,1,0
BRDA:92,0,0,2098
BRDA:92,0,1,0
BRDA:93,0,0,2098
BRDA:93,0,1,0
BRDA:101,0,0,1280
BRDA:101,0,1,848
BRDA:111,0,0,3434
BRDA:111,0,1,558
BRDA:117,0,0,2523
BRDA:117,0,1,1469
BRDA:124,0,0,3464
BRDA:124,0,1,528
BRDA:132,0,0,386
BRDA:132,0,1,142
BRDA:141,0,0,90
BRDA:141,0,1,0
BRDA:143,0,0,-
BRDA:143,0,1,-
BRDA:156,0,0,594
BRDA:156,0,1,3634
BRDA:158,0,0,3538
BRDA:158,0,1,96
BRDA:176,0,0,3634
BRDA:176,0,1,594
BRDA:177,0,0,104
BRDA:177,0,1,4124
BRDA:177,1,2,158
BRDA:177,1,3,4070
BRDA:177,2,4,54
BRDA:177,2,5,4070
BRDA:180,0,0,78
BRDA:180,0,1,3992
BRDA:183,0,0,32
BRDA:183,0,1,46
BRDA:183,1,2,64
BRDA:183,1,3,14
BRDA:183,2,4,32
BRDA:183,2,5,32
BRDA:183,3,6,32
BRDA:183,3,7,0
BRDA:223,0,0,120
BRDA:223,0,1,3304
BRDA:223,1,2,1196
BRDA:223,1,3,2108
BRDA:251,0,0,120
BRDA:251,0,1,3328
BRDA:251,1,2,1196
BRDA:251,1,3,2132
BRDA:265,0,0,112
BRDA:265,0,1,732
BRDA:265,1,2,232
BRDA:265,1,3,500
BRDA:300,0,0,1718
BRDA:300,0,1,330
BRDA:307,0,0,1424
BRDA:307,0,1,624
BRDA:307,1,2,1096
BRDA:307,1,3,952
BRDA:307,2,4,1096
BRDA:307,2,5,328
BRDA:315,0,0,676
BRDA:315,0,1,276
BRDA:356,0,0,524
BRDA:356,0,1,3462
BRDA:376,0,0,552
BRDA:376,0,1,2910
BRDA:384,0,0,100
BRDA:384,0,1,2810
BRDA:395,0,0,100
BRDA:395,0,1,2810
BRDA:404,0,0,1076
BRDA:404,0,1,2910
BRDA:407,0,0,2909
BRDA:407,0,1,1
BRDA:440,0,0,2632
BRDA:440,0,1,296
BRDA:450,0,0,2668
BRDA:450,0,1,260
BRDA:450,1,2,2596
BRDA:450,1,3,72
BRDA:467,0,0,6146
BRDA:467,0,1,296
BRDA:477,0,0,4604
BRDA:477,0,1,1838
BRDA:495,0,0,142
BRDA:495,0,1,1598
BRDA:500,0,0,2844
BRDA:500,0,1,1598
BRDA:516,0,0,798
BRDA:516,0,1,800
BRDA:520,0,0,722
BRDA:520,0,1,78
BRDA:556,0,0,896
BRDA:556,0,1,272
BRDA:556,1,2,144
BRDA:556,1,3,752
BRDA:568,0,0,314
BRDA:568,0,1,906
BRDA:577,0,0,486
BRDA:577,0,1,420
BRDA:590,0,0,196
BRDA:590,0,1,324
BRDA:595,0,0,144
BRDA:595,0,1,180
BRDA:604,0,0,0
BRDA:604,0,1,1584
BRDA:609,0,0,220
BRDA:609,0,1,1364
BRDA:618,0,0,196
BRDA:618,0,1,348
BRDA:623,0,0,176
BRDA:623,0,1,172
BRDA:632,0,0,0
BRDA:632,0,1,1608
BRDA:637,0,0,240
BRDA:637,0,1,1368
BRDA:646,0,0,0
BRDA:646,0,1,412
BRDA:651,0,0,204
BRDA:651,0,1,208
BRDA:660,0,0,200
BRDA:660,0,1,116
BRDA:665,0,0,36
BRDA:665,0,1,80
BRDA:674,0,0,200
BRDA:674,0,1,104
BRDA:679,0,0,56
BRDA:679,0,1,48
BRDA:690,0,0,14
BRDA:690,0,1,710
BRDA:700,0,0,258
BRDA:700,0,1,452
BRDA:768,0,0,3480939
BRDA:768,0,1,3868183
BRDA:794,0,0,1587672
BRDA:794,0,1,51185
BRDA:802,0,0,45263
BRDA:802,0,1,5922
BRF:142
BRH:131
LF:529
LH:522
end_of_record
SF:/home/builder/project/test/state/precompiles_stubs.cpp
FN:63,_ZN6evmone5state11expmod_stubESt4spanIKhLm18446744073709551615EES3_S3_Ph
FN:79,precompiles_stubs.cpp:_ZZN6evmone5state11expmod_stubESt4spanIKhLm18446744073709551615EES3_S3_PhENK3$_0clB5cxx11Ev
FN:36,precompiles_stubs.cpp:_ZN6evmone5state12_GLOBAL__N_120expmod_lookup_resultB5cxx11ESt17basic_string_viewIhN4evmc11byte_traitsIhEEES6_S6_
FNDA:1,_ZN6evmone5state11expmod_stubESt4spanIKhLm18446744073709551615EES3_S3_Ph
FNDA:1,precompiles_stubs.cpp:_ZZN6evmone5state11expmod_stubESt4spanIKhLm18446744073709551615EES3_S3_PhENK3$_0clB5cxx11Ev
FNDA:0,precompiles_stubs.cpp:_ZN6evmone5state12_GLOBAL__N_120expmod_lookup_resultB5cxx11ESt17basic_string_viewIhN4evmc11byte_traitsIhEEES6_S6_
FNF:3
FNH:2
DA:36,0
DA:37,0
DA:39,0
DA:40,0
DA:41,0
DA:43,0
DA:46,0
DA:47,0
DA:48,0
DA:50,0
DA:51,0
DA:52,0
DA:53,0
DA:54,0
DA:55,0
DA:56,0
DA:57,0
DA:63,1
DA:64,1
DA:65,1
DA:66,1
DA:69,1
DA:72,1
DA:73,1
DA:74,1
DA:75,1
DA:79,1
DA:81,1
DA:82,0
DA:85,1
DA:86,1
DA:89,0
DA:90,0
DA:92,0
DA:93,0
DA:96,1
DA:97,1
DA:98,1
BRDA:51,0,0,-
BRDA:51,0,1,-
BRDA:81,0,0,1
BRDA:81,0,1,0
BRDA:81,1,2,0
BRDA:81,1,3,1
BRDA:85,0,0,1
BRDA:85,0,1,0
BRDA:89,0,0,-
BRDA:89,0,1,-
BRDA:89,1,2,-
BRDA:89,1,3,-
BRDA:89,2,4,-
BRDA:89,2,5,-
BRF:14
BRH:3
LF:47
LH:25
end_of_record
SF:/home/builder/project/test/state/requests.cpp
FN:11,_ZN6evmone5state23calculate_requests_hashESt4spanIKNS0_8RequestsELm18446744073709551615EE
FN:33,_ZN6evmone5state24collect_deposit_requestsESt4spanIKNS0_18TransactionReceiptELm18446744073709551615EE
FNDA:43386,_ZN6evmone5state23calculate_requests_hashESt4spanIKNS0_8RequestsELm18446744073709551615EE
FNDA:45464,_ZN6evmone5state24collect_deposit_requestsESt4spanIKNS0_18TransactionReceiptELm18446744073709551615EE
FNF:2
FNH:2
DA:11,43386
DA:12,43386
DA:13,43386
DA:15,43386
DA:16,130158
DA:17,130158
DA:18,129374
DA:20,784
DA:21,784
DA:22,784
DA:23,784
DA:24,784
DA:26,43386
DA:27,43386
DA:28,43386
DA:29,43386
DA:30,43386
DA:33,45464
DA:35,45464
DA:36,45464
DA:37,47763
DA:38,47763
DA:39,9128
DA:44,9128
DA:45,7468
DA:46,1660
DA:47,4
DA:51,1656
DA:52,4
DA:68,1652
DA:69,1652
DA:72,1652
DA:73,1652
DA:75,1652
DA:76,1652
DA:79,1652
DA:80,1652
DA:82,1652
DA:83,1652
DA:86,1652
DA:88,1652
DA:89,1652
DA:90,1652
DA:91,1652
DA:92,1652
DA:93,1652
DA:94,47763
DA:95,45460
DA:96,45464
BRDA:15,0,0,130158
BRDA:15,0,1,43386
BRDA:17,0,0,129374
BRDA:17,0,1,784
BRDA:36,0,0,47763
BRDA:36,0,1,45460
BRDA:38,0,0,9128
BRDA:38,0,1,47759
BRDA:44,0,0,7468
BRDA:44,0,1,1660
BRDA:46,0,0,0
BRDA:46,0,1,1660
BRDA:46,1,2,4
BRDA:46,1,3,1656
BRDA:51,0,0,4
BRDA:51,0,1,1652
BRF:16
BRH:15
LF:49
LH:49
end_of_record
SF:/home/builder/project/test/state/requests.hpp
FN:56,_ZNK6evmone5state8Requests4typeEv
FN:59,_ZNK6evmone5state8Requests4dataEv
FN:49,_ZN6evmone5state8RequestsC2ENS1_4TypeESt17basic_string_viewIhN4evmc11byte_traitsIhEEE
FN:62,_ZN6evmone5state8Requests6appendESt17basic_string_viewIhN4evmc11byte_traitsIhEEE
FNDA:0,_ZNK6evmone5state8Requests4typeEv
FNDA:130158,_ZNK6evmone5state8Requests4dataEv
FNDA:136360,_ZN6evmone5state8RequestsC2ENS1_4TypeESt17basic_string_viewIhN4evmc11byte_traitsIhEEE
FNDA:8260,_ZN6evmone5state8Requests6appendESt17basic_string_viewIhN4evmc11byte_traitsIhEEE
FNF:4
FNH:3
DA:49,136360
DA:50,136360
DA:51,136360
DA:52,136360
DA:53,136360
DA:56,0
DA:59,130158
DA:62,8260
BRF:0
BRH:0
LF:8
LH:7
end_of_record
SF:/home/builder/project/test/state/rlp.hpp
FN:40,_ZN6evmone3rlp8internal9wrap_listERKNSt7__cxx1112basic_stringIhN4evmc11byte_traitsIhEESaIhEEE
FN:49,_ZN6evmone3rlp4trimESt17basic_string_viewIhN4evmc11byte_traitsIhEEE
FN:61,_ZN6evmone3rlp6encodeB5cxx11ESt17basic_string_viewIhN4evmc11byte_traitsIhEEE
FN:70,_ZN6evmone3rlp6encodeB5cxx11Em
FN:77,_ZN6evmone3rlp6encodeB5cxx11ERKN4intx4uintILj256EEE
FN:24,_ZN6evmone3rlp8internal13encode_lengthILh192ELh247EEENSt7__cxx1112basic_stringIhN4evmc11byte_traitsIhEESaIhEEEm
FN:24,_ZN6evmone3rlp8internal13encode_lengthILh128ELh183EEENSt7__cxx1112basic_stringIhN4evmc11byte_traitsIhEESaIhEEEm
FN:98,_ZN6evmone3rlp12encode_tupleIJmN4intx4uintILj256EEEN4evmc7bytes32ES6_EEENSt7__cxx1112basic_stringIhNS5_11byte_traitsIhEESaIhEEEDpRKT_
FN:98,_ZN6evmone3rlp12encode_tupleIJNSt7__cxx1112basic_stringIhN4evmc11byte_traitsIhEESaIhEEES8_EEES8_DpRKT_
FN:98,_ZN6evmone3rlp12encode_tupleIJNSt7__cxx1112basic_stringIhN4evmc11byte_traitsIhEESaIhEEENS4_7bytes32EEEES8_DpRKT_
FN:98,_ZN6evmone3rlp12encode_tupleIJN4evmc7addressEmEEENSt7__cxx1112basic_stringIhNS2_11byte_traitsIhEESaIhEEEDpRKT_
FN:85,_ZN6evmone3rlp6encodeImEENSt7__cxx1112basic_stringIhN4evmc11byte_traitsIhEESaIhEEERKSt6vectorIT_SaISA_EE
FN:117,_ZN6evmone3rlp8internal16encode_containerIN9__gnu_cxx17__normal_iteratorIPKmSt6vectorImSaImEEEEEENSt7__cxx1112basic_stringIhN4evmc11byte_traitsIhEESaIhEEET_SI_
FN:91,_ZN6evmone3rlp6encodeImLm3EEENSt7__cxx1112basic_stringIhN4evmc11byte_traitsIhEESaIhEEERAT0__KT_
FN:117,_ZN6evmone3rlp8internal16encode_containerIPKmEENSt7__cxx1112basic_stringIhN4evmc11byte_traitsIhEESaIhEEET_SC_
FN:85,_ZN6evmone3rlp6encodeIN4intx4uintILj256EEEEENSt7__cxx1112basic_stringIhN4evmc11byte_traitsIhEESaIhEEERKSt6vectorIT_SaISD_EE
FN:117,_ZN6evmone3rlp8internal16encode_containerIN9__gnu_cxx17__normal_iteratorIPKN4intx4uintILj256EEESt6vectorIS7_SaIS7_EEEEEENSt7__cxx1112basic_stringIhN4evmc11byte_traitsIhEESaIhEEET_SL_
FN:56,_ZN6evmone3rlp6encodeI12CustomStructEEDTcl10rlp_encodeclsr3stdE7declvalIT_EEEERKS3_
FN:98,_ZN6evmone3rlp12encode_tupleIJmNSt7__cxx1112basic_stringIhN4evmc11byte_traitsIhEESaIhEEEEEES8_DpRKT_
FN:85,_ZN6evmone3rlp6encodeI12CustomStructEENSt7__cxx1112basic_stringIhN4evmc11byte_traitsIhEESaIhEEERKSt6vectorIT_SaISB_EE
FN:117,_ZN6evmone3rlp8internal16encode_containerIN9__gnu_cxx17__normal_iteratorIPK12CustomStructSt6vectorIS5_SaIS5_EEEEEENSt7__cxx1112basic_stringIhN4evmc11byte_traitsIhEESaIhEEET_SJ_
FN:56,_ZN6evmone3rlp6encodeINS_5state11TransactionEEEDTcl10rlp_encodeclsr3stdE7declvalIT_EEEERKS4_
FN:98,_ZN6evmone3rlp12encode_tupleIJmmN4evmc7addressEmEEENSt7__cxx1112basic_stringIhNS2_11byte_traitsIhEESaIhEEEDpRKT_
FN:56,_ZN6evmone3rlp6encodeINS_5state18TransactionReceiptEEEDTcl10rlp_encodeclsr3stdE7declvalIT_EEEERKS4_
FN:56,_ZN6evmone3rlp6encodeINS_5state10WithdrawalEEEDTcl10rlp_encodeclsr3stdE7declvalIT_EEEERKS4_
FN:98,_ZN6evmone3rlp12encode_tupleIJN4evmc7addressESt6vectorINS2_7bytes32ESaIS5_EENSt7__cxx1112basic_stringIhNS2_11byte_traitsIhEESaIhEEEEEESD_DpRKT_
FN:85,_ZN6evmone3rlp6encodeIN4evmc7bytes32EEENSt7__cxx1112basic_stringIhNS2_11byte_traitsIhEESaIhEEERKSt6vectorIT_SaISB_EE
FN:117,_ZN6evmone3rlp8internal16encode_containerIN9__gnu_cxx17__normal_iteratorIPKN4evmc7bytes32ESt6vectorIS6_SaIS6_EEEEEENSt7__cxx1112basic_stringIhNS5_11byte_traitsIhEESaIhEEET_SJ_
FN:98,_ZN6evmone3rlp12encode_tupleIJmN4intx4uintILj256EEEmSt17basic_string_viewIhN4evmc11byte_traitsIhEEES4_NSt7__cxx1112basic_stringIhS8_SaIhEEEhS4_S4_EEESD_DpRKT_
FN:98,_ZN6evmone3rlp12encode_tupleIJmmN4intx4uintILj256EEEmSt17basic_string_viewIhN4evmc11byte_traitsIhEEES4_NSt7__cxx1112basic_stringIhS8_SaIhEEESt6vectorISt4pairINS6_7addressESE_INS6_7bytes32ESaISH_EEESaISK_EEhS4_S4_EEESD_DpRKT_
FN:85,_ZN6evmone3rlp6encodeISt4pairIN4evmc7addressESt6vectorINS3_7bytes32ESaIS6_EEEEENSt7__cxx1112basic_stringIhNS3_11byte_traitsIhEESaIhEEERKS5_IT_SaISG_EE
FN:117,_ZN6evmone3rlp8internal16encode_containerIN9__gnu_cxx17__normal_iteratorIPKSt4pairIN4evmc7addressESt6vectorINS6_7bytes32ESaIS9_EEES8_ISC_SaISC_EEEEEENSt7__cxx1112basic_stringIhNS6_11byte_traitsIhEESaIhEEET_SO_
FN:105,_ZN6evmone3rlp6encodeIN4evmc7addressESt6vectorINS2_7bytes32ESaIS5_EEEENSt7__cxx1112basic_stringIhNS2_11byte_traitsIhEESaIhEEERKSt4pairIT_T0_E
FN:98,_ZN6evmone3rlp12encode_tupleIJN4evmc7addressESt6vectorINS2_7bytes32ESaIS5_EEEEENSt7__cxx1112basic_stringIhNS2_11byte_traitsIhEESaIhEEEDpRKT_
FN:98,_ZN6evmone3rlp12encode_tupleIJmmN4intx4uintILj256EEES4_mSt17basic_string_viewIhN4evmc11byte_traitsIhEEES4_NSt7__cxx1112basic_stringIhS8_SaIhEEESt6vectorISt4pairINS6_7addressESE_INS6_7bytes32ESaISH_EEESaISK_EEhS4_S4_EEESD_DpRKT_
FN:98,_ZN6evmone3rlp12encode_tupleIJmmN4intx4uintILj256EEES4_mSt17basic_string_viewIhN4evmc11byte_traitsIhEEES4_NSt7__cxx1112basic_stringIhS8_SaIhEEESt6vectorISt4pairINS6_7addressESE_INS6_7bytes32ESaISH_EEESaISK_EES4_SJ_hS4_S4_EEESD_DpRKT_
FN:98,_ZN6evmone3rlp12encode_tupleIJmmN4intx4uintILj256EEES4_mSt17basic_string_viewIhN4evmc11byte_traitsIhEEES4_NSt7__cxx1112basic_stringIhS8_SaIhEEESt6vectorISt4pairINS6_7addressESE_INS6_7bytes32ESaISH_EEESaISK_EESE_INS_5state13AuthorizationESaISO_EEhS4_S4_EEESD_DpRKT_
FN:85,_ZN6evmone3rlp6encodeINS_5state13AuthorizationEEENSt7__cxx1112basic_stringIhN4evmc11byte_traitsIhEESaIhEEERKSt6vectorIT_SaISC_EE
FN:117,_ZN6evmone3rlp8internal16encode_containerIN9__gnu_cxx17__normal_iteratorIPKNS_5state13AuthorizationESt6vectorIS6_SaIS6_EEEEEENSt7__cxx1112basic_stringIhN4evmc11byte_traitsIhEESaIhEEET_SK_
FN:56,_ZN6evmone3rlp6encodeINS_5state13AuthorizationEEEDTcl10rlp_encodeclsr3stdE7declvalIT_EEEERKS4_
FN:98,_ZN6evmone3rlp12encode_tupleIJmmN4intx4uintILj256EEES4_mSt17basic_string_viewIhN4evmc11byte_traitsIhEEES4_NSt7__cxx1112basic_stringIhS8_SaIhEEESt6vectorISt4pairINS6_7addressESE_INS6_7bytes32ESaISH_EEESaISK_EESE_ISD_SaISD_EEhS4_S4_EEESD_DpRKT_
FN:85,_ZN6evmone3rlp6encodeINSt7__cxx1112basic_stringIhN4evmc11byte_traitsIhEESaIhEEEEES8_RKSt6vectorIT_SaISA_EE
FN:117,_ZN6evmone3rlp8internal16encode_containerIN9__gnu_cxx17__normal_iteratorIPKNSt7__cxx1112basic_stringIhN4evmc11byte_traitsIhEESaIhEEESt6vectorISB_SaISB_EEEEEESB_T_SI_
FN:98,_ZN6evmone3rlp12encode_tupleIJN4evmc7bytes32EmSt17basic_string_viewIhNS2_11byte_traitsIhEEESt6vectorINS_5state3LogESaISA_EEEEENSt7__cxx1112basic_stringIhS6_SaIhEEEDpRKT_
FN:85,_ZN6evmone3rlp6encodeINS_5state3LogEEENSt7__cxx1112basic_stringIhN4evmc11byte_traitsIhEESaIhEEERKSt6vectorIT_SaISC_EE
FN:117,_ZN6evmone3rlp8internal16encode_containerIN9__gnu_cxx17__normal_iteratorIPKNS_5state3LogESt6vectorIS6_SaIS6_EEEEEENSt7__cxx1112basic_stringIhN4evmc11byte_traitsIhEESaIhEEET_SK_
FN:56,_ZN6evmone3rlp6encodeINS_5state3LogEEEDTcl10rlp_encodeclsr3stdE7declvalIT_EEEERKS4_
FN:98,_ZN6evmone3rlp12encode_tupleIJbmSt17basic_string_viewIhN4evmc11byte_traitsIhEEESt6vectorINS_5state3LogESaIS9_EEEEENSt7__cxx1112basic_stringIhS5_SaIhEEEDpRKT_
FN:98,_ZN6evmone3rlp12encode_tupleIJN4intx4uintILj256EEEN4evmc7addressEmS4_S4_S4_EEENSt7__cxx1112basic_stringIhNS5_11byte_traitsIhEESaIhEEEDpRKT_
FN:85,_ZN6evmone3rlp6encodeINS_5state11TransactionEEENSt7__cxx1112basic_stringIhN4evmc11byte_traitsIhEESaIhEEERKSt6vectorIT_SaISC_EE
FN:117,_ZN6evmone3rlp8internal16encode_containerIN9__gnu_cxx17__normal_iteratorIPKNS_5state11TransactionESt6vectorIS6_SaIS6_EEEEEENSt7__cxx1112basic_stringIhN4evmc11byte_traitsIhEESaIhEEET_SK_
FNDA:26692515,_ZN6evmone3rlp8internal9wrap_listERKNSt7__cxx1112basic_stringIhN4evmc11byte_traitsIhEESaIhEEE
FNDA:21857154,_ZN6evmone3rlp4trimESt17basic_string_viewIhN4evmc11byte_traitsIhEEE
FNDA:81939060,_ZN6evmone3rlp6encodeB5cxx11ESt17basic_string_viewIhN4evmc11byte_traitsIhEEE
FNDA:5987792,_ZN6evmone3rlp6encodeB5cxx11Em
FNDA:5961786,_ZN6evmone3rlp6encodeB5cxx11ERKN4intx4uintILj256EEE
FNDA:26692515,_ZN6evmone3rlp8internal13encode_lengthILh192ELh247EEENSt7__cxx1112basic_stringIhN4evmc11byte_traitsIhEESaIhEEEm
FNDA:66701431,_ZN6evmone3rlp8internal13encode_lengthILh128ELh183EEENSt7__cxx1112basic_stringIhN4evmc11byte_traitsIhEESaIhEEEm
FNDA:5084170,_ZN6evmone3rlp12encode_tupleIJmN4intx4uintILj256EEEN4evmc7bytes32ES6_EEENSt7__cxx1112basic_stringIhNS5_11byte_traitsIhEESaIhEEEDpRKT_
FNDA:0,_ZN6evmone3rlp12encode_tupleIJNSt7__cxx1112basic_stringIhN4evmc11byte_traitsIhEESaIhEEES8_EEES8_DpRKT_
FNDA:0,_ZN6evmone3rlp12encode_tupleIJNSt7__cxx1112basic_stringIhN4evmc11byte_traitsIhEESaIhEEENS4_7bytes32EEEES8_DpRKT_
FNDA:0,_ZN6evmone3rlp12encode_tupleIJN4evmc7addressEmEEENSt7__cxx1112basic_stringIhNS2_11byte_traitsIhEESaIhEEEDpRKT_
FNDA:0,_ZN6evmone3rlp6encodeImEENSt7__cxx1112basic_stringIhN4evmc11byte_traitsIhEESaIhEEERKSt6vectorIT_SaISA_EE
FNDA:0,_ZN6evmone3rlp8internal16encode_containerIN9__gnu_cxx17__normal_iteratorIPKmSt6vectorImSaImEEEEEENSt7__cxx1112basic_stringIhN4evmc11byte_traitsIhEESaIhEEET_SI_
FNDA:0,_ZN6evmone3rlp6encodeImLm3EEENSt7__cxx1112basic_stringIhN4evmc11byte_traitsIhEESaIhEEERAT0__KT_
FNDA:0,_ZN6evmone3rlp8internal16encode_containerIPKmEENSt7__cxx1112basic_stringIhN4evmc11byte_traitsIhEESaIhEEET_SC_
FNDA:0,_ZN6evmone3rlp6encodeIN4intx4uintILj256EEEEENSt7__cxx1112basic_stringIhN4evmc11byte_traitsIhEESaIhEEERKSt6vectorIT_SaISD_EE
FNDA:0,_ZN6evmone3rlp8internal16encode_containerIN9__gnu_cxx17__normal_iteratorIPKN4intx4uintILj256EEESt6vectorIS7_SaIS7_EEEEEENSt7__cxx1112basic_stringIhN4evmc11byte_traitsIhEESaIhEEET_SL_
FNDA:0,_ZN6evmone3rlp6encodeI12CustomStructEEDTcl10rlp_encodeclsr3stdE7declvalIT_EEEERKS3_
FNDA:0,_ZN6evmone3rlp12encode_tupleIJmNSt7__cxx1112basic_stringIhN4evmc11byte_traitsIhEESaIhEEEEEES8_DpRKT_
FNDA:0,_ZN6evmone3rlp6encodeI12CustomStructEENSt7__cxx1112basic_stringIhN4evmc11byte_traitsIhEESaIhEEERKSt6vectorIT_SaISB_EE
FNDA:0,_ZN6evmone3rlp8internal16encode_containerIN9__gnu_cxx17__normal_iteratorIPK12CustomStructSt6vectorIS5_SaIS5_EEEEEENSt7__cxx1112basic_stringIhN4evmc11byte_traitsIhEESaIhEEET_SJ_
FNDA:164787,_ZN6evmone3rlp6encodeINS_5state11TransactionEEEDTcl10rlp_encodeclsr3stdE7declvalIT_EEEERKS4_
FNDA:4026,_ZN6evmone3rlp12encode_tupleIJmmN4evmc7addressEmEEENSt7__cxx1112basic_stringIhNS2_11byte_traitsIhEESaIhEEEDpRKT_
FNDA:80048,_ZN6evmone3rlp6encodeINS_5state18TransactionReceiptEEEDTcl10rlp_encodeclsr3stdE7declvalIT_EEEERKS4_
FNDA:4026,_ZN6evmone3rlp6encodeINS_5state10WithdrawalEEEDTcl10rlp_encodeclsr3stdE7declvalIT_EEEERKS4_
FNDA:27323,_ZN6evmone3rlp12encode_tupleIJN4evmc7addressESt6vectorINS2_7bytes32ESaIS5_EENSt7__cxx1112basic_stringIhNS2_11byte_traitsIhEESaIhEEEEEESD_DpRKT_
FNDA:190707,_ZN6evmone3rlp6encodeIN4evmc7bytes32EEENSt7__cxx1112basic_stringIhNS2_11byte_traitsIhEESaIhEEERKSt6vectorIT_SaISB_EE
FNDA:190707,_ZN6evmone3rlp8internal16encode_containerIN9__gnu_cxx17__normal_iteratorIPKN4evmc7bytes32ESt6vectorIS6_SaIS6_EEEEEENSt7__cxx1112basic_stringIhNS5_11byte_traitsIhEESaIhEEET_SJ_
FNDA:133880,_ZN6evmone3rlp12encode_tupleIJmN4intx4uintILj256EEEmSt17basic_string_viewIhN4evmc11byte_traitsIhEEES4_NSt7__cxx1112basic_stringIhS8_SaIhEEEhS4_S4_EEESD_DpRKT_
FNDA:5075,_ZN6evmone3rlp12encode_tupleIJmmN4intx4uintILj256EEEmSt17basic_string_viewIhN4evmc11byte_traitsIhEEES4_NSt7__cxx1112basic_stringIhS8_SaIhEEESt6vectorISt4pairINS6_7addressESE_INS6_7bytes32ESaISH_EEESaISK_EEhS4_S4_EEESD_DpRKT_
FNDA:30907,_ZN6evmone3rlp6encodeISt4pairIN4evmc7addressESt6vectorINS3_7bytes32ESaIS6_EEEEENSt7__cxx1112basic_stringIhNS3_11byte_traitsIhEESaIhEEERKS5_IT_SaISG_EE
FNDA:30907,_ZN6evmone3rlp8internal16encode_containerIN9__gnu_cxx17__normal_iteratorIPKSt4pairIN4evmc7addressESt6vectorINS6_7bytes32ESaIS9_EEES8_ISC_SaISC_EEEEEENSt7__cxx1112basic_stringIhNS6_11byte_traitsIhEESaIhEEET_SO_
FNDA:144888,_ZN6evmone3rlp6encodeIN4evmc7addressESt6vectorINS2_7bytes32ESaIS5_EEEENSt7__cxx1112basic_stringIhNS2_11byte_traitsIhEESaIhEEERKSt4pairIT_T0_E
FNDA:144888,_ZN6evmone3rlp12encode_tupleIJN4evmc7addressESt6vectorINS2_7bytes32ESaIS5_EEEEENSt7__cxx1112basic_stringIhNS2_11byte_traitsIhEESaIhEEEDpRKT_
FNDA:4753,_ZN6evmone3rlp12encode_tupleIJmmN4intx4uintILj256EEES4_mSt17basic_string_viewIhN4evmc11byte_traitsIhEEES4_NSt7__cxx1112basic_stringIhS8_SaIhEEESt6vectorISt4pairINS6_7addressESE_INS6_7bytes32ESaISH_EEESaISK_EEhS4_S4_EEESD_DpRKT_
FNDA:18496,_ZN6evmone3rlp12encode_tupleIJmmN4intx4uintILj256EEES4_mSt17basic_string_viewIhN4evmc11byte_traitsIhEEES4_NSt7__cxx1112basic_stringIhS8_SaIhEEESt6vectorISt4pairINS6_7addressESE_INS6_7bytes32ESaISH_EEESaISK_EES4_SJ_hS4_S4_EEESD_DpRKT_
FNDA:2583,_ZN6evmone3rlp12encode_tupleIJmmN4intx4uintILj256EEES4_mSt17basic_string_viewIhN4evmc11byte_traitsIhEEES4_NSt7__cxx1112basic_stringIhS8_SaIhEEESt6vectorISt4pairINS6_7addressESE_INS6_7bytes32ESaISH_EEESaISK_EESE_INS_5state13AuthorizationESaISO_EEhS4_S4_EEESD_DpRKT_
FNDA:2583,_ZN6evmone3rlp6encodeINS_5state13AuthorizationEEENSt7__cxx1112basic_stringIhN4evmc11byte_traitsIhEESaIhEEERKSt6vectorIT_SaISC_EE
FNDA:2583,_ZN6evmone3rlp8internal16encode_containerIN9__gnu_cxx17__normal_iteratorIPKNS_5state13AuthorizationESt6vectorIS6_SaIS6_EEEEEENSt7__cxx1112basic_stringIhN4evmc11byte_traitsIhEESaIhEEET_SK_
FNDA:43535,_ZN6evmone3rlp6encodeINS_5state13AuthorizationEEEDTcl10rlp_encodeclsr3stdE7declvalIT_EEEERKS4_
FNDA:0,_ZN6evmone3rlp12encode_tupleIJmmN4intx4uintILj256EEES4_mSt17basic_string_viewIhN4evmc11byte_traitsIhEEES4_NSt7__cxx1112basic_stringIhS8_SaIhEEESt6vectorISt4pairINS6_7addressESE_INS6_7bytes32ESaISH_EEESaISK_EESE_ISD_SaISD_EEhS4_S4_EEESD_DpRKT_
FNDA:0,_ZN6evmone3rlp6encodeINSt7__cxx1112basic_stringIhN4evmc11byte_traitsIhEESaIhEEEEES8_RKSt6vectorIT_SaISA_EE
FNDA:0,_ZN6evmone3rlp8internal16encode_containerIN9__gnu_cxx17__normal_iteratorIPKNSt7__cxx1112basic_stringIhN4evmc11byte_traitsIhEESaIhEEESt6vectorISB_SaISB_EEEEEESB_T_SI_
FNDA:1477,_ZN6evmone3rlp12encode_tupleIJN4evmc7bytes32EmSt17basic_string_viewIhNS2_11byte_traitsIhEEESt6vectorINS_5state3LogESaISA_EEEEENSt7__cxx1112basic_stringIhS6_SaIhEEEDpRKT_
FNDA:138853,_ZN6evmone3rlp6encodeINS_5state3LogEEENSt7__cxx1112basic_stringIhN4evmc11byte_traitsIhEESaIhEEERKSt6vectorIT_SaISC_EE
FNDA:138853,_ZN6evmone3rlp8internal16encode_containerIN9__gnu_cxx17__normal_iteratorIPKNS_5state3LogESt6vectorIS6_SaIS6_EEEEEENSt7__cxx1112basic_stringIhN4evmc11byte_traitsIhEESaIhEEET_SK_
FNDA:27323,_ZN6evmone3rlp6encodeINS_5state3LogEEEDTcl10rlp_encodeclsr3stdE7declvalIT_EEEERKS4_
FNDA:78571,_ZN6evmone3rlp12encode_tupleIJbmSt17basic_string_viewIhN4evmc11byte_traitsIhEEESt6vectorINS_5state3LogESaIS9_EEEEENSt7__cxx1112basic_stringIhS5_SaIhEEEDpRKT_
FNDA:43535,_ZN6evmone3rlp12encode_tupleIJN4intx4uintILj256EEEN4evmc7addressEmS4_S4_S4_EEENSt7__cxx1112basic_stringIhNS5_11byte_traitsIhEESaIhEEEDpRKT_
FNDA:0,_ZN6evmone3rlp6encodeINS_5state11TransactionEEENSt7__cxx1112basic_stringIhN4evmc11byte_traitsIhEESaIhEEERKSt6vectorIT_SaISC_EE
FNDA:0,_ZN6evmone3rlp8internal16encode_containerIN9__gnu_cxx17__normal_iteratorIPKNS_5state11TransactionESt6vectorIS6_SaIS6_EEEEEENSt7__cxx1112basic_stringIhN4evmc11byte_traitsIhEESaIhEEET_SK_
FNF:12
FNH:11
DA:24,93393946
DA:25,93393946
DA:26,93393946
DA:27,93393946
DA:29,93393946
DA:30,67589737
DA:31,25804209
DA:32,24874072
DA:33,930137
DA:34,929759
DA:35,378
DA:36,378
DA:37,93393946
DA:40,26692515
DA:41,26692515
DA:42,26692515
DA:49,21857154
DA:50,21857154
DA:51,21857154
DA:52,21857154
DA:56,319719
DA:57,319719
DA:58,319719
DA:61,81939060
DA:62,81939060
DA:63,81939060
DA:64,15237629
DA:66,66701431
DA:67,81939060
DA:70,5987792
DA:71,5987792
DA:72,5987792
DA:73,5987792
DA:74,5987792
DA:77,5961786
DA:78,5961786
DA:79,5961786
DA:80,5961786
DA:81,5961786
DA:85,363050
DA:86,363050
DA:87,363050
DA:91,0
DA:92,0
DA:93,0
DA:98,5548777
DA:99,5548777
DA:100,5548777
DA:105,144888
DA:106,144888
DA:107,144888
DA:117,363050
DA:118,363050
DA:119,787335
DA:120,424285
DA:121,363050
DA:122,363050
BRDA:29,0,0,6308228
BRDA:29,0,1,20384287
BRDA:29,1,2,61281509
BRDA:29,1,3,5419922
BRDA:31,0,0,19660371
BRDA:31,0,1,723916
BRDA:31,1,2,5213701
BRDA:31,1,3,206221
BRDA:33,0,0,723653
BRDA:33,0,1,263
BRDA:33,1,2,206106
BRDA:33,1,3,115
BRDA:63,0,0,15409821
BRDA:63,0,1,66529239
BRDA:63,1,2,15237629
BRDA:63,1,3,172192
BRDA:119,0,0,-
BRDA:119,0,1,-
BRDA:119,1,2,27323
BRDA:119,1,3,138853
BRDA:119,2,4,-
BRDA:119,2,5,-
BRDA:119,3,6,43535
BRDA:119,3,7,2583
BRDA:119,4,8,144888
BRDA:119,4,9,30907
BRDA:119,5,10,208539
BRDA:119,5,11,190707
BRDA:119,6,12,-
BRDA:119,6,13,-
BRDA:119,7,14,-
BRDA:119,7,15,-
BRDA:119,8,16,-
BRDA:119,8,17,-
BRDA:119,9,18,-
BRDA:119,9,19,-
BRF:12
BRH:12
LF:57
LH:54
end_of_record
SF:/home/builder/project/test/state/state.cpp
FN:212,_ZNK6evmone5state5State10build_diffE13evmc_revision
FN:252,_ZN6evmone5state5State6insertERKN4evmc7addressENS0_7AccountE
FN:259,_ZN6evmone5state5State4findERKN4evmc7addressE
FN:273,_ZN6evmone5state5State3getERKN4evmc7addressE
FN:280,_ZN6evmone5state5State13get_or_insertERKN4evmc7addressENS0_7AccountE
FN:287,_ZN6evmone5state5State8get_codeERKN4evmc7addressE
FN:299,_ZN6evmone5state5State5touchERKN4evmc7addressE
FN:310,_ZN6evmone5state5State11get_storageERKN4evmc7addressERKNS2_7bytes32E
FN:323,_ZN6evmone5state5State22journal_balance_changeERKN4evmc7addressERKN4intx4uintILj256EEE
FN:329,_ZN6evmone5state5State22journal_storage_changeERKN4evmc7addressERKNS2_7bytes32ERKNS0_12StorageValueE
FN:335,_ZN6evmone5state5State32journal_transient_storage_changeERKN4evmc7addressERKNS2_7bytes32ES8_
FN:340,_ZN6evmone5state5State18journal_bump_nonceERKN4evmc7addressE
FN:345,_ZN6evmone5state5State14journal_createERKN4evmc7addressEb
FN:350,_ZN6evmone5state5State16journal_destructERKN4evmc7addressE
FN:355,_ZN6evmone5state5State22journal_access_accountERKN4evmc7addressE
FN:360,_ZN6evmone5state5State8rollbackEm
FN:432,_ZN6evmone5state20validate_transactionERKNS0_9StateViewERKNS0_9BlockInfoERKNS0_11TransactionE13evmc_revisionll
FN:561,_ZN6evmone5state8finalizeERKNS0_9StateViewE13evmc_revisionRKN4evmc7addressESt8optionalImESt4spanIKNS0_5OmmerELm18446744073709551615EESB_IKNS0_10WithdrawalELm18446744073709551615EE
FN:588,_ZN6evmone5state10transitionERKNS0_9StateViewERKNS0_9BlockInfoERKNS0_11BlockHashesERKNS0_11TransactionE13evmc_revisionRN4evmc2VMERKNS0_21TransactionPropertiesE
FN:364,state.cpp:_ZZN6evmone5state5State8rollbackEmENK3$_0clINS1_20JournalBalanceChangeEEEDaRKT_
FN:364,state.cpp:_ZZN6evmone5state5State8rollbackEmENK3$_0clINS1_14JournalTouchedEEEDaRKT_
FN:364,state.cpp:_ZZN6evmone5state5State8rollbackEmENK3$_0clINS1_20JournalStorageChangeEEEDaRKT_
FN:364,state.cpp:_ZZN6evmone5state5State8rollbackEmENK3$_0clINS1_16JournalNonceBumpEEEDaRKT_
FN:364,state.cpp:_ZZN6evmone5state5State8rollbackEmENK3$_0clINS1_13JournalCreateEEEDaRKT_
FN:364,state.cpp:_ZZN6evmone5state5State8rollbackEmENK3$_0clINS1_29JournalTransientStorageChangeEEEDaRKT_
FN:364,state.cpp:_ZZN6evmone5state5State8rollbackEmENK3$_0clINS1_15JournalDestructEEEDaRKT_
FN:364,state.cpp:_ZZN6evmone5state5State8rollbackEmENK3$_0clINS1_20JournalAccessAccountEEEDaRKT_
FN:449,state.cpp:_ZZN6evmone5state20validate_transactionERKNS0_9StateViewERKNS0_9BlockInfoERKNS0_11TransactionE13evmc_revisionllENK3$_0clIN4evmc7bytes32EEEDaRKT_
FN:472,state.cpp:_ZZN6evmone5state20validate_transactionERKNS0_9StateViewERKNS0_9BlockInfoERKNS0_11TransactionE13evmc_revisionllENK3$_1clERKNSt7__cxx1112basic_stringIhN4evmc11byte_traitsIhEESaIhEEE
FN:474,state.cpp:_ZZN6evmone5state20validate_transactionERKNS0_9StateViewERKNS0_9BlockInfoERKNS0_11TransactionE13evmc_revisionllENK3$_2clERKNSt7__cxx1112basic_stringIhN4evmc11byte_traitsIhEESaIhEEE
FN:71,state.cpp:_ZN6evmone5state12_GLOBAL__N_125compute_tx_intrinsic_costE13evmc_revisionRKNS0_11TransactionE
FN:36,state.cpp:_ZN6evmone5state12_GLOBAL__N_122compute_tx_data_tokensE13evmc_revisionSt17basic_string_viewIhN4evmc11byte_traitsIhEEE
FN:45,state.cpp:_ZN6evmone5state12_GLOBAL__N_126compute_tx_initcode_tokensE13evmc_revisionSt4spanIKNSt7__cxx1112basic_stringIhN4evmc11byte_traitsIhEESaIhEEELm18446744073709551615EE
FN:53,state.cpp:_ZN6evmone5state12_GLOBAL__N_124compute_access_list_costERKSt6vectorISt4pairIN4evmc7addressES2_INS4_7bytes32ESaIS6_EEESaIS9_EE
FN:31,state.cpp:_ZN6evmone5state12_GLOBAL__N_19num_wordsEm
FN:108,state.cpp:_ZN6evmone5state12_GLOBAL__N_126process_authorization_listERNS0_5StateEmRKSt6vectorINS0_13AuthorizationESaIS5_EE
FN:190,state.cpp:_ZN6evmone5state12_GLOBAL__N_113build_messageERKNS0_11TransactionEl
FNDA:435571,_ZNK6evmone5state5State10build_diffE13evmc_revision
FNDA:1121639,_ZN6evmone5state5State6insertERKN4evmc7addressENS0_7AccountE
FNDA:54839836,_ZN6evmone5state5State4findERKN4evmc7addressE
FNDA:32751753,_ZN6evmone5state5State3getERKN4evmc7addressE
FNDA:9810947,_ZN6evmone5state5State13get_or_insertERKN4evmc7addressENS0_7AccountE
FNDA:5512368,_ZN6evmone5state5State8get_codeERKN4evmc7addressE
FNDA:4522900,_ZN6evmone5state5State5touchERKN4evmc7addressE
FNDA:10936142,_ZN6evmone5state5State11get_storageERKN4evmc7addressERKNS2_7bytes32E
FNDA:435884,_ZN6evmone5state5State22journal_balance_changeERKN4evmc7addressERKN4intx4uintILj256EEE
FNDA:5450148,_ZN6evmone5state5State22journal_storage_changeERKN4evmc7addressERKNS2_7bytes32ERKNS0_12StorageValueE
FNDA:9079194,_ZN6evmone5state5State32journal_transient_storage_changeERKN4evmc7addressERKNS2_7bytes32ES8_
FNDA:46375,_ZN6evmone5state5State18journal_bump_nonceERKN4evmc7addressE
FNDA:89632,_ZN6evmone5state5State14journal_createERKN4evmc7addressEb
FNDA:4142,_ZN6evmone5state5State16journal_destructERKN4evmc7addressE
FNDA:583383,_ZN6evmone5state5State22journal_access_accountERKN4evmc7addressE
FNDA:2406362,_ZN6evmone5state5State8rollbackEm
FNDA:143544,_ZN6evmone5state20validate_transactionERKNS0_9StateViewERKNS0_9BlockInfoERKNS0_11TransactionE13evmc_revisionll
FNDA:138754,_ZN6evmone5state8finalizeERKNS0_9StateViewE13evmc_revisionRKN4evmc7addressESt8optionalImESt4spanIKNS0_5OmmerELm18446744073709551615EESB_IKNS0_10WithdrawalELm18446744073709551615EE
FNDA:136939,_ZN6evmone5state10transitionERKNS0_9StateViewERKNS0_9BlockInfoERKNS0_11BlockHashesERKNS0_11TransactionE13evmc_revisionRN4evmc2VMERKNS0_21TransactionPropertiesE
FNDA:32070,state.cpp:_ZZN6evmone5state5State8rollbackEmENK3$_0clINS1_20JournalBalanceChangeEEEDaRKT_
FNDA:0,state.cpp:_ZZN6evmone5state5State8rollbackEmENK3$_0clINS1_14JournalTouchedEEEDaRKT_
FNDA:1189061,state.cpp:_ZZN6evmone5state5State8rollbackEmENK3$_0clINS1_20JournalStorageChangeEEEDaRKT_
FNDA:6080,state.cpp:_ZZN6evmone5state5State8rollbackEmENK3$_0clINS1_16JournalNonceBumpEEEDaRKT_
FNDA:10011,state.cpp:_ZZN6evmone5state5State8rollbackEmENK3$_0clINS1_13JournalCreateEEEDaRKT_
FNDA:9067478,state.cpp:_ZZN6evmone5state5State8rollbackEmENK3$_0clINS1_29JournalTransientStorageChangeEEEDaRKT_
FNDA:72,state.cpp:_ZZN6evmone5state5State8rollbackEmENK3$_0clINS1_15JournalDestructEEEDaRKT_
FNDA:14260,state.cpp:_ZZN6evmone5state5State8rollbackEmENK3$_0clINS1_20JournalAccessAccountEEEDaRKT_
FNDA:41656,state.cpp:_ZZN6evmone5state20validate_transactionERKNS0_9StateViewERKNS0_9BlockInfoERKNS0_11TransactionE13evmc_revisionllENK3$_0clIN4evmc7bytes32EEEDaRKT_
FNDA:0,state.cpp:_ZZN6evmone5state20validate_transactionERKNS0_9StateViewERKNS0_9BlockInfoERKNS0_11TransactionE13evmc_revisionllENK3$_1clERKNSt7__cxx1112basic_stringIhN4evmc11byte_traitsIhEESaIhEEE
FNDA:0,state.cpp:_ZZN6evmone5state20validate_transactionERKNS0_9StateViewERKNS0_9BlockInfoERKNS0_11TransactionE13evmc_revisionllENK3$_2clERKNSt7__cxx1112basic_stringIhN4evmc11byte_traitsIhEESaIhEEE
FNDA:141305,state.cpp:_ZN6evmone5state12_GLOBAL__N_125compute_tx_intrinsic_costE13evmc_revisionRKNS0_11TransactionE
FNDA:141305,state.cpp:_ZN6evmone5state12_GLOBAL__N_122compute_tx_data_tokensE13evmc_revisionSt17basic_string_viewIhN4evmc11byte_traitsIhEEE
FNDA:141305,state.cpp:_ZN6evmone5state12_GLOBAL__N_126compute_tx_initcode_tokensE13evmc_revisionSt4spanIKNSt7__cxx1112basic_stringIhN4evmc11byte_traitsIhEESaIhEEELm18446744073709551615EE
FNDA:141305,state.cpp:_ZN6evmone5state12_GLOBAL__N_124compute_access_list_costERKSt6vectorISt4pairIN4evmc7addressES2_INS4_7bytes32ESaIS6_EEESaIS9_EE
FNDA:38815,state.cpp:_ZN6evmone5state12_GLOBAL__N_19num_wordsEm
FNDA:136939,state.cpp:_ZN6evmone5state12_GLOBAL__N_126process_authorization_listERNS0_5StateEmRKSt6vectorINS0_13AuthorizationESaIS5_EE
FNDA:136939,state.cpp:_ZN6evmone5state12_GLOBAL__N_113build_messageERKNS0_11TransactionEl
FNF:30
FNH:28
DA:31,38815
DA:32,38815
DA:33,38815
DA:36,141305
DA:37,141305
DA:38,141305
DA:40,141305
DA:41,141305
DA:42,141305
DA:45,141305
DA:46,141305
DA:47,141305
DA:48,0
DA:49,141305
DA:50,141305
DA:53,141305
DA:54,141305
DA:55,141305
DA:57,141305
DA:58,141305
DA:59,164915
DA:60,141305
DA:61,141305
DA:71,141305
DA:72,141305
DA:73,141305
DA:74,141305
DA:75,141305
DA:76,141305
DA:78,141305
DA:80,141305
DA:82,141305
DA:83,141305
DA:84,141305
DA:85,141305
DA:86,141305
DA:88,141305
DA:90,141305
DA:91,141305
DA:93,141305
DA:94,141305
DA:96,141305
DA:97,141305
DA:100,141305
DA:101,141305
DA:103,141305
DA:104,141305
DA:108,136939
DA:109,136939
DA:110,136939
DA:111,37724
DA:113,37724
DA:114,56
DA:117,37668
DA:118,8
DA:122,37660
DA:123,68
DA:126,37592
DA:127,12
DA:131,37580
DA:134,37580
DA:137,37580
DA:138,37580
DA:139,64
DA:143,37516
DA:144,5522
DA:152,31994
DA:153,16016
DA:154,16016
DA:155,16016
DA:156,16016
DA:157,16016
DA:161,31994
DA:162,128
DA:163,128
DA:164,44
DA:165,44
DA:166,44
DA:167,44
DA:168,44
DA:169,128
DA:171,31866
DA:172,31866
DA:173,31866
DA:174,31866
DA:175,26570
DA:177,26570
DA:178,26570
DA:179,26570
DA:180,26570
DA:181,31866
DA:184,31994
DA:185,31994
DA:186,136939
DA:187,136939
DA:190,136939
DA:191,136939
DA:193,136939
DA:194,136939
DA:195,136939
DA:196,136939
DA:197,136939
DA:198,136939
DA:199,136939
DA:200,136939
DA:201,136939
DA:202,136939
DA:203,136939
DA:204,136939
DA:205,136939
DA:206,136939
DA:207,136939
DA:208,136939
DA:212,435571
DA:213,435571
DA:214,435571
DA:215,1121384
DA:216,1121384
DA:217,4070
DA:220,4070
DA:221,4070
DA:222,4070
DA:223,1117314
DA:224,284999
DA:225,284999
DA:226,277961
DA:227,284999
DA:228,284999
DA:235,832315
DA:239,832315
DA:240,47469
DA:242,832315
DA:243,1784184
DA:244,1784184
DA:245,490754
DA:246,1784184
DA:247,832315
DA:248,435571
DA:249,435571
DA:252,1121639
DA:253,1121639
DA:254,1121639
DA:255,1121639
DA:256,1121639
DA:259,54839836
DA:262,54839836
DA:263,51707313
DA:264,3132523
DA:265,712983
DA:266,712983
DA:267,712983
DA:268,712983
DA:269,2419540
DA:270,3132523
DA:273,32751753
DA:274,32751753
DA:275,32751753
DA:276,32751753
DA:277,32751753
DA:280,9810947
DA:281,9810947
DA:282,9407127
DA:283,403820
DA:284,9810947
DA:287,5512368
DA:288,5512368
DA:289,5512368
DA:290,72
DA:291,5512296
DA:292,1469650
DA:293,4042646
DA:294,262325
DA:295,4042646
DA:296,5512296
DA:299,4522900
DA:300,4522900
DA:301,4522900
DA:302,0
DA:303,0
DA:304,0
DA:305,0
DA:306,4522900
DA:307,4522900
DA:310,10936142
DA:312,10936142
DA:313,10936142
DA:314,10936142
DA:315,1856314
DA:316,1856314
DA:317,1856314
DA:318,1856314
DA:319,10936142
DA:320,10936142
DA:323,435884
DA:324,435884
DA:325,435884
DA:329,5450148
DA:330,5450148
DA:331,5450148
DA:335,9079194
DA:336,9079194
DA:337,9079194
DA:340,46375
DA:341,46375
DA:342,46375
DA:345,89632
DA:346,89632
DA:347,89632
DA:350,4142
DA:351,4142
DA:352,4142
DA:355,583383
DA:356,583383
DA:357,583383
DA:360,2406362
DA:361,12725394
DA:362,10319032
DA:363,10319032
DA:364,10319032
DA:365,10319032
DA:367,6080
DA:368,6080
DA:371,0
DA:372,0
DA:375,72
DA:376,72
DA:379,14260
DA:380,14260
DA:383,10011
DA:384,10011
DA:385,9768
DA:387,9768
DA:388,9768
DA:389,9768
DA:390,9768
DA:391,9768
DA:392,243
DA:393,243
DA:398,243
DA:399,243
DA:402,1189061
DA:403,1189061
DA:404,1189061
DA:405,1189061
DA:408,9067478
DA:409,9067478
DA:410,9067478
DA:413,32070
DA:414,32070
DA:421,10319032
DA:422,10319032
DA:423,10319032
DA:424,10319032
DA:425,2406362
DA:432,143544
DA:433,143544
DA:434,143544
DA:435,13187
DA:436,13187
DA:437,4
DA:438,13183
DA:439,6
DA:440,13177
DA:441,12
DA:442,13165
DA:443,11
DA:445,13165
DA:446,13154
DA:447,12
DA:449,41656
DA:450,42
DA:451,13100
DA:452,119
DA:453,12981
DA:455,12981
DA:456,2598
DA:457,4
DA:458,2594
DA:459,4
DA:460,2590
DA:461,4
DA:462,2586
DA:464,2586
DA:465,0
DA:466,0
DA:467,0
DA:468,0
DA:469,0
DA:470,0
DA:471,0
DA:472,0
DA:473,0
DA:474,0
DA:475,0
DA:476,0
DA:478,127759
DA:479,143544
DA:481,143326
DA:482,143326
DA:483,0
DA:484,2586
DA:485,15567
DA:486,20473
DA:487,20473
DA:488,0
DA:490,20473
DA:491,10
DA:492,20463
DA:494,26703
DA:495,26703
DA:496,0
DA:497,26703
DA:499,143316
DA:500,143326
DA:502,143326
DA:504,143316
DA:505,21
DA:507,143295
DA:508,7
DA:510,143288
DA:511,28
DA:515,143260
DA:516,143260
DA:518,143260
DA:519,143260
DA:520,74
DA:522,143186
DA:523,12
DA:525,143174
DA:526,12
DA:528,143162
DA:529,2
DA:532,143160
DA:533,22
DA:538,143138
DA:539,143138
DA:541,143138
DA:542,12961
DA:543,12961
DA:545,12961
DA:546,12961
DA:547,143138
DA:548,1833
DA:550,141305
DA:551,141305
DA:552,4366
DA:554,136939
DA:555,136939
DA:556,141305
DA:561,138754
DA:562,138754
DA:564,138754
DA:565,68948
DA:566,68948
DA:567,68948
DA:568,68948
DA:569,68948
DA:571,68948
DA:572,68948
DA:573,0
DA:574,0
DA:575,0
DA:576,0
DA:577,68948
DA:579,138754
DA:580,4030
DA:582,138754
DA:583,138754
DA:588,136939
DA:589,136939
DA:591,136939
DA:592,136939
DA:593,136939
DA:595,136939
DA:596,136939
DA:598,136939
DA:599,136939
DA:600,136939
DA:601,136939
DA:602,136939
DA:603,136939
DA:605,136939
DA:606,136939
DA:608,136939
DA:610,136939
DA:611,11614
DA:614,11614
DA:615,11614
DA:616,11614
DA:617,11614
DA:618,11614
DA:619,11614
DA:621,136939
DA:623,136939
DA:624,136939
DA:625,98352
DA:626,136939
DA:627,114025
DA:628,114025
DA:629,114025
DA:630,70326
DA:631,114025
DA:635,136939
DA:636,121859
DA:638,136939
DA:639,136939
DA:640,98352
DA:641,98352
DA:642,532
DA:643,532
DA:644,532
DA:645,532
DA:646,532
DA:647,98352
DA:649,136939
DA:651,136939
DA:653,136939
DA:654,136939
DA:655,136939
DA:656,136939
DA:657,136939
DA:660,136939
DA:662,136939
DA:663,136939
DA:666,136939
DA:667,136939
DA:670,136939
DA:672,136939
DA:673,136939
BRDA:40,0,0,136453
BRDA:40,0,1,4852
BRDA:47,0,0,0
BRDA:47,0,1,141305
BRDA:58,0,0,164915
BRDA:58,0,1,141305
BRDA:80,0,0,38827
BRDA:80,0,1,102478
BRDA:80,1,2,38824
BRDA:80,1,3,3
BRDA:94,0,0,38827
BRDA:94,0,1,102478
BRDA:94,1,2,38815
BRDA:94,1,3,12
BRDA:101,0,0,85490
BRDA:101,0,1,55815
BRDA:110,0,0,37724
BRDA:110,0,1,136939
BRDA:113,0,0,56
BRDA:113,0,1,37668
BRDA:113,1,2,196
BRDA:113,1,3,37528
BRDA:113,2,4,56
BRDA:113,2,5,140
BRDA:117,0,0,8
BRDA:117,0,1,37660
BRDA:122,0,0,68
BRDA:122,0,1,37592
BRDA:126,0,0,12
BRDA:126,0,1,37580
BRDA:137,0,0,10850
BRDA:137,0,1,26730
BRDA:138,0,0,64
BRDA:138,0,1,10786
BRDA:143,0,0,5522
BRDA:143,0,1,31994
BRDA:152,0,0,16016
BRDA:152,0,1,15978
BRDA:161,0,0,128
BRDA:161,0,1,31866
BRDA:163,0,0,44
BRDA:163,0,1,84
BRDA:174,0,0,26570
BRDA:174,0,1,5296
BRDA:191,0,0,98352
BRDA:191,0,1,38587
BRDA:194,0,0,98352
BRDA:194,0,1,38587
BRDA:214,0,0,1121384
BRDA:214,0,1,435571
BRDA:216,0,0,4070
BRDA:216,0,1,1117314
BRDA:223,0,0,400196
BRDA:223,0,1,717118
BRDA:223,1,2,399562
BRDA:223,1,3,634
BRDA:223,2,4,284999
BRDA:223,2,5,114563
BRDA:225,0,0,277961
BRDA:225,0,1,7038
BRDA:239,0,0,47469
BRDA:239,0,1,784846
BRDA:242,0,0,1784184
BRDA:242,0,1,832315
BRDA:244,0,0,490754
BRDA:244,0,1,1293430
BRDA:262,0,0,51707313
BRDA:262,0,1,3132523
BRDA:264,0,0,712983
BRDA:264,0,1,2419540
BRDA:281,0,0,9407127
BRDA:281,0,1,403820
BRDA:289,0,0,72
BRDA:289,0,1,5512296
BRDA:291,0,0,1469650
BRDA:291,0,1,4042646
BRDA:293,0,0,262325
BRDA:293,0,1,3780321
BRDA:301,0,0,1902812
BRDA:301,0,1,2620088
BRDA:301,1,2,0
BRDA:301,1,3,1902812
BRDA:314,0,0,1856314
BRDA:314,0,1,9079828
BRDA:361,0,0,10319032
BRDA:361,0,1,2406362
BRDA:384,0,0,9768
BRDA:384,0,1,243
BRDA:435,0,0,13187
BRDA:435,0,1,130357
BRDA:436,0,0,4
BRDA:436,0,1,13183
BRDA:438,0,0,6
BRDA:438,0,1,13177
BRDA:440,0,0,12
BRDA:440,0,1,13165
BRDA:442,0,0,5086
BRDA:442,0,1,8079
BRDA:442,1,2,11
BRDA:442,1,3,5075
BRDA:446,0,0,12
BRDA:446,0,1,13142
BRDA:449,0,0,42
BRDA:449,0,1,13100
BRDA:451,0,0,119
BRDA:451,0,1,12981
BRDA:455,0,0,2598
BRDA:455,0,1,140946
BRDA:456,0,0,4
BRDA:456,0,1,2594
BRDA:458,0,0,4
BRDA:458,0,1,2590
BRDA:460,0,0,4
BRDA:460,0,1,2586
BRDA:464,0,0,0
BRDA:464,0,1,143544
BRDA:465,0,0,-
BRDA:465,0,1,-
BRDA:467,0,0,-
BRDA:467,0,1,-
BRDA:469,0,0,-
BRDA:469,0,1,-
BRDA:471,0,0,-
BRDA:471,0,1,-
BRDA:474,0,0,-
BRDA:474,0,1,-
BRDA:478,0,0,127759
BRDA:478,0,1,15785
BRDA:481,0,0,143326
BRDA:481,0,1,0
BRDA:483,0,0,0
BRDA:483,0,1,143326
BRDA:484,0,0,2586
BRDA:484,0,1,140740
BRDA:485,0,0,12981
BRDA:485,0,1,130345
BRDA:486,0,0,4906
BRDA:486,0,1,138420
BRDA:487,0,0,0
BRDA:487,0,1,20473
BRDA:490,0,0,10
BRDA:490,0,1,20463
BRDA:494,0,0,6240
BRDA:494,0,1,137086
BRDA:495,0,0,0
BRDA:495,0,1,26703
BRDA:499,0,0,116613
BRDA:499,0,1,26713
BRDA:504,0,0,43728
BRDA:504,0,1,99588
BRDA:504,1,2,21
BRDA:504,1,3,43707
BRDA:507,0,0,7
BRDA:507,0,1,143288
BRDA:510,0,0,28
BRDA:510,0,1,143260
BRDA:518,0,0,120
BRDA:518,0,1,143140
BRDA:518,1,2,74
BRDA:518,1,3,143186
BRDA:519,0,0,74
BRDA:519,0,1,46
BRDA:522,0,0,12
BRDA:522,0,1,143174
BRDA:525,0,0,12
BRDA:525,0,1,143162
BRDA:528,0,0,2
BRDA:528,0,1,143160
BRDA:532,0,0,126748
BRDA:532,0,1,16412
BRDA:532,1,2,39077
BRDA:532,1,3,87671
BRDA:532,2,4,22
BRDA:532,2,5,39055
BRDA:541,0,0,12961
BRDA:541,0,1,130177
BRDA:547,0,0,1833
BRDA:547,0,1,141305
BRDA:551,0,0,4366
BRDA:551,0,1,136939
BRDA:564,0,0,68948
BRDA:564,0,1,69806
BRDA:572,0,0,0
BRDA:572,0,1,68948
BRDA:579,0,0,4030
BRDA:579,0,1,138754
BRDA:598,0,0,127595
BRDA:598,0,1,9344
BRDA:610,0,0,11614
BRDA:610,0,1,125325
BRDA:624,0,0,98352
BRDA:624,0,1,38587
BRDA:626,0,0,114025
BRDA:626,0,1,136939
BRDA:629,0,0,70326
BRDA:629,0,1,114025
BRDA:635,0,0,121859
BRDA:635,0,1,15080
BRDA:639,0,0,98352
BRDA:639,0,1,38587
BRDA:641,0,0,532
BRDA:641,0,1,97820
BRDA:653,0,0,127595
BRDA:653,0,1,9344
BRF:204
BRH:186
LF:465
LH:439
end_of_record
SF:/home/builder/project/test/state/state.hpp
FN:77,_ZN6evmone5state5StateC2ERKNS0_9StateViewE
FN:103,_ZNK6evmone5state5State10checkpointEv
FNDA:435587,_ZN6evmone5state5StateC2ERKNS0_9StateViewE
FNDA:4304779,_ZNK6evmone5state5State10checkpointEv
FNF:2
FNH:2
DA:77,435587
DA:103,4304779
BRF:0
BRH:0
LF:2
LH:2
end_of_record
SF:/home/builder/project/test/state/state_view.hpp
FN:28,_ZN6evmone5state9StateViewD2Ev
FN:39,_ZN6evmone5state11BlockHashesD2Ev
FNDA:1457907,_ZN6evmone5state9StateViewD2Ev
FNDA:321588,_ZN6evmone5state11BlockHashesD2Ev
FNF:2
FNH:2
DA:28,1457907
DA:39,321588
BRF:0
BRH:0
LF:2
LH:2
end_of_record
SF:/home/builder/project/test/state/system_contracts.cpp
FN:87,_ZN6evmone5state23system_call_block_startERKNS0_9StateViewERKNS0_9BlockInfoERKNS0_11BlockHashesE13evmc_revisionRN4evmc2VME
FN:111,_ZN6evmone5state21system_call_block_endERKNS0_9StateViewERKNS0_9BlockInfoERKNS0_11BlockHashesE13evmc_revisionRN4evmc2VME
FN:36,system_contracts.cpp:_ZNK6evmone5state12_GLOBAL__N_13$_1clERKNS0_9BlockInfoERKNS0_11BlockHashesE
FN:40,system_contracts.cpp:_ZNK6evmone5state12_GLOBAL__N_13$_2clERKNS0_9BlockInfoERKNS0_11BlockHashesE
FN:69,system_contracts.cpp:_ZN6evmone5state12_GLOBAL__N_119execute_system_callERNS0_5StateERKNS0_9BlockInfoERKNS0_11BlockHashesE13evmc_revisionRN4evmc2VMERKNSB_7addressESt17basic_string_viewIhNSB_11byte_traitsIhEEESK_
FN:59,system_contracts.cpp:_ZNK6evmone5state12_GLOBAL__N_13$_0clINS1_21StorageSystemContractES4_EEDaRKT_RKT0_
FN:59,system_contracts.cpp:_ZNK6evmone5state12_GLOBAL__N_13$_0clINS1_22RequestsSystemContractES4_EEDaRKT_RKT0_
FNDA:79949,_ZN6evmone5state23system_call_block_startERKNS0_9StateViewERKNS0_9BlockInfoERKNS0_11BlockHashesE13evmc_revisionRN4evmc2VME
FNDA:79945,_ZN6evmone5state21system_call_block_endERKNS0_9StateViewERKNS0_9BlockInfoERKNS0_11BlockHashesE13evmc_revisionRN4evmc2VME
FNDA:64614,system_contracts.cpp:_ZNK6evmone5state12_GLOBAL__N_13$_1clERKNS0_9BlockInfoERKNS0_11BlockHashesE
FNDA:45458,system_contracts.cpp:_ZNK6evmone5state12_GLOBAL__N_13$_2clERKNS0_9BlockInfoERKNS0_11BlockHashesE
FNDA:200980,system_contracts.cpp:_ZN6evmone5state12_GLOBAL__N_119execute_system_callERNS0_5StateERKNS0_9BlockInfoERKNS0_11BlockHashesE13evmc_revisionRN4evmc2VMERKNSB_7addressESt17basic_string_viewIhNSB_11byte_traitsIhEEESK_
FNDA:0,system_contracts.cpp:_ZNK6evmone5state12_GLOBAL__N_13$_0clINS1_21StorageSystemContractES4_EEDaRKT_RKT0_
FNDA:0,system_contracts.cpp:_ZNK6evmone5state12_GLOBAL__N_13$_0clINS1_22RequestsSystemContractES4_EEDaRKT_RKT0_
FNF:6
FNH:5
DA:36,64614
DA:37,64614
DA:38,64614
DA:40,45458
DA:41,45458
DA:42,45458
DA:59,0
DA:69,200980
DA:70,200980
DA:71,200980
DA:72,200980
DA:73,200980
DA:74,200980
DA:75,200980
DA:76,200980
DA:77,200980
DA:79,200980
DA:80,200980
DA:81,200980
DA:82,200980
DA:87,79949
DA:88,79949
DA:89,79949
DA:90,144565
DA:91,144565
DA:92,34485
DA:96,110080
DA:97,110080
DA:98,8
DA:100,110072
DA:101,110072
DA:102,110072
DA:103,110072
DA:104,110072
DA:106,79949
DA:107,79949
DA:111,79945
DA:112,79945
DA:113,79945
DA:114,79945
DA:115,125397
DA:116,125397
DA:117,34485
DA:119,90912
DA:120,90912
DA:121,4
DA:123,90908
DA:124,90908
DA:125,12
DA:126,90896
DA:127,90896
DA:128,79929
DA:129,79945
BRDA:89,0,0,144565
BRDA:89,0,1,45464
BRDA:91,0,0,34485
BRDA:91,0,1,110080
BRDA:97,0,0,8
BRDA:97,0,1,110072
BRDA:114,0,0,125397
BRDA:114,0,1,45444
BRDA:116,0,0,34485
BRDA:116,0,1,90912
BRDA:120,0,0,4
BRDA:120,0,1,90908
BRDA:124,0,0,12
BRDA:124,0,1,90896
BRF:14
BRH:14
LF:53
LH:52
end_of_record
SF:/home/builder/project/test/state/test_state.cpp
FN:11,_ZNK6evmone4test9TestState11get_accountERKN4evmc7addressE
FN:22,_ZNK6evmone4test9TestState16get_account_codeB5cxx11ERKN4evmc7addressE
FN:31,_ZN6evmone4test9TestState5applyERKNS_5state9StateDiffE
FN:53,_ZNK6evmone4test9TestState11get_storageERKN4evmc7addressERKNS2_7bytes32E
FN:63,_ZNK6evmone4test15TestBlockHashes14get_block_hashEl
FN:77,_ZN6evmone4test10transitionERNS0_9TestStateERKNS_5state9BlockInfoERKNS3_11BlockHashesERKNS3_11TransactionE13evmc_revisionRN4evmc2VMEll
FN:92,_ZN6evmone4test8finalizeERNS0_9TestStateE13evmc_revisionRKN4evmc7addressESt8optionalImESt4spanIKNS_5state5OmmerELm18446744073709551615EESA_IKNSB_10WithdrawalELm18446744073709551615EE
FN:99,_ZN6evmone4test23system_call_block_startERNS0_9TestStateERKNS_5state9BlockInfoERKNS3_11BlockHashesE13evmc_revisionRN4evmc2VME
FN:107,_ZN6evmone4test21system_call_block_endERNS0_9TestStateERKNS_5state9BlockInfoERKNS3_11BlockHashesE13evmc_revisionRN4evmc2VME
FNDA:3275783,_ZNK6evmone4test9TestState11get_accountERKN4evmc7addressE
FNDA:463437,_ZNK6evmone4test9TestState16get_account_codeB5cxx11ERKN4evmc7addressE
FNDA:435571,_ZN6evmone4test9TestState5applyERKNS_5state9StateDiffE
FNDA:1856314,_ZNK6evmone4test9TestState11get_storageERKN4evmc7addressERKNS2_7bytes32E
FNDA:115105,_ZNK6evmone4test15TestBlockHashes14get_block_hashEl
FNDA:143544,_ZN6evmone4test10transitionERNS0_9TestStateERKNS_5state9BlockInfoERKNS3_11BlockHashesERKNS3_11TransactionE13evmc_revisionRN4evmc2VMEll
FNDA:138754,_ZN6evmone4test8finalizeERNS0_9TestStateE13evmc_revisionRKN4evmc7addressESt8optionalImESt4spanIKNS_5state5OmmerELm18446744073709551615EESA_IKNSB_10WithdrawalELm18446744073709551615EE
FNDA:79949,_ZN6evmone4test23system_call_block_startERNS0_9TestStateERKNS_5state9BlockInfoERKNS3_11BlockHashesE13evmc_revisionRN4evmc2VME
FNDA:79945,_ZN6evmone4test21system_call_block_endERNS0_9TestStateERKNS_5state9BlockInfoERKNS3_11BlockHashesE13evmc_revisionRN4evmc2VME
FNF:9
FNH:9
DA:11,3275783
DA:12,3275783
DA:13,3275783
DA:14,2420116
DA:16,855667
DA:18,855667
DA:19,3275783
DA:22,463437
DA:23,463437
DA:24,463437
DA:25,7
DA:27,463430
DA:28,463437
DA:31,435571
DA:32,435571
DA:33,832315
DA:34,832315
DA:35,832315
DA:36,832315
DA:37,832315
DA:38,47469
DA:39,832315
DA:40,490754
DA:41,490754
DA:42,448250
DA:43,42504
DA:44,42504
DA:45,490754
DA:46,832315
DA:48,435571
DA:49,282031
DA:50,435571
DA:53,1856314
DA:54,1856314
DA:55,1856314
DA:56,290437
DA:57,1565877
DA:58,1565877
DA:59,1565877
DA:60,1856314
DA:63,115105
DA:64,115105
DA:65,115105
DA:69,0
DA:70,0
DA:71,115105
DA:77,143544
DA:78,143544
DA:79,143544
DA:80,143544
DA:81,6605
DA:83,136939
DA:84,136939
DA:85,136939
DA:86,136939
DA:87,143544
DA:92,138754
DA:93,138754
DA:94,138754
DA:95,138754
DA:99,79949
DA:100,79949
DA:101,79949
DA:102,79949
DA:107,79945
DA:108,79945
DA:109,79945
DA:110,16
DA:111,79929
DA:112,79929
DA:113,79945
BRDA:13,0,0,2420116
BRDA:13,0,1,855667
BRDA:24,0,0,7
BRDA:24,0,1,463430
BRDA:32,0,0,832315
BRDA:32,0,1,435571
BRDA:37,0,0,47469
BRDA:37,0,1,784846
BRDA:39,0,0,490754
BRDA:39,0,1,832315
BRDA:41,0,0,448250
BRDA:41,0,1,42504
BRDA:48,0,0,282031
BRDA:48,0,1,435571
BRDA:55,0,0,290437
BRDA:55,0,1,1565877
BRDA:59,0,0,141373
BRDA:59,0,1,1424504
BRDA:64,0,0,115105
BRDA:64,0,1,0
BRDA:80,0,0,6605
BRDA:80,0,1,136939
BRDA:109,0,0,16
BRDA:109,0,1,79929
BRF:24
BRH:23
LF:71
LH:69
end_of_record
SF:/home/builder/project/test/state/test_state.hpp
FN:63,_ZN6evmone4test9TestState6insertERKN4evmc7addressEONS0_11TestAccountE
FN:70,_ZN6evmone4test9TestState3getERKN4evmc7addressE
FN:41,_ZNK6evmone4test11TestAccounteqERKS1_
FNDA:0,_ZN6evmone4test9TestState6insertERKN4evmc7addressEONS0_11TestAccountE
FNDA:0,_ZN6evmone4test9TestState3getERKN4evmc7addressE
FNDA:0,_ZNK6evmone4test11TestAccounteqERKS1_
FNF:3
FNH:0
DA:41,0
DA:63,0
DA:70,0
BRF:0
BRH:0
LF:3
LH:0
end_of_record
SF:/home/builder/project/test/state/transaction.cpp
FN:13,_ZN6evmone5state10rlp_encodeB5cxx11ERKNS0_3LogE
FN:18,_ZN6evmone5state10rlp_encodeB5cxx11ERKNS0_11TransactionE
FN:86,_ZN6evmone5state10rlp_encodeB5cxx11ERKNS0_18TransactionReceiptE
FN:108,_ZN6evmone5state10rlp_encodeB5cxx11ERKNS0_13AuthorizationE
FNDA:27323,_ZN6evmone5state10rlp_encodeB5cxx11ERKNS0_3LogE
FNDA:164787,_ZN6evmone5state10rlp_encodeB5cxx11ERKNS0_11TransactionE
FNDA:80048,_ZN6evmone5state10rlp_encodeB5cxx11ERKNS0_18TransactionReceiptE
FNDA:43535,_ZN6evmone5state10rlp_encodeB5cxx11ERKNS0_13AuthorizationE
FNF:4
FNH:4
DA:13,27323
DA:14,27323
DA:15,27323
DA:18,164787
DA:20,164787
DA:23,164787
DA:24,133880
DA:26,133880
DA:27,133880
DA:28,133880
DA:29,30907
DA:30,5075
DA:33,5075
DA:34,5075
DA:35,5075
DA:36,5075
DA:37,5075
DA:38,5075
DA:39,25832
DA:40,4753
DA:44,4753
DA:45,4753
DA:46,4753
DA:47,4753
DA:48,4753
DA:49,4753
DA:50,21079
DA:51,18496
DA:55,18496
DA:56,18496
DA:57,18496
DA:58,18496
DA:59,18496
DA:60,18496
DA:61,2583
DA:62,2583
DA:66,2583
DA:67,2583
DA:68,2583
DA:69,2583
DA:70,2583
DA:71,2583
DA:72,0
DA:73,0
DA:77,0
DA:78,0
DA:79,0
DA:80,0
DA:81,0
DA:82,0
DA:83,164787
DA:86,80048
DA:87,80048
DA:88,1477
DA:89,1477
DA:91,1477
DA:92,1477
DA:93,1477
DA:94,1477
DA:95,78571
DA:96,78571
DA:97,78571
DA:98,65367
DA:99,78571
DA:101,78571
DA:102,78571
DA:103,78571
DA:104,78571
DA:105,80048
DA:108,43535
DA:109,43535
DA:110,43535
DA:111,43535
BRDA:23,0,0,133880
BRDA:23,0,1,30907
BRDA:27,0,0,95571
BRDA:27,0,1,38309
BRDA:29,0,0,5075
BRDA:29,0,1,25832
BRDA:36,0,0,4655
BRDA:36,0,1,420
BRDA:39,0,0,4753
BRDA:39,0,1,21079
BRDA:47,0,0,4559
BRDA:47,0,1,194
BRDA:50,0,0,18496
BRDA:50,0,1,2583
BRDA:58,0,0,18493
BRDA:58,0,1,3
BRDA:61,0,0,2583
BRDA:61,0,1,0
BRDA:69,0,0,2581
BRDA:69,0,1,2
BRDA:80,0,0,-
BRDA:80,0,1,-
BRDA:87,0,0,1477
BRDA:87,0,1,78571
BRDA:97,0,0,65367
BRDA:97,0,1,13204
BRF:26
BRH:23
LF:73
LH:65
end_of_record
SF:/home/builder/project/test/state/transaction.hpp
FN:68,_ZNK6evmone5state11Transaction13blob_gas_usedEv
FNDA:118852,_ZNK6evmone5state11Transaction13blob_gas_usedEv
FNF:1
FNH:1
DA:68,118852
BRF:0
BRH:0
LF:1
LH:1
end_of_record
