SF:/home/user/sources/ethereum/evmone/include/evmmax/evmmax.hpp
FN:67,_ZNK6evmmax8ModArithIN4intx4uintILj256EEEE7to_montERKS3_
FN:81,_ZNK6evmmax8ModArithIN4intx4uintILj256EEEE3mulERKS3_S6_
FN:51,_ZN6evmmax8ModArithIN4intx4uintILj256EEEE6addmulEmmmm
FN:73,_ZNK6evmmax8ModArithIN4intx4uintILj256EEEE9from_montERKS3_
FN:128,_ZNK6evmmax8ModArithIN4intx4uintILj256EEEE3subERKS3_S6_
FN:119,_ZNK6evmmax8ModArithIN4intx4uintILj256EEEE3addERKS3_S6_
FN:137,_ZNK6evmmax8ModArithIN4intx4uintILj256EEEE3invERKS3_
FN:15,_ZN6evmmax15compute_mod_invEm
FN:42,_ZN6evmmax8ModArithIN4intx4uintILj256EEEE17compute_r_squaredERKS3_
FN:58,_ZN6evmmax8ModArithIN4intx4uintILj128EEEEC2ERKS3_
FN:42,_ZN6evmmax8ModArithIN4intx4uintILj128EEEE17compute_r_squaredERKS3_
FN:67,_ZNK6evmmax8ModArithIN4intx4uintILj128EEEE7to_montERKS3_
FN:81,_ZNK6evmmax8ModArithIN4intx4uintILj128EEEE3mulERKS3_S6_
FN:51,_ZN6evmmax8ModArithIN4intx4uintILj128EEEE6addmulEmmmm
FN:73,_ZNK6evmmax8ModArithIN4intx4uintILj128EEEE9from_montERKS3_
FN:58,_ZN6evmmax8ModArithIN4intx4uintILj256EEEEC2ERKS3_
FN:58,_ZN6evmmax8ModArithIN4intx4uintILj512EEEEC2ERKS3_
FN:42,_ZN6evmmax8ModArithIN4intx4uintILj512EEEE17compute_r_squaredERKS3_
FN:67,_ZNK6evmmax8ModArithIN4intx4uintILj512EEEE7to_montERKS3_
FN:81,_ZNK6evmmax8ModArithIN4intx4uintILj512EEEE3mulERKS3_S6_
FN:51,_ZN6evmmax8ModArithIN4intx4uintILj512EEEE6addmulEmmmm
FN:73,_ZNK6evmmax8ModArithIN4intx4uintILj512EEEE9from_montERKS3_
FN:58,_ZN6evmmax8ModArithIN4intx4uintILj1024EEEEC2ERKS3_
FN:42,_ZN6evmmax8ModArithIN4intx4uintILj1024EEEE17compute_r_squaredERKS3_
FN:67,_ZNK6evmmax8ModArithIN4intx4uintILj1024EEEE7to_montERKS3_
FN:81,_ZNK6evmmax8ModArithIN4intx4uintILj1024EEEE3mulERKS3_S6_
FN:51,_ZN6evmmax8ModArithIN4intx4uintILj1024EEEE6addmulEmmmm
FN:73,_ZNK6evmmax8ModArithIN4intx4uintILj1024EEEE9from_montERKS3_
FN:58,_ZN6evmmax8ModArithIN4intx4uintILj2048EEEEC2ERKS3_
FN:42,_ZN6evmmax8ModArithIN4intx4uintILj2048EEEE17compute_r_squaredERKS3_
FN:67,_ZNK6evmmax8ModArithIN4intx4uintILj2048EEEE7to_montERKS3_
FN:81,_ZNK6evmmax8ModArithIN4intx4uintILj2048EEEE3mulERKS3_S6_
FN:51,_ZN6evmmax8ModArithIN4intx4uintILj2048EEEE6addmulEmmmm
FN:73,_ZNK6evmmax8ModArithIN4intx4uintILj2048EEEE9from_montERKS3_
FN:58,_ZN6evmmax8ModArithIN4intx4uintILj8192EEEEC2ERKS3_
FN:42,_ZN6evmmax8ModArithIN4intx4uintILj8192EEEE17compute_r_squaredERKS3_
FN:67,_ZNK6evmmax8ModArithIN4intx4uintILj8192EEEE7to_montERKS3_
FN:81,_ZNK6evmmax8ModArithIN4intx4uintILj8192EEEE3mulERKS3_S6_
FN:51,_ZN6evmmax8ModArithIN4intx4uintILj8192EEEE6addmulEmmmm
FN:73,_ZNK6evmmax8ModArithIN4intx4uintILj8192EEEE9from_montERKS3_
FNDA:56610,_ZNK6evmmax8ModArithIN4intx4uintILj256EEEE7to_montERKS3_
FNDA:42155888,_ZNK6evmmax8ModArithIN4intx4uintILj256EEEE3mulERKS3_S6_
FNDA:1348988416,_ZN6evmmax8ModArithIN4intx4uintILj256EEEE6addmulEmmmm
FNDA:21426,_ZNK6evmmax8ModArithIN4intx4uintILj256EEEE9from_montERKS3_
FNDA:24968102,_ZNK6evmmax8ModArithIN4intx4uintILj256EEEE3subERKS3_S6_
FNDA:40422678,_ZNK6evmmax8ModArithIN4intx4uintILj256EEEE3addERKS3_S6_
FNDA:8966,_ZNK6evmmax8ModArithIN4intx4uintILj256EEEE3invERKS3_
FNDA:3843,_ZN6evmmax15compute_mod_invEm
FNDA:2338,_ZN6evmmax8ModArithIN4intx4uintILj256EEEE17compute_r_squaredERKS3_
FNDA:598,_ZN6evmmax8ModArithIN4intx4uintILj128EEEEC2ERKS3_
FNDA:598,_ZN6evmmax8ModArithIN4intx4uintILj128EEEE17compute_r_squaredERKS3_
FNDA:1196,_ZNK6evmmax8ModArithIN4intx4uintILj128EEEE7to_montERKS3_
FNDA:259802,_ZNK6evmmax8ModArithIN4intx4uintILj128EEEE3mulERKS3_S6_
FNDA:2078416,_ZN6evmmax8ModArithIN4intx4uintILj128EEEE6addmulEmmmm
FNDA:598,_ZNK6evmmax8ModArithIN4intx4uintILj128EEEE9from_montERKS3_
FNDA:2338,_ZN6evmmax8ModArithIN4intx4uintILj256EEEEC2ERKS3_
FNDA:573,_ZN6evmmax8ModArithIN4intx4uintILj512EEEEC2ERKS3_
FNDA:573,_ZN6evmmax8ModArithIN4intx4uintILj512EEEE17compute_r_squaredERKS3_
FNDA:1146,_ZNK6evmmax8ModArithIN4intx4uintILj512EEEE7to_montERKS3_
FNDA:74786,_ZNK6evmmax8ModArithIN4intx4uintILj512EEEE3mulERKS3_S6_
FNDA:9572608,_ZN6evmmax8ModArithIN4intx4uintILj512EEEE6addmulEmmmm
FNDA:573,_ZNK6evmmax8ModArithIN4intx4uintILj512EEEE9from_montERKS3_
FNDA:64,_ZN6evmmax8ModArithIN4intx4uintILj1024EEEEC2ERKS3_
FNDA:64,_ZN6evmmax8ModArithIN4intx4uintILj1024EEEE17compute_r_squaredERKS3_
FNDA:128,_ZNK6evmmax8ModArithIN4intx4uintILj1024EEEE7to_montERKS3_
FNDA:1262,_ZNK6evmmax8ModArithIN4intx4uintILj1024EEEE3mulERKS3_S6_
FNDA:646144,_ZN6evmmax8ModArithIN4intx4uintILj1024EEEE6addmulEmmmm
FNDA:64,_ZNK6evmmax8ModArithIN4intx4uintILj1024EEEE9from_montERKS3_
FNDA:92,_ZN6evmmax8ModArithIN4intx4uintILj2048EEEEC2ERKS3_
FNDA:92,_ZN6evmmax8ModArithIN4intx4uintILj2048EEEE17compute_r_squaredERKS3_
FNDA:184,_ZNK6evmmax8ModArithIN4intx4uintILj2048EEEE7to_montERKS3_
FNDA:44970,_ZNK6evmmax8ModArithIN4intx4uintILj2048EEEE3mulERKS3_S6_
FNDA:92098560,_ZN6evmmax8ModArithIN4intx4uintILj2048EEEE6addmulEmmmm
FNDA:92,_ZNK6evmmax8ModArithIN4intx4uintILj2048EEEE9from_montERKS3_
FNDA:178,_ZN6evmmax8ModArithIN4intx4uintILj8192EEEEC2ERKS3_
FNDA:178,_ZN6evmmax8ModArithIN4intx4uintILj8192EEEE17compute_r_squaredERKS3_
FNDA:356,_ZNK6evmmax8ModArithIN4intx4uintILj8192EEEE7to_montERKS3_
FNDA:2626,_ZNK6evmmax8ModArithIN4intx4uintILj8192EEEE3mulERKS3_S6_
FNDA:86048768,_ZN6evmmax8ModArithIN4intx4uintILj8192EEEE6addmulEmmmm
FNDA:178,_ZNK6evmmax8ModArithIN4intx4uintILj8192EEEE9from_montERKS3_
FNF:10
FNH:10
DA:15,3843
DA:17,3843
DA:18,3843
DA:19,249795
DA:20,245952
DA:21,245952
DA:22,245952
DA:23,245952
DA:24,3843
DA:25,3843
DA:42,3843
DA:45,3843
DA:46,3843
DA:47,3843
DA:51,1539432912
DA:52,1539432912
DA:53,1539432912
DA:54,1539432912
DA:58,3843
DA:59,3843
DA:60,3843
DA:61,3843
DA:67,59620
DA:73,22931
DA:81,42539334
DA:87,42539334
DA:89,42539334
DA:90,214076138
DA:91,171536804
DA:92,171536804
DA:93,171536804
DA:94,941253260
DA:95,769716456
DA:96,171536804
DA:97,171536804
DA:98,171536804
DA:100,171536804
DA:101,171536804
DA:102,171536804
DA:103,769716456
DA:104,598179652
DA:105,171536804
DA:106,171536804
DA:107,171536804
DA:108,171536804
DA:110,42539334
DA:111,3860376
DA:113,42539334
DA:114,42539334
DA:119,40422678
DA:120,40422678
DA:121,40422678
DA:122,40422678
DA:123,40422678
DA:128,24968102
DA:129,24968102
DA:130,24968102
DA:131,24968102
DA:132,24968102
DA:137,8966
DA:138,8966
DA:139,8966
DA:145,8966
DA:153,8966
DA:154,8966
DA:160,8966
DA:161,8966
DA:163,2214718
DA:164,2205752
DA:165,2205752
DA:166,1198412
DA:168,1198412
DA:169,629544
DA:171,629544
DA:172,629544
DA:174,629544
DA:175,629544
DA:176,629544
DA:177,568868
DA:178,568868
DA:179,568868
DA:180,568868
DA:181,1198412
DA:182,1198412
DA:185,2205752
DA:189,2205752
DA:190,2205752
DA:191,2205752
DA:192,1096772
DA:193,2205752
DA:195,8966
DA:196,2656
DA:197,6310
DA:198,8966
BRDA:19,0,0,245952
BRDA:19,0,1,3843
BRDA:90,0,0,20192
BRDA:90,0,1,1262
BRDA:90,1,2,168623552
BRDA:90,1,3,42155888
BRDA:90,2,4,598288
BRDA:90,2,5,74786
BRDA:90,3,6,336128
BRDA:90,3,7,2626
BRDA:90,4,8,519604
BRDA:90,4,9,259802
BRDA:90,5,10,1439040
BRDA:90,5,11,44970
BRDA:94,0,0,674494208
BRDA:94,0,1,168623552
BRDA:94,1,2,323072
BRDA:94,1,3,20192
BRDA:94,2,4,4786304
BRDA:94,2,5,598288
BRDA:94,3,6,1039208
BRDA:94,3,7,519604
BRDA:94,4,8,46049280
BRDA:94,4,9,1439040
BRDA:94,5,10,43024384
BRDA:94,5,11,336128
BRDA:103,0,0,44610240
BRDA:103,0,1,1439040
BRDA:103,1,2,519604
BRDA:103,1,3,519604
BRDA:103,2,4,302880
BRDA:103,2,5,20192
BRDA:103,3,6,42688256
BRDA:103,3,7,336128
BRDA:103,4,8,4188016
BRDA:103,4,9,598288
BRDA:103,5,10,505870656
BRDA:103,5,11,168623552
BRDA:110,0,0,140
BRDA:110,0,1,1122
BRDA:110,1,2,322
BRDA:110,1,3,44648
BRDA:110,2,4,72
BRDA:110,2,5,2554
BRDA:110,3,6,280
BRDA:110,3,7,74506
BRDA:110,4,8,210
BRDA:110,4,9,259592
BRDA:110,5,10,3859352
BRDA:110,5,11,38296536
BRDA:122,0,0,34605920
BRDA:122,0,1,5816758
BRDA:122,1,2,21656966
BRDA:122,1,3,12948954
BRDA:131,0,0,11698296
BRDA:131,0,1,13269806
BRDA:163,0,0,2205752
BRDA:163,0,1,8966
BRDA:165,0,0,1198412
BRDA:165,0,1,1007340
BRDA:168,0,0,629544
BRDA:168,0,1,568868
BRDA:191,0,0,1096772
BRDA:191,0,1,1108980
BRDA:195,0,0,2656
BRDA:195,0,1,6310
BRF:26
BRH:26
LF:94
LH:94
end_of_record
SF:/home/user/sources/ethereum/evmone/lib/evmone/baseline.hpp
FN:24,_ZN6evmone10BitsetSpanC2EPm
FN:27,_ZNK6evmone10BitsetSpan4testEm
FN:33,_ZNK6evmone10BitsetSpan3setEm
FN:46,_ZNK6evmone10BitsetSpan7get_refEm
FN:71,_ZN6evmone8baseline12CodeAnalysisC2ESt10unique_ptrIA_hSt14default_deleteIS3_EEmNS_10BitsetSpanE
FN:79,_ZNK6evmone8baseline12CodeAnalysis8raw_codeEv
FN:82,_ZNK6evmone8baseline12CodeAnalysis15executable_codeEv
FN:86,_ZNK6evmone8baseline12CodeAnalysis14check_jumpdestEm
FNDA:2785059,_ZN6evmone10BitsetSpanC2EPm
FNDA:7166478,_ZNK6evmone10BitsetSpan4testEm
FNDA:89658266,_ZNK6evmone10BitsetSpan3setEm
FNDA:96824744,_ZNK6evmone10BitsetSpan7get_refEm
FNDA:2785059,_ZN6evmone8baseline12CodeAnalysisC2ESt10unique_ptrIA_hSt14default_deleteIS3_EEmNS_10BitsetSpanE
FNDA:2785059,_ZNK6evmone8baseline12CodeAnalysis8raw_codeEv
FNDA:15637076,_ZNK6evmone8baseline12CodeAnalysis15executable_codeEv
FNDA:7166556,_ZNK6evmone8baseline12CodeAnalysis14check_jumpdestEm
FNF:8
FNH:8
DA:24,2785059
DA:27,7166478
DA:28,7166478
DA:29,7166478
DA:30,7166478
DA:33,89658266
DA:34,89658266
DA:35,89658266
DA:36,89658266
DA:46,96824744
DA:47,96824744
DA:48,96824744
DA:49,96824744
DA:50,96824744
DA:51,96824744
DA:71,2785059
DA:72,2785059
DA:73,2785059
DA:74,2785059
DA:75,2785059
DA:79,2785059
DA:82,15637076
DA:86,7166556
DA:87,7166556
DA:88,78
DA:89,7166478
DA:90,7166556
BRDA:87,0,0,78
BRDA:87,0,1,7166478
BRF:2
BRH:2
LF:27
LH:27
end_of_record
SF:/home/user/sources/ethereum/evmone/lib/evmone/baseline_analysis.cpp
FN:64,_ZN6evmone8baseline7analyzeESt17basic_string_viewIhN4evmc11byte_traitsIhEEE
FN:36,baseline_analysis.cpp:_ZN6evmone8baseline12_GLOBAL__N_114analyze_legacyESt17basic_string_viewIhN4evmc11byte_traitsIhEEE
FN:19,baseline_analysis.cpp:_ZN6evmone8baseline12_GLOBAL__N_117analyze_jumpdestsENS_10BitsetSpanESt17basic_string_viewIhN4evmc11byte_traitsIhEEE
FNDA:2785059,_ZN6evmone8baseline7analyzeESt17basic_string_viewIhN4evmc11byte_traitsIhEEE
FNDA:2785059,baseline_analysis.cpp:_ZN6evmone8baseline12_GLOBAL__N_114analyze_legacyESt17basic_string_viewIhN4evmc11byte_traitsIhEEE
FNDA:2785059,baseline_analysis.cpp:_ZN6evmone8baseline12_GLOBAL__N_117analyze_jumpdestsENS_10BitsetSpanESt17basic_string_viewIhN4evmc11byte_traitsIhEEE
FNF:3
FNH:3
DA:19,2785059
DA:23,2785059
DA:25,387611622
DA:26,384826563
DA:27,384826563
DA:28,384826563
DA:29,70672686
DA:30,314153877
DA:31,89658266
DA:32,384826563
DA:33,2785059
DA:36,2785059
DA:40,2785059
DA:42,2785059
DA:44,2785059
DA:45,2785059
DA:46,2785059
DA:47,2785059
DA:48,2785059
DA:50,2785059
DA:51,2785059
DA:52,2785059
DA:54,2785059
DA:55,2785059
DA:56,2785059
DA:57,2785059
DA:59,2785059
DA:60,2785059
DA:64,2785059
DA:65,2785059
DA:66,2785059
BRDA:25,0,0,384826563
BRDA:25,0,1,2785059
BRDA:28,0,0,70672686
BRDA:28,0,1,314153877
BRDA:30,0,0,89658266
BRDA:30,0,1,224495611
BRF:6
BRH:6
LF:31
LH:31
end_of_record
SF:/home/user/sources/ethereum/evmone/lib/evmone/baseline_execution.cpp
FN:267,_ZN6evmone8baseline7executeERNS_2VMERK19evmc_host_interfaceP17evmc_host_context13evmc_revisionRK12evmc_messageRKNS0_12CodeAnalysisE
FN:310,_ZN6evmone8baseline7executeEP7evmc_vmPK19evmc_host_interfaceP17evmc_host_context13evmc_revisionPK12evmc_messagePKhm
FN:219,baseline_execution.cpp:_ZN6evmone8baseline12_GLOBAL__N_114dispatch_cgotoERKSt5arrayIsLm256EERNS_14ExecutionStateElPKh
FN:151,baseline_execution.cpp:_ZN6evmone8baseline12_GLOBAL__N_16invokeILNS_6OpcodeE0EEENS1_8PositionERKSt5arrayIsLm256EEPKN4intx4uintILj256EEES4_RlRNS_14ExecutionStateE
FN:46,baseline_execution.cpp:_ZN6evmone8baseline12_GLOBAL__N_118check_requirementsILNS_6OpcodeE0EEE16evmc_status_codeRKSt5arrayIsLm256EERlPKN4intx4uintILj256EEESE_
FN:140,baseline_execution.cpp:_ZN6evmone8baseline12_GLOBAL__N_16invokeEPDoFNS_10TermResultENS_8StackTopElRNS_14ExecutionStateEENS1_8PositionERlS5_
FN:151,baseline_execution.cpp:_ZN6evmone8baseline12_GLOBAL__N_16invokeILNS_6OpcodeE1EEENS1_8PositionERKSt5arrayIsLm256EEPKN4intx4uintILj256EEES4_RlRNS_14ExecutionStateE
FN:46,baseline_execution.cpp:_ZN6evmone8baseline12_GLOBAL__N_118check_requirementsILNS_6OpcodeE1EEE16evmc_status_codeRKSt5arrayIsLm256EERlPKN4intx4uintILj256EEESE_
FN:104,baseline_execution.cpp:_ZN6evmone8baseline12_GLOBAL__N_16invokeEPDoFvNS_8StackTopEENS1_8PositionERlRNS_14ExecutionStateE
FN:151,baseline_execution.cpp:_ZN6evmone8baseline12_GLOBAL__N_16invokeILNS_6OpcodeE2EEENS1_8PositionERKSt5arrayIsLm256EEPKN4intx4uintILj256EEES4_RlRNS_14ExecutionStateE
FN:46,baseline_execution.cpp:_ZN6evmone8baseline12_GLOBAL__N_118check_requirementsILNS_6OpcodeE2EEE16evmc_status_codeRKSt5arrayIsLm256EERlPKN4intx4uintILj256EEESE_
FN:151,baseline_execution.cpp:_ZN6evmone8baseline12_GLOBAL__N_16invokeILNS_6OpcodeE3EEENS1_8PositionERKSt5arrayIsLm256EEPKN4intx4uintILj256EEES4_RlRNS_14ExecutionStateE
FN:46,baseline_execution.cpp:_ZN6evmone8baseline12_GLOBAL__N_118check_requirementsILNS_6OpcodeE3EEE16evmc_status_codeRKSt5arrayIsLm256EERlPKN4intx4uintILj256EEESE_
FN:151,baseline_execution.cpp:_ZN6evmone8baseline12_GLOBAL__N_16invokeILNS_6OpcodeE4EEENS1_8PositionERKSt5arrayIsLm256EEPKN4intx4uintILj256EEES4_RlRNS_14ExecutionStateE
FN:46,baseline_execution.cpp:_ZN6evmone8baseline12_GLOBAL__N_118check_requirementsILNS_6OpcodeE4EEE16evmc_status_codeRKSt5arrayIsLm256EERlPKN4intx4uintILj256EEESE_
FN:151,baseline_execution.cpp:_ZN6evmone8baseline12_GLOBAL__N_16invokeILNS_6OpcodeE5EEENS1_8PositionERKSt5arrayIsLm256EEPKN4intx4uintILj256EEES4_RlRNS_14ExecutionStateE
FN:46,baseline_execution.cpp:_ZN6evmone8baseline12_GLOBAL__N_118check_requirementsILNS_6OpcodeE5EEE16evmc_status_codeRKSt5arrayIsLm256EERlPKN4intx4uintILj256EEESE_
FN:151,baseline_execution.cpp:_ZN6evmone8baseline12_GLOBAL__N_16invokeILNS_6OpcodeE6EEENS1_8PositionERKSt5arrayIsLm256EEPKN4intx4uintILj256EEES4_RlRNS_14ExecutionStateE
FN:46,baseline_execution.cpp:_ZN6evmone8baseline12_GLOBAL__N_118check_requirementsILNS_6OpcodeE6EEE16evmc_status_codeRKSt5arrayIsLm256EERlPKN4intx4uintILj256EEESE_
FN:151,baseline_execution.cpp:_ZN6evmone8baseline12_GLOBAL__N_16invokeILNS_6OpcodeE7EEENS1_8PositionERKSt5arrayIsLm256EEPKN4intx4uintILj256EEES4_RlRNS_14ExecutionStateE
FN:46,baseline_execution.cpp:_ZN6evmone8baseline12_GLOBAL__N_118check_requirementsILNS_6OpcodeE7EEE16evmc_status_codeRKSt5arrayIsLm256EERlPKN4intx4uintILj256EEESE_
FN:151,baseline_execution.cpp:_ZN6evmone8baseline12_GLOBAL__N_16invokeILNS_6OpcodeE8EEENS1_8PositionERKSt5arrayIsLm256EEPKN4intx4uintILj256EEES4_RlRNS_14ExecutionStateE
FN:46,baseline_execution.cpp:_ZN6evmone8baseline12_GLOBAL__N_118check_requirementsILNS_6OpcodeE8EEE16evmc_status_codeRKSt5arrayIsLm256EERlPKN4intx4uintILj256EEESE_
FN:151,baseline_execution.cpp:_ZN6evmone8baseline12_GLOBAL__N_16invokeILNS_6OpcodeE9EEENS1_8PositionERKSt5arrayIsLm256EEPKN4intx4uintILj256EEES4_RlRNS_14ExecutionStateE
FN:46,baseline_execution.cpp:_ZN6evmone8baseline12_GLOBAL__N_118check_requirementsILNS_6OpcodeE9EEE16evmc_status_codeRKSt5arrayIsLm256EERlPKN4intx4uintILj256EEESE_
FN:151,baseline_execution.cpp:_ZN6evmone8baseline12_GLOBAL__N_16invokeILNS_6OpcodeE10EEENS1_8PositionERKSt5arrayIsLm256EEPKN4intx4uintILj256EEES4_RlRNS_14ExecutionStateE
FN:46,baseline_execution.cpp:_ZN6evmone8baseline12_GLOBAL__N_118check_requirementsILNS_6OpcodeE10EEE16evmc_status_codeRKSt5arrayIsLm256EERlPKN4intx4uintILj256EEESE_
FN:112,baseline_execution.cpp:_ZN6evmone8baseline12_GLOBAL__N_16invokeEPDoFNS_6ResultENS_8StackTopElRNS_14ExecutionStateEENS1_8PositionERlS5_
FN:151,baseline_execution.cpp:_ZN6evmone8baseline12_GLOBAL__N_16invokeILNS_6OpcodeE11EEENS1_8PositionERKSt5arrayIsLm256EEPKN4intx4uintILj256EEES4_RlRNS_14ExecutionStateE
FN:46,baseline_execution.cpp:_ZN6evmone8baseline12_GLOBAL__N_118check_requirementsILNS_6OpcodeE11EEE16evmc_status_codeRKSt5arrayIsLm256EERlPKN4intx4uintILj256EEESE_
FN:151,baseline_execution.cpp:_ZN6evmone8baseline12_GLOBAL__N_16invokeILNS_6OpcodeE16EEENS1_8PositionERKSt5arrayIsLm256EEPKN4intx4uintILj256EEES4_RlRNS_14ExecutionStateE
FN:46,baseline_execution.cpp:_ZN6evmone8baseline12_GLOBAL__N_118check_requirementsILNS_6OpcodeE16EEE16evmc_status_codeRKSt5arrayIsLm256EERlPKN4intx4uintILj256EEESE_
FN:151,baseline_execution.cpp:_ZN6evmone8baseline12_GLOBAL__N_16invokeILNS_6OpcodeE17EEENS1_8PositionERKSt5arrayIsLm256EEPKN4intx4uintILj256EEES4_RlRNS_14ExecutionStateE
FN:46,baseline_execution.cpp:_ZN6evmone8baseline12_GLOBAL__N_118check_requirementsILNS_6OpcodeE17EEE16evmc_status_codeRKSt5arrayIsLm256EERlPKN4intx4uintILj256EEESE_
FN:151,baseline_execution.cpp:_ZN6evmone8baseline12_GLOBAL__N_16invokeILNS_6OpcodeE18EEENS1_8PositionERKSt5arrayIsLm256EEPKN4intx4uintILj256EEES4_RlRNS_14ExecutionStateE
FN:46,baseline_execution.cpp:_ZN6evmone8baseline12_GLOBAL__N_118check_requirementsILNS_6OpcodeE18EEE16evmc_status_codeRKSt5arrayIsLm256EERlPKN4intx4uintILj256EEESE_
FN:151,baseline_execution.cpp:_ZN6evmone8baseline12_GLOBAL__N_16invokeILNS_6OpcodeE19EEENS1_8PositionERKSt5arrayIsLm256EEPKN4intx4uintILj256EEES4_RlRNS_14ExecutionStateE
FN:46,baseline_execution.cpp:_ZN6evmone8baseline12_GLOBAL__N_118check_requirementsILNS_6OpcodeE19EEE16evmc_status_codeRKSt5arrayIsLm256EERlPKN4intx4uintILj256EEESE_
FN:151,baseline_execution.cpp:_ZN6evmone8baseline12_GLOBAL__N_16invokeILNS_6OpcodeE20EEENS1_8PositionERKSt5arrayIsLm256EEPKN4intx4uintILj256EEES4_RlRNS_14ExecutionStateE
FN:46,baseline_execution.cpp:_ZN6evmone8baseline12_GLOBAL__N_118check_requirementsILNS_6OpcodeE20EEE16evmc_status_codeRKSt5arrayIsLm256EERlPKN4intx4uintILj256EEESE_
FN:151,baseline_execution.cpp:_ZN6evmone8baseline12_GLOBAL__N_16invokeILNS_6OpcodeE21EEENS1_8PositionERKSt5arrayIsLm256EEPKN4intx4uintILj256EEES4_RlRNS_14ExecutionStateE
FN:46,baseline_execution.cpp:_ZN6evmone8baseline12_GLOBAL__N_118check_requirementsILNS_6OpcodeE21EEE16evmc_status_codeRKSt5arrayIsLm256EERlPKN4intx4uintILj256EEESE_
FN:151,baseline_execution.cpp:_ZN6evmone8baseline12_GLOBAL__N_16invokeILNS_6OpcodeE22EEENS1_8PositionERKSt5arrayIsLm256EEPKN4intx4uintILj256EEES4_RlRNS_14ExecutionStateE
FN:46,baseline_execution.cpp:_ZN6evmone8baseline12_GLOBAL__N_118check_requirementsILNS_6OpcodeE22EEE16evmc_status_codeRKSt5arrayIsLm256EERlPKN4intx4uintILj256EEESE_
FN:151,baseline_execution.cpp:_ZN6evmone8baseline12_GLOBAL__N_16invokeILNS_6OpcodeE23EEENS1_8PositionERKSt5arrayIsLm256EEPKN4intx4uintILj256EEES4_RlRNS_14ExecutionStateE
FN:46,baseline_execution.cpp:_ZN6evmone8baseline12_GLOBAL__N_118check_requirementsILNS_6OpcodeE23EEE16evmc_status_codeRKSt5arrayIsLm256EERlPKN4intx4uintILj256EEESE_
FN:151,baseline_execution.cpp:_ZN6evmone8baseline12_GLOBAL__N_16invokeILNS_6OpcodeE24EEENS1_8PositionERKSt5arrayIsLm256EEPKN4intx4uintILj256EEES4_RlRNS_14ExecutionStateE
FN:46,baseline_execution.cpp:_ZN6evmone8baseline12_GLOBAL__N_118check_requirementsILNS_6OpcodeE24EEE16evmc_status_codeRKSt5arrayIsLm256EERlPKN4intx4uintILj256EEESE_
FN:151,baseline_execution.cpp:_ZN6evmone8baseline12_GLOBAL__N_16invokeILNS_6OpcodeE25EEENS1_8PositionERKSt5arrayIsLm256EEPKN4intx4uintILj256EEES4_RlRNS_14ExecutionStateE
FN:46,baseline_execution.cpp:_ZN6evmone8baseline12_GLOBAL__N_118check_requirementsILNS_6OpcodeE25EEE16evmc_status_codeRKSt5arrayIsLm256EERlPKN4intx4uintILj256EEESE_
FN:151,baseline_execution.cpp:_ZN6evmone8baseline12_GLOBAL__N_16invokeILNS_6OpcodeE26EEENS1_8PositionERKSt5arrayIsLm256EEPKN4intx4uintILj256EEES4_RlRNS_14ExecutionStateE
FN:46,baseline_execution.cpp:_ZN6evmone8baseline12_GLOBAL__N_118check_requirementsILNS_6OpcodeE26EEE16evmc_status_codeRKSt5arrayIsLm256EERlPKN4intx4uintILj256EEESE_
FN:151,baseline_execution.cpp:_ZN6evmone8baseline12_GLOBAL__N_16invokeILNS_6OpcodeE27EEENS1_8PositionERKSt5arrayIsLm256EEPKN4intx4uintILj256EEES4_RlRNS_14ExecutionStateE
FN:46,baseline_execution.cpp:_ZN6evmone8baseline12_GLOBAL__N_118check_requirementsILNS_6OpcodeE27EEE16evmc_status_codeRKSt5arrayIsLm256EERlPKN4intx4uintILj256EEESE_
FN:151,baseline_execution.cpp:_ZN6evmone8baseline12_GLOBAL__N_16invokeILNS_6OpcodeE28EEENS1_8PositionERKSt5arrayIsLm256EEPKN4intx4uintILj256EEES4_RlRNS_14ExecutionStateE
FN:46,baseline_execution.cpp:_ZN6evmone8baseline12_GLOBAL__N_118check_requirementsILNS_6OpcodeE28EEE16evmc_status_codeRKSt5arrayIsLm256EERlPKN4intx4uintILj256EEESE_
FN:151,baseline_execution.cpp:_ZN6evmone8baseline12_GLOBAL__N_16invokeILNS_6OpcodeE29EEENS1_8PositionERKSt5arrayIsLm256EEPKN4intx4uintILj256EEES4_RlRNS_14ExecutionStateE
FN:46,baseline_execution.cpp:_ZN6evmone8baseline12_GLOBAL__N_118check_requirementsILNS_6OpcodeE29EEE16evmc_status_codeRKSt5arrayIsLm256EERlPKN4intx4uintILj256EEESE_
FN:151,baseline_execution.cpp:_ZN6evmone8baseline12_GLOBAL__N_16invokeILNS_6OpcodeE30EEENS1_8PositionERKSt5arrayIsLm256EEPKN4intx4uintILj256EEES4_RlRNS_14ExecutionStateE
FN:46,baseline_execution.cpp:_ZN6evmone8baseline12_GLOBAL__N_118check_requirementsILNS_6OpcodeE30EEE16evmc_status_codeRKSt5arrayIsLm256EERlPKN4intx4uintILj256EEESE_
FN:151,baseline_execution.cpp:_ZN6evmone8baseline12_GLOBAL__N_16invokeILNS_6OpcodeE32EEENS1_8PositionERKSt5arrayIsLm256EEPKN4intx4uintILj256EEES4_RlRNS_14ExecutionStateE
FN:46,baseline_execution.cpp:_ZN6evmone8baseline12_GLOBAL__N_118check_requirementsILNS_6OpcodeE32EEE16evmc_status_codeRKSt5arrayIsLm256EERlPKN4intx4uintILj256EEESE_
FN:151,baseline_execution.cpp:_ZN6evmone8baseline12_GLOBAL__N_16invokeILNS_6OpcodeE48EEENS1_8PositionERKSt5arrayIsLm256EEPKN4intx4uintILj256EEES4_RlRNS_14ExecutionStateE
FN:46,baseline_execution.cpp:_ZN6evmone8baseline12_GLOBAL__N_118check_requirementsILNS_6OpcodeE48EEE16evmc_status_codeRKSt5arrayIsLm256EERlPKN4intx4uintILj256EEESE_
FN:125,baseline_execution.cpp:_ZN6evmone8baseline12_GLOBAL__N_16invokeEPDoFvNS_8StackTopERNS_14ExecutionStateEENS1_8PositionERlS4_
FN:151,baseline_execution.cpp:_ZN6evmone8baseline12_GLOBAL__N_16invokeILNS_6OpcodeE49EEENS1_8PositionERKSt5arrayIsLm256EEPKN4intx4uintILj256EEES4_RlRNS_14ExecutionStateE
FN:46,baseline_execution.cpp:_ZN6evmone8baseline12_GLOBAL__N_118check_requirementsILNS_6OpcodeE49EEE16evmc_status_codeRKSt5arrayIsLm256EERlPKN4intx4uintILj256EEESE_
FN:151,baseline_execution.cpp:_ZN6evmone8baseline12_GLOBAL__N_16invokeILNS_6OpcodeE50EEENS1_8PositionERKSt5arrayIsLm256EEPKN4intx4uintILj256EEES4_RlRNS_14ExecutionStateE
FN:46,baseline_execution.cpp:_ZN6evmone8baseline12_GLOBAL__N_118check_requirementsILNS_6OpcodeE50EEE16evmc_status_codeRKSt5arrayIsLm256EERlPKN4intx4uintILj256EEESE_
FN:151,baseline_execution.cpp:_ZN6evmone8baseline12_GLOBAL__N_16invokeILNS_6OpcodeE51EEENS1_8PositionERKSt5arrayIsLm256EEPKN4intx4uintILj256EEES4_RlRNS_14ExecutionStateE
FN:46,baseline_execution.cpp:_ZN6evmone8baseline12_GLOBAL__N_118check_requirementsILNS_6OpcodeE51EEE16evmc_status_codeRKSt5arrayIsLm256EERlPKN4intx4uintILj256EEESE_
FN:151,baseline_execution.cpp:_ZN6evmone8baseline12_GLOBAL__N_16invokeILNS_6OpcodeE52EEENS1_8PositionERKSt5arrayIsLm256EEPKN4intx4uintILj256EEES4_RlRNS_14ExecutionStateE
FN:46,baseline_execution.cpp:_ZN6evmone8baseline12_GLOBAL__N_118check_requirementsILNS_6OpcodeE52EEE16evmc_status_codeRKSt5arrayIsLm256EERlPKN4intx4uintILj256EEESE_
FN:151,baseline_execution.cpp:_ZN6evmone8baseline12_GLOBAL__N_16invokeILNS_6OpcodeE53EEENS1_8PositionERKSt5arrayIsLm256EEPKN4intx4uintILj256EEES4_RlRNS_14ExecutionStateE
FN:46,baseline_execution.cpp:_ZN6evmone8baseline12_GLOBAL__N_118check_requirementsILNS_6OpcodeE53EEE16evmc_status_codeRKSt5arrayIsLm256EERlPKN4intx4uintILj256EEESE_
FN:151,baseline_execution.cpp:_ZN6evmone8baseline12_GLOBAL__N_16invokeILNS_6OpcodeE54EEENS1_8PositionERKSt5arrayIsLm256EEPKN4intx4uintILj256EEES4_RlRNS_14ExecutionStateE
FN:46,baseline_execution.cpp:_ZN6evmone8baseline12_GLOBAL__N_118check_requirementsILNS_6OpcodeE54EEE16evmc_status_codeRKSt5arrayIsLm256EERlPKN4intx4uintILj256EEESE_
FN:151,baseline_execution.cpp:_ZN6evmone8baseline12_GLOBAL__N_16invokeILNS_6OpcodeE55EEENS1_8PositionERKSt5arrayIsLm256EEPKN4intx4uintILj256EEES4_RlRNS_14ExecutionStateE
FN:46,baseline_execution.cpp:_ZN6evmone8baseline12_GLOBAL__N_118check_requirementsILNS_6OpcodeE55EEE16evmc_status_codeRKSt5arrayIsLm256EERlPKN4intx4uintILj256EEESE_
FN:151,baseline_execution.cpp:_ZN6evmone8baseline12_GLOBAL__N_16invokeILNS_6OpcodeE56EEENS1_8PositionERKSt5arrayIsLm256EEPKN4intx4uintILj256EEES4_RlRNS_14ExecutionStateE
FN:46,baseline_execution.cpp:_ZN6evmone8baseline12_GLOBAL__N_118check_requirementsILNS_6OpcodeE56EEE16evmc_status_codeRKSt5arrayIsLm256EERlPKN4intx4uintILj256EEESE_
FN:151,baseline_execution.cpp:_ZN6evmone8baseline12_GLOBAL__N_16invokeILNS_6OpcodeE57EEENS1_8PositionERKSt5arrayIsLm256EEPKN4intx4uintILj256EEES4_RlRNS_14ExecutionStateE
FN:46,baseline_execution.cpp:_ZN6evmone8baseline12_GLOBAL__N_118check_requirementsILNS_6OpcodeE57EEE16evmc_status_codeRKSt5arrayIsLm256EERlPKN4intx4uintILj256EEESE_
FN:151,baseline_execution.cpp:_ZN6evmone8baseline12_GLOBAL__N_16invokeILNS_6OpcodeE58EEENS1_8PositionERKSt5arrayIsLm256EEPKN4intx4uintILj256EEES4_RlRNS_14ExecutionStateE
FN:46,baseline_execution.cpp:_ZN6evmone8baseline12_GLOBAL__N_118check_requirementsILNS_6OpcodeE58EEE16evmc_status_codeRKSt5arrayIsLm256EERlPKN4intx4uintILj256EEESE_
FN:151,baseline_execution.cpp:_ZN6evmone8baseline12_GLOBAL__N_16invokeILNS_6OpcodeE59EEENS1_8PositionERKSt5arrayIsLm256EEPKN4intx4uintILj256EEES4_RlRNS_14ExecutionStateE
FN:46,baseline_execution.cpp:_ZN6evmone8baseline12_GLOBAL__N_118check_requirementsILNS_6OpcodeE59EEE16evmc_status_codeRKSt5arrayIsLm256EERlPKN4intx4uintILj256EEESE_
FN:151,baseline_execution.cpp:_ZN6evmone8baseline12_GLOBAL__N_16invokeILNS_6OpcodeE60EEENS1_8PositionERKSt5arrayIsLm256EEPKN4intx4uintILj256EEES4_RlRNS_14ExecutionStateE
FN:46,baseline_execution.cpp:_ZN6evmone8baseline12_GLOBAL__N_118check_requirementsILNS_6OpcodeE60EEE16evmc_status_codeRKSt5arrayIsLm256EERlPKN4intx4uintILj256EEESE_
FN:151,baseline_execution.cpp:_ZN6evmone8baseline12_GLOBAL__N_16invokeILNS_6OpcodeE61EEENS1_8PositionERKSt5arrayIsLm256EEPKN4intx4uintILj256EEES4_RlRNS_14ExecutionStateE
FN:46,baseline_execution.cpp:_ZN6evmone8baseline12_GLOBAL__N_118check_requirementsILNS_6OpcodeE61EEE16evmc_status_codeRKSt5arrayIsLm256EERlPKN4intx4uintILj256EEESE_
FN:151,baseline_execution.cpp:_ZN6evmone8baseline12_GLOBAL__N_16invokeILNS_6OpcodeE62EEENS1_8PositionERKSt5arrayIsLm256EEPKN4intx4uintILj256EEES4_RlRNS_14ExecutionStateE
FN:46,baseline_execution.cpp:_ZN6evmone8baseline12_GLOBAL__N_118check_requirementsILNS_6OpcodeE62EEE16evmc_status_codeRKSt5arrayIsLm256EERlPKN4intx4uintILj256EEESE_
FN:151,baseline_execution.cpp:_ZN6evmone8baseline12_GLOBAL__N_16invokeILNS_6OpcodeE63EEENS1_8PositionERKSt5arrayIsLm256EEPKN4intx4uintILj256EEES4_RlRNS_14ExecutionStateE
FN:46,baseline_execution.cpp:_ZN6evmone8baseline12_GLOBAL__N_118check_requirementsILNS_6OpcodeE63EEE16evmc_status_codeRKSt5arrayIsLm256EERlPKN4intx4uintILj256EEESE_
FN:151,baseline_execution.cpp:_ZN6evmone8baseline12_GLOBAL__N_16invokeILNS_6OpcodeE64EEENS1_8PositionERKSt5arrayIsLm256EEPKN4intx4uintILj256EEES4_RlRNS_14ExecutionStateE
FN:46,baseline_execution.cpp:_ZN6evmone8baseline12_GLOBAL__N_118check_requirementsILNS_6OpcodeE64EEE16evmc_status_codeRKSt5arrayIsLm256EERlPKN4intx4uintILj256EEESE_
FN:151,baseline_execution.cpp:_ZN6evmone8baseline12_GLOBAL__N_16invokeILNS_6OpcodeE65EEENS1_8PositionERKSt5arrayIsLm256EEPKN4intx4uintILj256EEES4_RlRNS_14ExecutionStateE
FN:46,baseline_execution.cpp:_ZN6evmone8baseline12_GLOBAL__N_118check_requirementsILNS_6OpcodeE65EEE16evmc_status_codeRKSt5arrayIsLm256EERlPKN4intx4uintILj256EEESE_
FN:151,baseline_execution.cpp:_ZN6evmone8baseline12_GLOBAL__N_16invokeILNS_6OpcodeE66EEENS1_8PositionERKSt5arrayIsLm256EEPKN4intx4uintILj256EEES4_RlRNS_14ExecutionStateE
FN:46,baseline_execution.cpp:_ZN6evmone8baseline12_GLOBAL__N_118check_requirementsILNS_6OpcodeE66EEE16evmc_status_codeRKSt5arrayIsLm256EERlPKN4intx4uintILj256EEESE_
FN:151,baseline_execution.cpp:_ZN6evmone8baseline12_GLOBAL__N_16invokeILNS_6OpcodeE67EEENS1_8PositionERKSt5arrayIsLm256EEPKN4intx4uintILj256EEES4_RlRNS_14ExecutionStateE
FN:46,baseline_execution.cpp:_ZN6evmone8baseline12_GLOBAL__N_118check_requirementsILNS_6OpcodeE67EEE16evmc_status_codeRKSt5arrayIsLm256EERlPKN4intx4uintILj256EEESE_
FN:151,baseline_execution.cpp:_ZN6evmone8baseline12_GLOBAL__N_16invokeILNS_6OpcodeE68EEENS1_8PositionERKSt5arrayIsLm256EEPKN4intx4uintILj256EEES4_RlRNS_14ExecutionStateE
FN:46,baseline_execution.cpp:_ZN6evmone8baseline12_GLOBAL__N_118check_requirementsILNS_6OpcodeE68EEE16evmc_status_codeRKSt5arrayIsLm256EERlPKN4intx4uintILj256EEESE_
FN:151,baseline_execution.cpp:_ZN6evmone8baseline12_GLOBAL__N_16invokeILNS_6OpcodeE69EEENS1_8PositionERKSt5arrayIsLm256EEPKN4intx4uintILj256EEES4_RlRNS_14ExecutionStateE
FN:46,baseline_execution.cpp:_ZN6evmone8baseline12_GLOBAL__N_118check_requirementsILNS_6OpcodeE69EEE16evmc_status_codeRKSt5arrayIsLm256EERlPKN4intx4uintILj256EEESE_
FN:151,baseline_execution.cpp:_ZN6evmone8baseline12_GLOBAL__N_16invokeILNS_6OpcodeE70EEENS1_8PositionERKSt5arrayIsLm256EEPKN4intx4uintILj256EEES4_RlRNS_14ExecutionStateE
FN:46,baseline_execution.cpp:_ZN6evmone8baseline12_GLOBAL__N_118check_requirementsILNS_6OpcodeE70EEE16evmc_status_codeRKSt5arrayIsLm256EERlPKN4intx4uintILj256EEESE_
FN:151,baseline_execution.cpp:_ZN6evmone8baseline12_GLOBAL__N_16invokeILNS_6OpcodeE71EEENS1_8PositionERKSt5arrayIsLm256EEPKN4intx4uintILj256EEES4_RlRNS_14ExecutionStateE
FN:46,baseline_execution.cpp:_ZN6evmone8baseline12_GLOBAL__N_118check_requirementsILNS_6OpcodeE71EEE16evmc_status_codeRKSt5arrayIsLm256EERlPKN4intx4uintILj256EEESE_
FN:151,baseline_execution.cpp:_ZN6evmone8baseline12_GLOBAL__N_16invokeILNS_6OpcodeE72EEENS1_8PositionERKSt5arrayIsLm256EEPKN4intx4uintILj256EEES4_RlRNS_14ExecutionStateE
FN:46,baseline_execution.cpp:_ZN6evmone8baseline12_GLOBAL__N_118check_requirementsILNS_6OpcodeE72EEE16evmc_status_codeRKSt5arrayIsLm256EERlPKN4intx4uintILj256EEESE_
FN:151,baseline_execution.cpp:_ZN6evmone8baseline12_GLOBAL__N_16invokeILNS_6OpcodeE73EEENS1_8PositionERKSt5arrayIsLm256EEPKN4intx4uintILj256EEES4_RlRNS_14ExecutionStateE
FN:46,baseline_execution.cpp:_ZN6evmone8baseline12_GLOBAL__N_118check_requirementsILNS_6OpcodeE73EEE16evmc_status_codeRKSt5arrayIsLm256EERlPKN4intx4uintILj256EEESE_
FN:151,baseline_execution.cpp:_ZN6evmone8baseline12_GLOBAL__N_16invokeILNS_6OpcodeE74EEENS1_8PositionERKSt5arrayIsLm256EEPKN4intx4uintILj256EEES4_RlRNS_14ExecutionStateE
FN:46,baseline_execution.cpp:_ZN6evmone8baseline12_GLOBAL__N_118check_requirementsILNS_6OpcodeE74EEE16evmc_status_codeRKSt5arrayIsLm256EERlPKN4intx4uintILj256EEESE_
FN:151,baseline_execution.cpp:_ZN6evmone8baseline12_GLOBAL__N_16invokeILNS_6OpcodeE80EEENS1_8PositionERKSt5arrayIsLm256EEPKN4intx4uintILj256EEES4_RlRNS_14ExecutionStateE
FN:46,baseline_execution.cpp:_ZN6evmone8baseline12_GLOBAL__N_118check_requirementsILNS_6OpcodeE80EEE16evmc_status_codeRKSt5arrayIsLm256EERlPKN4intx4uintILj256EEESE_
FN:151,baseline_execution.cpp:_ZN6evmone8baseline12_GLOBAL__N_16invokeILNS_6OpcodeE81EEENS1_8PositionERKSt5arrayIsLm256EEPKN4intx4uintILj256EEES4_RlRNS_14ExecutionStateE
FN:46,baseline_execution.cpp:_ZN6evmone8baseline12_GLOBAL__N_118check_requirementsILNS_6OpcodeE81EEE16evmc_status_codeRKSt5arrayIsLm256EERlPKN4intx4uintILj256EEESE_
FN:151,baseline_execution.cpp:_ZN6evmone8baseline12_GLOBAL__N_16invokeILNS_6OpcodeE82EEENS1_8PositionERKSt5arrayIsLm256EEPKN4intx4uintILj256EEES4_RlRNS_14ExecutionStateE
FN:46,baseline_execution.cpp:_ZN6evmone8baseline12_GLOBAL__N_118check_requirementsILNS_6OpcodeE82EEE16evmc_status_codeRKSt5arrayIsLm256EERlPKN4intx4uintILj256EEESE_
FN:151,baseline_execution.cpp:_ZN6evmone8baseline12_GLOBAL__N_16invokeILNS_6OpcodeE83EEENS1_8PositionERKSt5arrayIsLm256EEPKN4intx4uintILj256EEES4_RlRNS_14ExecutionStateE
FN:46,baseline_execution.cpp:_ZN6evmone8baseline12_GLOBAL__N_118check_requirementsILNS_6OpcodeE83EEE16evmc_status_codeRKSt5arrayIsLm256EERlPKN4intx4uintILj256EEESE_
FN:151,baseline_execution.cpp:_ZN6evmone8baseline12_GLOBAL__N_16invokeILNS_6OpcodeE84EEENS1_8PositionERKSt5arrayIsLm256EEPKN4intx4uintILj256EEES4_RlRNS_14ExecutionStateE
FN:46,baseline_execution.cpp:_ZN6evmone8baseline12_GLOBAL__N_118check_requirementsILNS_6OpcodeE84EEE16evmc_status_codeRKSt5arrayIsLm256EERlPKN4intx4uintILj256EEESE_
FN:151,baseline_execution.cpp:_ZN6evmone8baseline12_GLOBAL__N_16invokeILNS_6OpcodeE85EEENS1_8PositionERKSt5arrayIsLm256EEPKN4intx4uintILj256EEES4_RlRNS_14ExecutionStateE
FN:46,baseline_execution.cpp:_ZN6evmone8baseline12_GLOBAL__N_118check_requirementsILNS_6OpcodeE85EEE16evmc_status_codeRKSt5arrayIsLm256EERlPKN4intx4uintILj256EEESE_
FN:151,baseline_execution.cpp:_ZN6evmone8baseline12_GLOBAL__N_16invokeILNS_6OpcodeE86EEENS1_8PositionERKSt5arrayIsLm256EEPKN4intx4uintILj256EEES4_RlRNS_14ExecutionStateE
FN:46,baseline_execution.cpp:_ZN6evmone8baseline12_GLOBAL__N_118check_requirementsILNS_6OpcodeE86EEE16evmc_status_codeRKSt5arrayIsLm256EERlPKN4intx4uintILj256EEESE_
FN:133,baseline_execution.cpp:_ZN6evmone8baseline12_GLOBAL__N_16invokeEPDoFPKhNS_8StackTopERNS_14ExecutionStateES3_ENS1_8PositionERlS6_
FN:151,baseline_execution.cpp:_ZN6evmone8baseline12_GLOBAL__N_16invokeILNS_6OpcodeE87EEENS1_8PositionERKSt5arrayIsLm256EEPKN4intx4uintILj256EEES4_RlRNS_14ExecutionStateE
FN:46,baseline_execution.cpp:_ZN6evmone8baseline12_GLOBAL__N_118check_requirementsILNS_6OpcodeE87EEE16evmc_status_codeRKSt5arrayIsLm256EERlPKN4intx4uintILj256EEESE_
FN:151,baseline_execution.cpp:_ZN6evmone8baseline12_GLOBAL__N_16invokeILNS_6OpcodeE88EEENS1_8PositionERKSt5arrayIsLm256EEPKN4intx4uintILj256EEES4_RlRNS_14ExecutionStateE
FN:46,baseline_execution.cpp:_ZN6evmone8baseline12_GLOBAL__N_118check_requirementsILNS_6OpcodeE88EEE16evmc_status_codeRKSt5arrayIsLm256EERlPKN4intx4uintILj256EEESE_
FN:151,baseline_execution.cpp:_ZN6evmone8baseline12_GLOBAL__N_16invokeILNS_6OpcodeE89EEENS1_8PositionERKSt5arrayIsLm256EEPKN4intx4uintILj256EEES4_RlRNS_14ExecutionStateE
FN:46,baseline_execution.cpp:_ZN6evmone8baseline12_GLOBAL__N_118check_requirementsILNS_6OpcodeE89EEE16evmc_status_codeRKSt5arrayIsLm256EERlPKN4intx4uintILj256EEESE_
FN:151,baseline_execution.cpp:_ZN6evmone8baseline12_GLOBAL__N_16invokeILNS_6OpcodeE90EEENS1_8PositionERKSt5arrayIsLm256EEPKN4intx4uintILj256EEES4_RlRNS_14ExecutionStateE
FN:46,baseline_execution.cpp:_ZN6evmone8baseline12_GLOBAL__N_118check_requirementsILNS_6OpcodeE90EEE16evmc_status_codeRKSt5arrayIsLm256EERlPKN4intx4uintILj256EEESE_
FN:151,baseline_execution.cpp:_ZN6evmone8baseline12_GLOBAL__N_16invokeILNS_6OpcodeE91EEENS1_8PositionERKSt5arrayIsLm256EEPKN4intx4uintILj256EEES4_RlRNS_14ExecutionStateE
FN:46,baseline_execution.cpp:_ZN6evmone8baseline12_GLOBAL__N_118check_requirementsILNS_6OpcodeE91EEE16evmc_status_codeRKSt5arrayIsLm256EERlPKN4intx4uintILj256EEESE_
FN:151,baseline_execution.cpp:_ZN6evmone8baseline12_GLOBAL__N_16invokeILNS_6OpcodeE92EEENS1_8PositionERKSt5arrayIsLm256EEPKN4intx4uintILj256EEES4_RlRNS_14ExecutionStateE
FN:46,baseline_execution.cpp:_ZN6evmone8baseline12_GLOBAL__N_118check_requirementsILNS_6OpcodeE92EEE16evmc_status_codeRKSt5arrayIsLm256EERlPKN4intx4uintILj256EEESE_
FN:151,baseline_execution.cpp:_ZN6evmone8baseline12_GLOBAL__N_16invokeILNS_6OpcodeE93EEENS1_8PositionERKSt5arrayIsLm256EEPKN4intx4uintILj256EEES4_RlRNS_14ExecutionStateE
FN:46,baseline_execution.cpp:_ZN6evmone8baseline12_GLOBAL__N_118check_requirementsILNS_6OpcodeE93EEE16evmc_status_codeRKSt5arrayIsLm256EERlPKN4intx4uintILj256EEESE_
FN:151,baseline_execution.cpp:_ZN6evmone8baseline12_GLOBAL__N_16invokeILNS_6OpcodeE94EEENS1_8PositionERKSt5arrayIsLm256EEPKN4intx4uintILj256EEES4_RlRNS_14ExecutionStateE
FN:46,baseline_execution.cpp:_ZN6evmone8baseline12_GLOBAL__N_118check_requirementsILNS_6OpcodeE94EEE16evmc_status_codeRKSt5arrayIsLm256EERlPKN4intx4uintILj256EEESE_
FN:151,baseline_execution.cpp:_ZN6evmone8baseline12_GLOBAL__N_16invokeILNS_6OpcodeE95EEENS1_8PositionERKSt5arrayIsLm256EEPKN4intx4uintILj256EEES4_RlRNS_14ExecutionStateE
FN:46,baseline_execution.cpp:_ZN6evmone8baseline12_GLOBAL__N_118check_requirementsILNS_6OpcodeE95EEE16evmc_status_codeRKSt5arrayIsLm256EERlPKN4intx4uintILj256EEESE_
FN:151,baseline_execution.cpp:_ZN6evmone8baseline12_GLOBAL__N_16invokeILNS_6OpcodeE96EEENS1_8PositionERKSt5arrayIsLm256EEPKN4intx4uintILj256EEES4_RlRNS_14ExecutionStateE
FN:46,baseline_execution.cpp:_ZN6evmone8baseline12_GLOBAL__N_118check_requirementsILNS_6OpcodeE96EEE16evmc_status_codeRKSt5arrayIsLm256EERlPKN4intx4uintILj256EEESE_
FN:151,baseline_execution.cpp:_ZN6evmone8baseline12_GLOBAL__N_16invokeILNS_6OpcodeE97EEENS1_8PositionERKSt5arrayIsLm256EEPKN4intx4uintILj256EEES4_RlRNS_14ExecutionStateE
FN:46,baseline_execution.cpp:_ZN6evmone8baseline12_GLOBAL__N_118check_requirementsILNS_6OpcodeE97EEE16evmc_status_codeRKSt5arrayIsLm256EERlPKN4intx4uintILj256EEESE_
FN:151,baseline_execution.cpp:_ZN6evmone8baseline12_GLOBAL__N_16invokeILNS_6OpcodeE98EEENS1_8PositionERKSt5arrayIsLm256EEPKN4intx4uintILj256EEES4_RlRNS_14ExecutionStateE
FN:46,baseline_execution.cpp:_ZN6evmone8baseline12_GLOBAL__N_118check_requirementsILNS_6OpcodeE98EEE16evmc_status_codeRKSt5arrayIsLm256EERlPKN4intx4uintILj256EEESE_
FN:151,baseline_execution.cpp:_ZN6evmone8baseline12_GLOBAL__N_16invokeILNS_6OpcodeE99EEENS1_8PositionERKSt5arrayIsLm256EEPKN4intx4uintILj256EEES4_RlRNS_14ExecutionStateE
FN:46,baseline_execution.cpp:_ZN6evmone8baseline12_GLOBAL__N_118check_requirementsILNS_6OpcodeE99EEE16evmc_status_codeRKSt5arrayIsLm256EERlPKN4intx4uintILj256EEESE_
FN:151,baseline_execution.cpp:_ZN6evmone8baseline12_GLOBAL__N_16invokeILNS_6OpcodeE100EEENS1_8PositionERKSt5arrayIsLm256EEPKN4intx4uintILj256EEES4_RlRNS_14ExecutionStateE
FN:46,baseline_execution.cpp:_ZN6evmone8baseline12_GLOBAL__N_118check_requirementsILNS_6OpcodeE100EEE16evmc_status_codeRKSt5arrayIsLm256EERlPKN4intx4uintILj256EEESE_
FN:151,baseline_execution.cpp:_ZN6evmone8baseline12_GLOBAL__N_16invokeILNS_6OpcodeE101EEENS1_8PositionERKSt5arrayIsLm256EEPKN4intx4uintILj256EEES4_RlRNS_14ExecutionStateE
FN:46,baseline_execution.cpp:_ZN6evmone8baseline12_GLOBAL__N_118check_requirementsILNS_6OpcodeE101EEE16evmc_status_codeRKSt5arrayIsLm256EERlPKN4intx4uintILj256EEESE_
FN:151,baseline_execution.cpp:_ZN6evmone8baseline12_GLOBAL__N_16invokeILNS_6OpcodeE102EEENS1_8PositionERKSt5arrayIsLm256EEPKN4intx4uintILj256EEES4_RlRNS_14ExecutionStateE
FN:46,baseline_execution.cpp:_ZN6evmone8baseline12_GLOBAL__N_118check_requirementsILNS_6OpcodeE102EEE16evmc_status_codeRKSt5arrayIsLm256EERlPKN4intx4uintILj256EEESE_
FN:151,baseline_execution.cpp:_ZN6evmone8baseline12_GLOBAL__N_16invokeILNS_6OpcodeE103EEENS1_8PositionERKSt5arrayIsLm256EEPKN4intx4uintILj256EEES4_RlRNS_14ExecutionStateE
FN:46,baseline_execution.cpp:_ZN6evmone8baseline12_GLOBAL__N_118check_requirementsILNS_6OpcodeE103EEE16evmc_status_codeRKSt5arrayIsLm256EERlPKN4intx4uintILj256EEESE_
FN:151,baseline_execution.cpp:_ZN6evmone8baseline12_GLOBAL__N_16invokeILNS_6OpcodeE104EEENS1_8PositionERKSt5arrayIsLm256EEPKN4intx4uintILj256EEES4_RlRNS_14ExecutionStateE
FN:46,baseline_execution.cpp:_ZN6evmone8baseline12_GLOBAL__N_118check_requirementsILNS_6OpcodeE104EEE16evmc_status_codeRKSt5arrayIsLm256EERlPKN4intx4uintILj256EEESE_
FN:151,baseline_execution.cpp:_ZN6evmone8baseline12_GLOBAL__N_16invokeILNS_6OpcodeE105EEENS1_8PositionERKSt5arrayIsLm256EEPKN4intx4uintILj256EEES4_RlRNS_14ExecutionStateE
FN:46,baseline_execution.cpp:_ZN6evmone8baseline12_GLOBAL__N_118check_requirementsILNS_6OpcodeE105EEE16evmc_status_codeRKSt5arrayIsLm256EERlPKN4intx4uintILj256EEESE_
FN:151,baseline_execution.cpp:_ZN6evmone8baseline12_GLOBAL__N_16invokeILNS_6OpcodeE106EEENS1_8PositionERKSt5arrayIsLm256EEPKN4intx4uintILj256EEES4_RlRNS_14ExecutionStateE
FN:46,baseline_execution.cpp:_ZN6evmone8baseline12_GLOBAL__N_118check_requirementsILNS_6OpcodeE106EEE16evmc_status_codeRKSt5arrayIsLm256EERlPKN4intx4uintILj256EEESE_
FN:151,baseline_execution.cpp:_ZN6evmone8baseline12_GLOBAL__N_16invokeILNS_6OpcodeE107EEENS1_8PositionERKSt5arrayIsLm256EEPKN4intx4uintILj256EEES4_RlRNS_14ExecutionStateE
FN:46,baseline_execution.cpp:_ZN6evmone8baseline12_GLOBAL__N_118check_requirementsILNS_6OpcodeE107EEE16evmc_status_codeRKSt5arrayIsLm256EERlPKN4intx4uintILj256EEESE_
FN:151,baseline_execution.cpp:_ZN6evmone8baseline12_GLOBAL__N_16invokeILNS_6OpcodeE108EEENS1_8PositionERKSt5arrayIsLm256EEPKN4intx4uintILj256EEES4_RlRNS_14ExecutionStateE
FN:46,baseline_execution.cpp:_ZN6evmone8baseline12_GLOBAL__N_118check_requirementsILNS_6OpcodeE108EEE16evmc_status_codeRKSt5arrayIsLm256EERlPKN4intx4uintILj256EEESE_
FN:151,baseline_execution.cpp:_ZN6evmone8baseline12_GLOBAL__N_16invokeILNS_6OpcodeE109EEENS1_8PositionERKSt5arrayIsLm256EEPKN4intx4uintILj256EEES4_RlRNS_14ExecutionStateE
FN:46,baseline_execution.cpp:_ZN6evmone8baseline12_GLOBAL__N_118check_requirementsILNS_6OpcodeE109EEE16evmc_status_codeRKSt5arrayIsLm256EERlPKN4intx4uintILj256EEESE_
FN:151,baseline_execution.cpp:_ZN6evmone8baseline12_GLOBAL__N_16invokeILNS_6OpcodeE110EEENS1_8PositionERKSt5arrayIsLm256EEPKN4intx4uintILj256EEES4_RlRNS_14ExecutionStateE
FN:46,baseline_execution.cpp:_ZN6evmone8baseline12_GLOBAL__N_118check_requirementsILNS_6OpcodeE110EEE16evmc_status_codeRKSt5arrayIsLm256EERlPKN4intx4uintILj256EEESE_
FN:151,baseline_execution.cpp:_ZN6evmone8baseline12_GLOBAL__N_16invokeILNS_6OpcodeE111EEENS1_8PositionERKSt5arrayIsLm256EEPKN4intx4uintILj256EEES4_RlRNS_14ExecutionStateE
FN:46,baseline_execution.cpp:_ZN6evmone8baseline12_GLOBAL__N_118check_requirementsILNS_6OpcodeE111EEE16evmc_status_codeRKSt5arrayIsLm256EERlPKN4intx4uintILj256EEESE_
FN:151,baseline_execution.cpp:_ZN6evmone8baseline12_GLOBAL__N_16invokeILNS_6OpcodeE112EEENS1_8PositionERKSt5arrayIsLm256EEPKN4intx4uintILj256EEES4_RlRNS_14ExecutionStateE
FN:46,baseline_execution.cpp:_ZN6evmone8baseline12_GLOBAL__N_118check_requirementsILNS_6OpcodeE112EEE16evmc_status_codeRKSt5arrayIsLm256EERlPKN4intx4uintILj256EEESE_
FN:151,baseline_execution.cpp:_ZN6evmone8baseline12_GLOBAL__N_16invokeILNS_6OpcodeE113EEENS1_8PositionERKSt5arrayIsLm256EEPKN4intx4uintILj256EEES4_RlRNS_14ExecutionStateE
FN:46,baseline_execution.cpp:_ZN6evmone8baseline12_GLOBAL__N_118check_requirementsILNS_6OpcodeE113EEE16evmc_status_codeRKSt5arrayIsLm256EERlPKN4intx4uintILj256EEESE_
FN:151,baseline_execution.cpp:_ZN6evmone8baseline12_GLOBAL__N_16invokeILNS_6OpcodeE114EEENS1_8PositionERKSt5arrayIsLm256EEPKN4intx4uintILj256EEES4_RlRNS_14ExecutionStateE
FN:46,baseline_execution.cpp:_ZN6evmone8baseline12_GLOBAL__N_118check_requirementsILNS_6OpcodeE114EEE16evmc_status_codeRKSt5arrayIsLm256EERlPKN4intx4uintILj256EEESE_
FN:151,baseline_execution.cpp:_ZN6evmone8baseline12_GLOBAL__N_16invokeILNS_6OpcodeE115EEENS1_8PositionERKSt5arrayIsLm256EEPKN4intx4uintILj256EEES4_RlRNS_14ExecutionStateE
FN:46,baseline_execution.cpp:_ZN6evmone8baseline12_GLOBAL__N_118check_requirementsILNS_6OpcodeE115EEE16evmc_status_codeRKSt5arrayIsLm256EERlPKN4intx4uintILj256EEESE_
FN:151,baseline_execution.cpp:_ZN6evmone8baseline12_GLOBAL__N_16invokeILNS_6OpcodeE116EEENS1_8PositionERKSt5arrayIsLm256EEPKN4intx4uintILj256EEES4_RlRNS_14ExecutionStateE
FN:46,baseline_execution.cpp:_ZN6evmone8baseline12_GLOBAL__N_118check_requirementsILNS_6OpcodeE116EEE16evmc_status_codeRKSt5arrayIsLm256EERlPKN4intx4uintILj256EEESE_
FN:151,baseline_execution.cpp:_ZN6evmone8baseline12_GLOBAL__N_16invokeILNS_6OpcodeE117EEENS1_8PositionERKSt5arrayIsLm256EEPKN4intx4uintILj256EEES4_RlRNS_14ExecutionStateE
FN:46,baseline_execution.cpp:_ZN6evmone8baseline12_GLOBAL__N_118check_requirementsILNS_6OpcodeE117EEE16evmc_status_codeRKSt5arrayIsLm256EERlPKN4intx4uintILj256EEESE_
FN:151,baseline_execution.cpp:_ZN6evmone8baseline12_GLOBAL__N_16invokeILNS_6OpcodeE118EEENS1_8PositionERKSt5arrayIsLm256EEPKN4intx4uintILj256EEES4_RlRNS_14ExecutionStateE
FN:46,baseline_execution.cpp:_ZN6evmone8baseline12_GLOBAL__N_118check_requirementsILNS_6OpcodeE118EEE16evmc_status_codeRKSt5arrayIsLm256EERlPKN4intx4uintILj256EEESE_
FN:151,baseline_execution.cpp:_ZN6evmone8baseline12_GLOBAL__N_16invokeILNS_6OpcodeE119EEENS1_8PositionERKSt5arrayIsLm256EEPKN4intx4uintILj256EEES4_RlRNS_14ExecutionStateE
FN:46,baseline_execution.cpp:_ZN6evmone8baseline12_GLOBAL__N_118check_requirementsILNS_6OpcodeE119EEE16evmc_status_codeRKSt5arrayIsLm256EERlPKN4intx4uintILj256EEESE_
FN:151,baseline_execution.cpp:_ZN6evmone8baseline12_GLOBAL__N_16invokeILNS_6OpcodeE120EEENS1_8PositionERKSt5arrayIsLm256EEPKN4intx4uintILj256EEES4_RlRNS_14ExecutionStateE
FN:46,baseline_execution.cpp:_ZN6evmone8baseline12_GLOBAL__N_118check_requirementsILNS_6OpcodeE120EEE16evmc_status_codeRKSt5arrayIsLm256EERlPKN4intx4uintILj256EEESE_
FN:151,baseline_execution.cpp:_ZN6evmone8baseline12_GLOBAL__N_16invokeILNS_6OpcodeE121EEENS1_8PositionERKSt5arrayIsLm256EEPKN4intx4uintILj256EEES4_RlRNS_14ExecutionStateE
FN:46,baseline_execution.cpp:_ZN6evmone8baseline12_GLOBAL__N_118check_requirementsILNS_6OpcodeE121EEE16evmc_status_codeRKSt5arrayIsLm256EERlPKN4intx4uintILj256EEESE_
FN:151,baseline_execution.cpp:_ZN6evmone8baseline12_GLOBAL__N_16invokeILNS_6OpcodeE122EEENS1_8PositionERKSt5arrayIsLm256EEPKN4intx4uintILj256EEES4_RlRNS_14ExecutionStateE
FN:46,baseline_execution.cpp:_ZN6evmone8baseline12_GLOBAL__N_118check_requirementsILNS_6OpcodeE122EEE16evmc_status_codeRKSt5arrayIsLm256EERlPKN4intx4uintILj256EEESE_
FN:151,baseline_execution.cpp:_ZN6evmone8baseline12_GLOBAL__N_16invokeILNS_6OpcodeE123EEENS1_8PositionERKSt5arrayIsLm256EEPKN4intx4uintILj256EEES4_RlRNS_14ExecutionStateE
FN:46,baseline_execution.cpp:_ZN6evmone8baseline12_GLOBAL__N_118check_requirementsILNS_6OpcodeE123EEE16evmc_status_codeRKSt5arrayIsLm256EERlPKN4intx4uintILj256EEESE_
FN:151,baseline_execution.cpp:_ZN6evmone8baseline12_GLOBAL__N_16invokeILNS_6OpcodeE124EEENS1_8PositionERKSt5arrayIsLm256EEPKN4intx4uintILj256EEES4_RlRNS_14ExecutionStateE
FN:46,baseline_execution.cpp:_ZN6evmone8baseline12_GLOBAL__N_118check_requirementsILNS_6OpcodeE124EEE16evmc_status_codeRKSt5arrayIsLm256EERlPKN4intx4uintILj256EEESE_
FN:151,baseline_execution.cpp:_ZN6evmone8baseline12_GLOBAL__N_16invokeILNS_6OpcodeE125EEENS1_8PositionERKSt5arrayIsLm256EEPKN4intx4uintILj256EEES4_RlRNS_14ExecutionStateE
FN:46,baseline_execution.cpp:_ZN6evmone8baseline12_GLOBAL__N_118check_requirementsILNS_6OpcodeE125EEE16evmc_status_codeRKSt5arrayIsLm256EERlPKN4intx4uintILj256EEESE_
FN:151,baseline_execution.cpp:_ZN6evmone8baseline12_GLOBAL__N_16invokeILNS_6OpcodeE126EEENS1_8PositionERKSt5arrayIsLm256EEPKN4intx4uintILj256EEES4_RlRNS_14ExecutionStateE
FN:46,baseline_execution.cpp:_ZN6evmone8baseline12_GLOBAL__N_118check_requirementsILNS_6OpcodeE126EEE16evmc_status_codeRKSt5arrayIsLm256EERlPKN4intx4uintILj256EEESE_
FN:151,baseline_execution.cpp:_ZN6evmone8baseline12_GLOBAL__N_16invokeILNS_6OpcodeE127EEENS1_8PositionERKSt5arrayIsLm256EEPKN4intx4uintILj256EEES4_RlRNS_14ExecutionStateE
FN:46,baseline_execution.cpp:_ZN6evmone8baseline12_GLOBAL__N_118check_requirementsILNS_6OpcodeE127EEE16evmc_status_codeRKSt5arrayIsLm256EERlPKN4intx4uintILj256EEESE_
FN:151,baseline_execution.cpp:_ZN6evmone8baseline12_GLOBAL__N_16invokeILNS_6OpcodeE128EEENS1_8PositionERKSt5arrayIsLm256EEPKN4intx4uintILj256EEES4_RlRNS_14ExecutionStateE
FN:46,baseline_execution.cpp:_ZN6evmone8baseline12_GLOBAL__N_118check_requirementsILNS_6OpcodeE128EEE16evmc_status_codeRKSt5arrayIsLm256EERlPKN4intx4uintILj256EEESE_
FN:151,baseline_execution.cpp:_ZN6evmone8baseline12_GLOBAL__N_16invokeILNS_6OpcodeE129EEENS1_8PositionERKSt5arrayIsLm256EEPKN4intx4uintILj256EEES4_RlRNS_14ExecutionStateE
FN:46,baseline_execution.cpp:_ZN6evmone8baseline12_GLOBAL__N_118check_requirementsILNS_6OpcodeE129EEE16evmc_status_codeRKSt5arrayIsLm256EERlPKN4intx4uintILj256EEESE_
FN:151,baseline_execution.cpp:_ZN6evmone8baseline12_GLOBAL__N_16invokeILNS_6OpcodeE130EEENS1_8PositionERKSt5arrayIsLm256EEPKN4intx4uintILj256EEES4_RlRNS_14ExecutionStateE
FN:46,baseline_execution.cpp:_ZN6evmone8baseline12_GLOBAL__N_118check_requirementsILNS_6OpcodeE130EEE16evmc_status_codeRKSt5arrayIsLm256EERlPKN4intx4uintILj256EEESE_
FN:151,baseline_execution.cpp:_ZN6evmone8baseline12_GLOBAL__N_16invokeILNS_6OpcodeE131EEENS1_8PositionERKSt5arrayIsLm256EEPKN4intx4uintILj256EEES4_RlRNS_14ExecutionStateE
FN:46,baseline_execution.cpp:_ZN6evmone8baseline12_GLOBAL__N_118check_requirementsILNS_6OpcodeE131EEE16evmc_status_codeRKSt5arrayIsLm256EERlPKN4intx4uintILj256EEESE_
FN:151,baseline_execution.cpp:_ZN6evmone8baseline12_GLOBAL__N_16invokeILNS_6OpcodeE132EEENS1_8PositionERKSt5arrayIsLm256EEPKN4intx4uintILj256EEES4_RlRNS_14ExecutionStateE
FN:46,baseline_execution.cpp:_ZN6evmone8baseline12_GLOBAL__N_118check_requirementsILNS_6OpcodeE132EEE16evmc_status_codeRKSt5arrayIsLm256EERlPKN4intx4uintILj256EEESE_
FN:151,baseline_execution.cpp:_ZN6evmone8baseline12_GLOBAL__N_16invokeILNS_6OpcodeE133EEENS1_8PositionERKSt5arrayIsLm256EEPKN4intx4uintILj256EEES4_RlRNS_14ExecutionStateE
FN:46,baseline_execution.cpp:_ZN6evmone8baseline12_GLOBAL__N_118check_requirementsILNS_6OpcodeE133EEE16evmc_status_codeRKSt5arrayIsLm256EERlPKN4intx4uintILj256EEESE_
FN:151,baseline_execution.cpp:_ZN6evmone8baseline12_GLOBAL__N_16invokeILNS_6OpcodeE134EEENS1_8PositionERKSt5arrayIsLm256EEPKN4intx4uintILj256EEES4_RlRNS_14ExecutionStateE
FN:46,baseline_execution.cpp:_ZN6evmone8baseline12_GLOBAL__N_118check_requirementsILNS_6OpcodeE134EEE16evmc_status_codeRKSt5arrayIsLm256EERlPKN4intx4uintILj256EEESE_
FN:151,baseline_execution.cpp:_ZN6evmone8baseline12_GLOBAL__N_16invokeILNS_6OpcodeE135EEENS1_8PositionERKSt5arrayIsLm256EEPKN4intx4uintILj256EEES4_RlRNS_14ExecutionStateE
FN:46,baseline_execution.cpp:_ZN6evmone8baseline12_GLOBAL__N_118check_requirementsILNS_6OpcodeE135EEE16evmc_status_codeRKSt5arrayIsLm256EERlPKN4intx4uintILj256EEESE_
FN:151,baseline_execution.cpp:_ZN6evmone8baseline12_GLOBAL__N_16invokeILNS_6OpcodeE136EEENS1_8PositionERKSt5arrayIsLm256EEPKN4intx4uintILj256EEES4_RlRNS_14ExecutionStateE
FN:46,baseline_execution.cpp:_ZN6evmone8baseline12_GLOBAL__N_118check_requirementsILNS_6OpcodeE136EEE16evmc_status_codeRKSt5arrayIsLm256EERlPKN4intx4uintILj256EEESE_
FN:151,baseline_execution.cpp:_ZN6evmone8baseline12_GLOBAL__N_16invokeILNS_6OpcodeE137EEENS1_8PositionERKSt5arrayIsLm256EEPKN4intx4uintILj256EEES4_RlRNS_14ExecutionStateE
FN:46,baseline_execution.cpp:_ZN6evmone8baseline12_GLOBAL__N_118check_requirementsILNS_6OpcodeE137EEE16evmc_status_codeRKSt5arrayIsLm256EERlPKN4intx4uintILj256EEESE_
FN:151,baseline_execution.cpp:_ZN6evmone8baseline12_GLOBAL__N_16invokeILNS_6OpcodeE138EEENS1_8PositionERKSt5arrayIsLm256EEPKN4intx4uintILj256EEES4_RlRNS_14ExecutionStateE
FN:46,baseline_execution.cpp:_ZN6evmone8baseline12_GLOBAL__N_118check_requirementsILNS_6OpcodeE138EEE16evmc_status_codeRKSt5arrayIsLm256EERlPKN4intx4uintILj256EEESE_
FN:151,baseline_execution.cpp:_ZN6evmone8baseline12_GLOBAL__N_16invokeILNS_6OpcodeE139EEENS1_8PositionERKSt5arrayIsLm256EEPKN4intx4uintILj256EEES4_RlRNS_14ExecutionStateE
FN:46,baseline_execution.cpp:_ZN6evmone8baseline12_GLOBAL__N_118check_requirementsILNS_6OpcodeE139EEE16evmc_status_codeRKSt5arrayIsLm256EERlPKN4intx4uintILj256EEESE_
FN:151,baseline_execution.cpp:_ZN6evmone8baseline12_GLOBAL__N_16invokeILNS_6OpcodeE140EEENS1_8PositionERKSt5arrayIsLm256EEPKN4intx4uintILj256EEES4_RlRNS_14ExecutionStateE
FN:46,baseline_execution.cpp:_ZN6evmone8baseline12_GLOBAL__N_118check_requirementsILNS_6OpcodeE140EEE16evmc_status_codeRKSt5arrayIsLm256EERlPKN4intx4uintILj256EEESE_
FN:151,baseline_execution.cpp:_ZN6evmone8baseline12_GLOBAL__N_16invokeILNS_6OpcodeE141EEENS1_8PositionERKSt5arrayIsLm256EEPKN4intx4uintILj256EEES4_RlRNS_14ExecutionStateE
FN:46,baseline_execution.cpp:_ZN6evmone8baseline12_GLOBAL__N_118check_requirementsILNS_6OpcodeE141EEE16evmc_status_codeRKSt5arrayIsLm256EERlPKN4intx4uintILj256EEESE_
FN:151,baseline_execution.cpp:_ZN6evmone8baseline12_GLOBAL__N_16invokeILNS_6OpcodeE142EEENS1_8PositionERKSt5arrayIsLm256EEPKN4intx4uintILj256EEES4_RlRNS_14ExecutionStateE
FN:46,baseline_execution.cpp:_ZN6evmone8baseline12_GLOBAL__N_118check_requirementsILNS_6OpcodeE142EEE16evmc_status_codeRKSt5arrayIsLm256EERlPKN4intx4uintILj256EEESE_
FN:151,baseline_execution.cpp:_ZN6evmone8baseline12_GLOBAL__N_16invokeILNS_6OpcodeE143EEENS1_8PositionERKSt5arrayIsLm256EEPKN4intx4uintILj256EEES4_RlRNS_14ExecutionStateE
FN:46,baseline_execution.cpp:_ZN6evmone8baseline12_GLOBAL__N_118check_requirementsILNS_6OpcodeE143EEE16evmc_status_codeRKSt5arrayIsLm256EERlPKN4intx4uintILj256EEESE_
FN:151,baseline_execution.cpp:_ZN6evmone8baseline12_GLOBAL__N_16invokeILNS_6OpcodeE144EEENS1_8PositionERKSt5arrayIsLm256EEPKN4intx4uintILj256EEES4_RlRNS_14ExecutionStateE
FN:46,baseline_execution.cpp:_ZN6evmone8baseline12_GLOBAL__N_118check_requirementsILNS_6OpcodeE144EEE16evmc_status_codeRKSt5arrayIsLm256EERlPKN4intx4uintILj256EEESE_
FN:151,baseline_execution.cpp:_ZN6evmone8baseline12_GLOBAL__N_16invokeILNS_6OpcodeE145EEENS1_8PositionERKSt5arrayIsLm256EEPKN4intx4uintILj256EEES4_RlRNS_14ExecutionStateE
FN:46,baseline_execution.cpp:_ZN6evmone8baseline12_GLOBAL__N_118check_requirementsILNS_6OpcodeE145EEE16evmc_status_codeRKSt5arrayIsLm256EERlPKN4intx4uintILj256EEESE_
FN:151,baseline_execution.cpp:_ZN6evmone8baseline12_GLOBAL__N_16invokeILNS_6OpcodeE146EEENS1_8PositionERKSt5arrayIsLm256EEPKN4intx4uintILj256EEES4_RlRNS_14ExecutionStateE
FN:46,baseline_execution.cpp:_ZN6evmone8baseline12_GLOBAL__N_118check_requirementsILNS_6OpcodeE146EEE16evmc_status_codeRKSt5arrayIsLm256EERlPKN4intx4uintILj256EEESE_
FN:151,baseline_execution.cpp:_ZN6evmone8baseline12_GLOBAL__N_16invokeILNS_6OpcodeE147EEENS1_8PositionERKSt5arrayIsLm256EEPKN4intx4uintILj256EEES4_RlRNS_14ExecutionStateE
FN:46,baseline_execution.cpp:_ZN6evmone8baseline12_GLOBAL__N_118check_requirementsILNS_6OpcodeE147EEE16evmc_status_codeRKSt5arrayIsLm256EERlPKN4intx4uintILj256EEESE_
FN:151,baseline_execution.cpp:_ZN6evmone8baseline12_GLOBAL__N_16invokeILNS_6OpcodeE148EEENS1_8PositionERKSt5arrayIsLm256EEPKN4intx4uintILj256EEES4_RlRNS_14ExecutionStateE
FN:46,baseline_execution.cpp:_ZN6evmone8baseline12_GLOBAL__N_118check_requirementsILNS_6OpcodeE148EEE16evmc_status_codeRKSt5arrayIsLm256EERlPKN4intx4uintILj256EEESE_
FN:151,baseline_execution.cpp:_ZN6evmone8baseline12_GLOBAL__N_16invokeILNS_6OpcodeE149EEENS1_8PositionERKSt5arrayIsLm256EEPKN4intx4uintILj256EEES4_RlRNS_14ExecutionStateE
FN:46,baseline_execution.cpp:_ZN6evmone8baseline12_GLOBAL__N_118check_requirementsILNS_6OpcodeE149EEE16evmc_status_codeRKSt5arrayIsLm256EERlPKN4intx4uintILj256EEESE_
FN:151,baseline_execution.cpp:_ZN6evmone8baseline12_GLOBAL__N_16invokeILNS_6OpcodeE150EEENS1_8PositionERKSt5arrayIsLm256EEPKN4intx4uintILj256EEES4_RlRNS_14ExecutionStateE
FN:46,baseline_execution.cpp:_ZN6evmone8baseline12_GLOBAL__N_118check_requirementsILNS_6OpcodeE150EEE16evmc_status_codeRKSt5arrayIsLm256EERlPKN4intx4uintILj256EEESE_
FN:151,baseline_execution.cpp:_ZN6evmone8baseline12_GLOBAL__N_16invokeILNS_6OpcodeE151EEENS1_8PositionERKSt5arrayIsLm256EEPKN4intx4uintILj256EEES4_RlRNS_14ExecutionStateE
FN:46,baseline_execution.cpp:_ZN6evmone8baseline12_GLOBAL__N_118check_requirementsILNS_6OpcodeE151EEE16evmc_status_codeRKSt5arrayIsLm256EERlPKN4intx4uintILj256EEESE_
FN:151,baseline_execution.cpp:_ZN6evmone8baseline12_GLOBAL__N_16invokeILNS_6OpcodeE152EEENS1_8PositionERKSt5arrayIsLm256EEPKN4intx4uintILj256EEES4_RlRNS_14ExecutionStateE
FN:46,baseline_execution.cpp:_ZN6evmone8baseline12_GLOBAL__N_118check_requirementsILNS_6OpcodeE152EEE16evmc_status_codeRKSt5arrayIsLm256EERlPKN4intx4uintILj256EEESE_
FN:151,baseline_execution.cpp:_ZN6evmone8baseline12_GLOBAL__N_16invokeILNS_6OpcodeE153EEENS1_8PositionERKSt5arrayIsLm256EEPKN4intx4uintILj256EEES4_RlRNS_14ExecutionStateE
FN:46,baseline_execution.cpp:_ZN6evmone8baseline12_GLOBAL__N_118check_requirementsILNS_6OpcodeE153EEE16evmc_status_codeRKSt5arrayIsLm256EERlPKN4intx4uintILj256EEESE_
FN:151,baseline_execution.cpp:_ZN6evmone8baseline12_GLOBAL__N_16invokeILNS_6OpcodeE154EEENS1_8PositionERKSt5arrayIsLm256EEPKN4intx4uintILj256EEES4_RlRNS_14ExecutionStateE
FN:46,baseline_execution.cpp:_ZN6evmone8baseline12_GLOBAL__N_118check_requirementsILNS_6OpcodeE154EEE16evmc_status_codeRKSt5arrayIsLm256EERlPKN4intx4uintILj256EEESE_
FN:151,baseline_execution.cpp:_ZN6evmone8baseline12_GLOBAL__N_16invokeILNS_6OpcodeE155EEENS1_8PositionERKSt5arrayIsLm256EEPKN4intx4uintILj256EEES4_RlRNS_14ExecutionStateE
FN:46,baseline_execution.cpp:_ZN6evmone8baseline12_GLOBAL__N_118check_requirementsILNS_6OpcodeE155EEE16evmc_status_codeRKSt5arrayIsLm256EERlPKN4intx4uintILj256EEESE_
FN:151,baseline_execution.cpp:_ZN6evmone8baseline12_GLOBAL__N_16invokeILNS_6OpcodeE156EEENS1_8PositionERKSt5arrayIsLm256EEPKN4intx4uintILj256EEES4_RlRNS_14ExecutionStateE
FN:46,baseline_execution.cpp:_ZN6evmone8baseline12_GLOBAL__N_118check_requirementsILNS_6OpcodeE156EEE16evmc_status_codeRKSt5arrayIsLm256EERlPKN4intx4uintILj256EEESE_
FN:151,baseline_execution.cpp:_ZN6evmone8baseline12_GLOBAL__N_16invokeILNS_6OpcodeE157EEENS1_8PositionERKSt5arrayIsLm256EEPKN4intx4uintILj256EEES4_RlRNS_14ExecutionStateE
FN:46,baseline_execution.cpp:_ZN6evmone8baseline12_GLOBAL__N_118check_requirementsILNS_6OpcodeE157EEE16evmc_status_codeRKSt5arrayIsLm256EERlPKN4intx4uintILj256EEESE_
FN:151,baseline_execution.cpp:_ZN6evmone8baseline12_GLOBAL__N_16invokeILNS_6OpcodeE158EEENS1_8PositionERKSt5arrayIsLm256EEPKN4intx4uintILj256EEES4_RlRNS_14ExecutionStateE
FN:46,baseline_execution.cpp:_ZN6evmone8baseline12_GLOBAL__N_118check_requirementsILNS_6OpcodeE158EEE16evmc_status_codeRKSt5arrayIsLm256EERlPKN4intx4uintILj256EEESE_
FN:151,baseline_execution.cpp:_ZN6evmone8baseline12_GLOBAL__N_16invokeILNS_6OpcodeE159EEENS1_8PositionERKSt5arrayIsLm256EEPKN4intx4uintILj256EEES4_RlRNS_14ExecutionStateE
FN:46,baseline_execution.cpp:_ZN6evmone8baseline12_GLOBAL__N_118check_requirementsILNS_6OpcodeE159EEE16evmc_status_codeRKSt5arrayIsLm256EERlPKN4intx4uintILj256EEESE_
FN:151,baseline_execution.cpp:_ZN6evmone8baseline12_GLOBAL__N_16invokeILNS_6OpcodeE160EEENS1_8PositionERKSt5arrayIsLm256EEPKN4intx4uintILj256EEES4_RlRNS_14ExecutionStateE
FN:46,baseline_execution.cpp:_ZN6evmone8baseline12_GLOBAL__N_118check_requirementsILNS_6OpcodeE160EEE16evmc_status_codeRKSt5arrayIsLm256EERlPKN4intx4uintILj256EEESE_
FN:151,baseline_execution.cpp:_ZN6evmone8baseline12_GLOBAL__N_16invokeILNS_6OpcodeE161EEENS1_8PositionERKSt5arrayIsLm256EEPKN4intx4uintILj256EEES4_RlRNS_14ExecutionStateE
FN:46,baseline_execution.cpp:_ZN6evmone8baseline12_GLOBAL__N_118check_requirementsILNS_6OpcodeE161EEE16evmc_status_codeRKSt5arrayIsLm256EERlPKN4intx4uintILj256EEESE_
FN:151,baseline_execution.cpp:_ZN6evmone8baseline12_GLOBAL__N_16invokeILNS_6OpcodeE162EEENS1_8PositionERKSt5arrayIsLm256EEPKN4intx4uintILj256EEES4_RlRNS_14ExecutionStateE
FN:46,baseline_execution.cpp:_ZN6evmone8baseline12_GLOBAL__N_118check_requirementsILNS_6OpcodeE162EEE16evmc_status_codeRKSt5arrayIsLm256EERlPKN4intx4uintILj256EEESE_
FN:151,baseline_execution.cpp:_ZN6evmone8baseline12_GLOBAL__N_16invokeILNS_6OpcodeE163EEENS1_8PositionERKSt5arrayIsLm256EEPKN4intx4uintILj256EEES4_RlRNS_14ExecutionStateE
FN:46,baseline_execution.cpp:_ZN6evmone8baseline12_GLOBAL__N_118check_requirementsILNS_6OpcodeE163EEE16evmc_status_codeRKSt5arrayIsLm256EERlPKN4intx4uintILj256EEESE_
FN:151,baseline_execution.cpp:_ZN6evmone8baseline12_GLOBAL__N_16invokeILNS_6OpcodeE164EEENS1_8PositionERKSt5arrayIsLm256EEPKN4intx4uintILj256EEES4_RlRNS_14ExecutionStateE
FN:46,baseline_execution.cpp:_ZN6evmone8baseline12_GLOBAL__N_118check_requirementsILNS_6OpcodeE164EEE16evmc_status_codeRKSt5arrayIsLm256EERlPKN4intx4uintILj256EEESE_
FN:151,baseline_execution.cpp:_ZN6evmone8baseline12_GLOBAL__N_16invokeILNS_6OpcodeE240EEENS1_8PositionERKSt5arrayIsLm256EEPKN4intx4uintILj256EEES4_RlRNS_14ExecutionStateE
FN:46,baseline_execution.cpp:_ZN6evmone8baseline12_GLOBAL__N_118check_requirementsILNS_6OpcodeE240EEE16evmc_status_codeRKSt5arrayIsLm256EERlPKN4intx4uintILj256EEESE_
FN:151,baseline_execution.cpp:_ZN6evmone8baseline12_GLOBAL__N_16invokeILNS_6OpcodeE241EEENS1_8PositionERKSt5arrayIsLm256EEPKN4intx4uintILj256EEES4_RlRNS_14ExecutionStateE
FN:46,baseline_execution.cpp:_ZN6evmone8baseline12_GLOBAL__N_118check_requirementsILNS_6OpcodeE241EEE16evmc_status_codeRKSt5arrayIsLm256EERlPKN4intx4uintILj256EEESE_
FN:151,baseline_execution.cpp:_ZN6evmone8baseline12_GLOBAL__N_16invokeILNS_6OpcodeE242EEENS1_8PositionERKSt5arrayIsLm256EEPKN4intx4uintILj256EEES4_RlRNS_14ExecutionStateE
FN:46,baseline_execution.cpp:_ZN6evmone8baseline12_GLOBAL__N_118check_requirementsILNS_6OpcodeE242EEE16evmc_status_codeRKSt5arrayIsLm256EERlPKN4intx4uintILj256EEESE_
FN:151,baseline_execution.cpp:_ZN6evmone8baseline12_GLOBAL__N_16invokeILNS_6OpcodeE243EEENS1_8PositionERKSt5arrayIsLm256EEPKN4intx4uintILj256EEES4_RlRNS_14ExecutionStateE
FN:46,baseline_execution.cpp:_ZN6evmone8baseline12_GLOBAL__N_118check_requirementsILNS_6OpcodeE243EEE16evmc_status_codeRKSt5arrayIsLm256EERlPKN4intx4uintILj256EEESE_
FN:151,baseline_execution.cpp:_ZN6evmone8baseline12_GLOBAL__N_16invokeILNS_6OpcodeE244EEENS1_8PositionERKSt5arrayIsLm256EEPKN4intx4uintILj256EEES4_RlRNS_14ExecutionStateE
FN:46,baseline_execution.cpp:_ZN6evmone8baseline12_GLOBAL__N_118check_requirementsILNS_6OpcodeE244EEE16evmc_status_codeRKSt5arrayIsLm256EERlPKN4intx4uintILj256EEESE_
FN:151,baseline_execution.cpp:_ZN6evmone8baseline12_GLOBAL__N_16invokeILNS_6OpcodeE245EEENS1_8PositionERKSt5arrayIsLm256EEPKN4intx4uintILj256EEES4_RlRNS_14ExecutionStateE
FN:46,baseline_execution.cpp:_ZN6evmone8baseline12_GLOBAL__N_118check_requirementsILNS_6OpcodeE245EEE16evmc_status_codeRKSt5arrayIsLm256EERlPKN4intx4uintILj256EEESE_
FN:151,baseline_execution.cpp:_ZN6evmone8baseline12_GLOBAL__N_16invokeILNS_6OpcodeE250EEENS1_8PositionERKSt5arrayIsLm256EEPKN4intx4uintILj256EEES4_RlRNS_14ExecutionStateE
FN:46,baseline_execution.cpp:_ZN6evmone8baseline12_GLOBAL__N_118check_requirementsILNS_6OpcodeE250EEE16evmc_status_codeRKSt5arrayIsLm256EERlPKN4intx4uintILj256EEESE_
FN:151,baseline_execution.cpp:_ZN6evmone8baseline12_GLOBAL__N_16invokeILNS_6OpcodeE253EEENS1_8PositionERKSt5arrayIsLm256EEPKN4intx4uintILj256EEES4_RlRNS_14ExecutionStateE
FN:46,baseline_execution.cpp:_ZN6evmone8baseline12_GLOBAL__N_118check_requirementsILNS_6OpcodeE253EEE16evmc_status_codeRKSt5arrayIsLm256EERlPKN4intx4uintILj256EEESE_
FN:151,baseline_execution.cpp:_ZN6evmone8baseline12_GLOBAL__N_16invokeILNS_6OpcodeE254EEENS1_8PositionERKSt5arrayIsLm256EEPKN4intx4uintILj256EEES4_RlRNS_14ExecutionStateE
FN:46,baseline_execution.cpp:_ZN6evmone8baseline12_GLOBAL__N_118check_requirementsILNS_6OpcodeE254EEE16evmc_status_codeRKSt5arrayIsLm256EERlPKN4intx4uintILj256EEESE_
FN:151,baseline_execution.cpp:_ZN6evmone8baseline12_GLOBAL__N_16invokeILNS_6OpcodeE255EEENS1_8PositionERKSt5arrayIsLm256EEPKN4intx4uintILj256EEES4_RlRNS_14ExecutionStateE
FN:46,baseline_execution.cpp:_ZN6evmone8baseline12_GLOBAL__N_118check_requirementsILNS_6OpcodeE255EEE16evmc_status_codeRKSt5arrayIsLm256EERlPKN4intx4uintILj256EEESE_
FN:167,baseline_execution.cpp:_ZN6evmone8baseline12_GLOBAL__N_18dispatchILb1EEElRKSt5arrayIsLm256EERNS_14ExecutionStateElPKhPNS_6TracerE
FN:167,baseline_execution.cpp:_ZN6evmone8baseline12_GLOBAL__N_18dispatchILb0EEElRKSt5arrayIsLm256EERNS_14ExecutionStateElPKhPNS_6TracerE
FNDA:2785059,_ZN6evmone8baseline7executeERNS_2VMERK19evmc_host_interfaceP17evmc_host_context13evmc_revisionRK12evmc_messageRKNS0_12CodeAnalysisE
FNDA:2785059,_ZN6evmone8baseline7executeEP7evmc_vmPK19evmc_host_interfaceP17evmc_host_context13evmc_revisionPK12evmc_messagePKhm
FNDA:2785059,baseline_execution.cpp:_ZN6evmone8baseline12_GLOBAL__N_114dispatch_cgotoERKSt5arrayIsLm256EERNS_14ExecutionStateElPKh
FNDA:1421483,baseline_execution.cpp:_ZN6evmone8baseline12_GLOBAL__N_16invokeILNS_6OpcodeE0EEENS1_8PositionERKSt5arrayIsLm256EEPKN4intx4uintILj256EEES4_RlRNS_14ExecutionStateE
FNDA:1421483,baseline_execution.cpp:_ZN6evmone8baseline12_GLOBAL__N_118check_requirementsILNS_6OpcodeE0EEE16evmc_status_codeRKSt5arrayIsLm256EERlPKN4intx4uintILj256EEESE_
FNDA:1992225,baseline_execution.cpp:_ZN6evmone8baseline12_GLOBAL__N_16invokeEPDoFNS_10TermResultENS_8StackTopElRNS_14ExecutionStateEENS1_8PositionERlS5_
FNDA:15891429,baseline_execution.cpp:_ZN6evmone8baseline12_GLOBAL__N_16invokeILNS_6OpcodeE1EEENS1_8PositionERKSt5arrayIsLm256EEPKN4intx4uintILj256EEES4_RlRNS_14ExecutionStateE
FNDA:15891429,baseline_execution.cpp:_ZN6evmone8baseline12_GLOBAL__N_118check_requirementsILNS_6OpcodeE1EEE16evmc_status_codeRKSt5arrayIsLm256EERlPKN4intx4uintILj256EEESE_
FNDA:73240123,baseline_execution.cpp:_ZN6evmone8baseline12_GLOBAL__N_16invokeEPDoFvNS_8StackTopEENS1_8PositionERlRNS_14ExecutionStateE
FNDA:244381,baseline_execution.cpp:_ZN6evmone8baseline12_GLOBAL__N_16invokeILNS_6OpcodeE2EEENS1_8PositionERKSt5arrayIsLm256EEPKN4intx4uintILj256EEES4_RlRNS_14ExecutionStateE
FNDA:244381,baseline_execution.cpp:_ZN6evmone8baseline12_GLOBAL__N_118check_requirementsILNS_6OpcodeE2EEE16evmc_status_codeRKSt5arrayIsLm256EERlPKN4intx4uintILj256EEESE_
FNDA:3314336,baseline_execution.cpp:_ZN6evmone8baseline12_GLOBAL__N_16invokeILNS_6OpcodeE3EEENS1_8PositionERKSt5arrayIsLm256EEPKN4intx4uintILj256EEES4_RlRNS_14ExecutionStateE
FNDA:3314336,baseline_execution.cpp:_ZN6evmone8baseline12_GLOBAL__N_118check_requirementsILNS_6OpcodeE3EEE16evmc_status_codeRKSt5arrayIsLm256EERlPKN4intx4uintILj256EEESE_
FNDA:46515,baseline_execution.cpp:_ZN6evmone8baseline12_GLOBAL__N_16invokeILNS_6OpcodeE4EEENS1_8PositionERKSt5arrayIsLm256EEPKN4intx4uintILj256EEES4_RlRNS_14ExecutionStateE
FNDA:46515,baseline_execution.cpp:_ZN6evmone8baseline12_GLOBAL__N_118check_requirementsILNS_6OpcodeE4EEE16evmc_status_codeRKSt5arrayIsLm256EERlPKN4intx4uintILj256EEESE_
FNDA:4089,baseline_execution.cpp:_ZN6evmone8baseline12_GLOBAL__N_16invokeILNS_6OpcodeE5EEENS1_8PositionERKSt5arrayIsLm256EEPKN4intx4uintILj256EEES4_RlRNS_14ExecutionStateE
FNDA:4089,baseline_execution.cpp:_ZN6evmone8baseline12_GLOBAL__N_118check_requirementsILNS_6OpcodeE5EEE16evmc_status_codeRKSt5arrayIsLm256EERlPKN4intx4uintILj256EEESE_
FNDA:158521,baseline_execution.cpp:_ZN6evmone8baseline12_GLOBAL__N_16invokeILNS_6OpcodeE6EEENS1_8PositionERKSt5arrayIsLm256EEPKN4intx4uintILj256EEES4_RlRNS_14ExecutionStateE
FNDA:158521,baseline_execution.cpp:_ZN6evmone8baseline12_GLOBAL__N_118check_requirementsILNS_6OpcodeE6EEE16evmc_status_codeRKSt5arrayIsLm256EERlPKN4intx4uintILj256EEESE_
FNDA:3624,baseline_execution.cpp:_ZN6evmone8baseline12_GLOBAL__N_16invokeILNS_6OpcodeE7EEENS1_8PositionERKSt5arrayIsLm256EEPKN4intx4uintILj256EEES4_RlRNS_14ExecutionStateE
FNDA:3624,baseline_execution.cpp:_ZN6evmone8baseline12_GLOBAL__N_118check_requirementsILNS_6OpcodeE7EEE16evmc_status_codeRKSt5arrayIsLm256EERlPKN4intx4uintILj256EEESE_
FNDA:2110,baseline_execution.cpp:_ZN6evmone8baseline12_GLOBAL__N_16invokeILNS_6OpcodeE8EEENS1_8PositionERKSt5arrayIsLm256EEPKN4intx4uintILj256EEES4_RlRNS_14ExecutionStateE
FNDA:2110,baseline_execution.cpp:_ZN6evmone8baseline12_GLOBAL__N_118check_requirementsILNS_6OpcodeE8EEE16evmc_status_codeRKSt5arrayIsLm256EERlPKN4intx4uintILj256EEESE_
FNDA:2384,baseline_execution.cpp:_ZN6evmone8baseline12_GLOBAL__N_16invokeILNS_6OpcodeE9EEENS1_8PositionERKSt5arrayIsLm256EEPKN4intx4uintILj256EEES4_RlRNS_14ExecutionStateE
FNDA:2384,baseline_execution.cpp:_ZN6evmone8baseline12_GLOBAL__N_118check_requirementsILNS_6OpcodeE9EEE16evmc_status_codeRKSt5arrayIsLm256EERlPKN4intx4uintILj256EEESE_
FNDA:37476,baseline_execution.cpp:_ZN6evmone8baseline12_GLOBAL__N_16invokeILNS_6OpcodeE10EEENS1_8PositionERKSt5arrayIsLm256EEPKN4intx4uintILj256EEES4_RlRNS_14ExecutionStateE
FNDA:37476,baseline_execution.cpp:_ZN6evmone8baseline12_GLOBAL__N_118check_requirementsILNS_6OpcodeE10EEE16evmc_status_codeRKSt5arrayIsLm256EERlPKN4intx4uintILj256EEESE_
FNDA:57549520,baseline_execution.cpp:_ZN6evmone8baseline12_GLOBAL__N_16invokeEPDoFNS_6ResultENS_8StackTopElRNS_14ExecutionStateEENS1_8PositionERlS5_
FNDA:2640,baseline_execution.cpp:_ZN6evmone8baseline12_GLOBAL__N_16invokeILNS_6OpcodeE11EEENS1_8PositionERKSt5arrayIsLm256EEPKN4intx4uintILj256EEES4_RlRNS_14ExecutionStateE
FNDA:2640,baseline_execution.cpp:_ZN6evmone8baseline12_GLOBAL__N_118check_requirementsILNS_6OpcodeE11EEE16evmc_status_codeRKSt5arrayIsLm256EERlPKN4intx4uintILj256EEESE_
FNDA:2935926,baseline_execution.cpp:_ZN6evmone8baseline12_GLOBAL__N_16invokeILNS_6OpcodeE16EEENS1_8PositionERKSt5arrayIsLm256EEPKN4intx4uintILj256EEES4_RlRNS_14ExecutionStateE
FNDA:2935926,baseline_execution.cpp:_ZN6evmone8baseline12_GLOBAL__N_118check_requirementsILNS_6OpcodeE16EEE16evmc_status_codeRKSt5arrayIsLm256EERlPKN4intx4uintILj256EEESE_
FNDA:403833,baseline_execution.cpp:_ZN6evmone8baseline12_GLOBAL__N_16invokeILNS_6OpcodeE17EEENS1_8PositionERKSt5arrayIsLm256EEPKN4intx4uintILj256EEES4_RlRNS_14ExecutionStateE
FNDA:403833,baseline_execution.cpp:_ZN6evmone8baseline12_GLOBAL__N_118check_requirementsILNS_6OpcodeE17EEE16evmc_status_codeRKSt5arrayIsLm256EERlPKN4intx4uintILj256EEESE_
FNDA:6622,baseline_execution.cpp:_ZN6evmone8baseline12_GLOBAL__N_16invokeILNS_6OpcodeE18EEENS1_8PositionERKSt5arrayIsLm256EEPKN4intx4uintILj256EEES4_RlRNS_14ExecutionStateE
FNDA:6622,baseline_execution.cpp:_ZN6evmone8baseline12_GLOBAL__N_118check_requirementsILNS_6OpcodeE18EEE16evmc_status_codeRKSt5arrayIsLm256EERlPKN4intx4uintILj256EEESE_
FNDA:6262,baseline_execution.cpp:_ZN6evmone8baseline12_GLOBAL__N_16invokeILNS_6OpcodeE19EEENS1_8PositionERKSt5arrayIsLm256EEPKN4intx4uintILj256EEES4_RlRNS_14ExecutionStateE
FNDA:6262,baseline_execution.cpp:_ZN6evmone8baseline12_GLOBAL__N_118check_requirementsILNS_6OpcodeE19EEE16evmc_status_codeRKSt5arrayIsLm256EERlPKN4intx4uintILj256EEESE_
FNDA:841632,baseline_execution.cpp:_ZN6evmone8baseline12_GLOBAL__N_16invokeILNS_6OpcodeE20EEENS1_8PositionERKSt5arrayIsLm256EEPKN4intx4uintILj256EEES4_RlRNS_14ExecutionStateE
FNDA:841632,baseline_execution.cpp:_ZN6evmone8baseline12_GLOBAL__N_118check_requirementsILNS_6OpcodeE20EEE16evmc_status_codeRKSt5arrayIsLm256EERlPKN4intx4uintILj256EEESE_
FNDA:5288622,baseline_execution.cpp:_ZN6evmone8baseline12_GLOBAL__N_16invokeILNS_6OpcodeE21EEENS1_8PositionERKSt5arrayIsLm256EEPKN4intx4uintILj256EEES4_RlRNS_14ExecutionStateE
FNDA:5288622,baseline_execution.cpp:_ZN6evmone8baseline12_GLOBAL__N_118check_requirementsILNS_6OpcodeE21EEE16evmc_status_codeRKSt5arrayIsLm256EERlPKN4intx4uintILj256EEESE_
FNDA:125205,baseline_execution.cpp:_ZN6evmone8baseline12_GLOBAL__N_16invokeILNS_6OpcodeE22EEENS1_8PositionERKSt5arrayIsLm256EEPKN4intx4uintILj256EEES4_RlRNS_14ExecutionStateE
FNDA:125205,baseline_execution.cpp:_ZN6evmone8baseline12_GLOBAL__N_118check_requirementsILNS_6OpcodeE22EEE16evmc_status_codeRKSt5arrayIsLm256EERlPKN4intx4uintILj256EEESE_
FNDA:51107,baseline_execution.cpp:_ZN6evmone8baseline12_GLOBAL__N_16invokeILNS_6OpcodeE23EEENS1_8PositionERKSt5arrayIsLm256EEPKN4intx4uintILj256EEES4_RlRNS_14ExecutionStateE
FNDA:51107,baseline_execution.cpp:_ZN6evmone8baseline12_GLOBAL__N_118check_requirementsILNS_6OpcodeE23EEE16evmc_status_codeRKSt5arrayIsLm256EERlPKN4intx4uintILj256EEESE_
FNDA:1726,baseline_execution.cpp:_ZN6evmone8baseline12_GLOBAL__N_16invokeILNS_6OpcodeE24EEENS1_8PositionERKSt5arrayIsLm256EEPKN4intx4uintILj256EEES4_RlRNS_14ExecutionStateE
FNDA:1726,baseline_execution.cpp:_ZN6evmone8baseline12_GLOBAL__N_118check_requirementsILNS_6OpcodeE24EEE16evmc_status_codeRKSt5arrayIsLm256EERlPKN4intx4uintILj256EEESE_
FNDA:67838,baseline_execution.cpp:_ZN6evmone8baseline12_GLOBAL__N_16invokeILNS_6OpcodeE25EEENS1_8PositionERKSt5arrayIsLm256EEPKN4intx4uintILj256EEES4_RlRNS_14ExecutionStateE
FNDA:67838,baseline_execution.cpp:_ZN6evmone8baseline12_GLOBAL__N_118check_requirementsILNS_6OpcodeE25EEE16evmc_status_codeRKSt5arrayIsLm256EERlPKN4intx4uintILj256EEESE_
FNDA:75504,baseline_execution.cpp:_ZN6evmone8baseline12_GLOBAL__N_16invokeILNS_6OpcodeE26EEENS1_8PositionERKSt5arrayIsLm256EEPKN4intx4uintILj256EEES4_RlRNS_14ExecutionStateE
FNDA:75504,baseline_execution.cpp:_ZN6evmone8baseline12_GLOBAL__N_118check_requirementsILNS_6OpcodeE26EEE16evmc_status_codeRKSt5arrayIsLm256EERlPKN4intx4uintILj256EEESE_
FNDA:3467772,baseline_execution.cpp:_ZN6evmone8baseline12_GLOBAL__N_16invokeILNS_6OpcodeE27EEENS1_8PositionERKSt5arrayIsLm256EEPKN4intx4uintILj256EEES4_RlRNS_14ExecutionStateE
FNDA:3467772,baseline_execution.cpp:_ZN6evmone8baseline12_GLOBAL__N_118check_requirementsILNS_6OpcodeE27EEE16evmc_status_codeRKSt5arrayIsLm256EERlPKN4intx4uintILj256EEESE_
FNDA:19422,baseline_execution.cpp:_ZN6evmone8baseline12_GLOBAL__N_16invokeILNS_6OpcodeE28EEENS1_8PositionERKSt5arrayIsLm256EEPKN4intx4uintILj256EEES4_RlRNS_14ExecutionStateE
FNDA:19422,baseline_execution.cpp:_ZN6evmone8baseline12_GLOBAL__N_118check_requirementsILNS_6OpcodeE28EEE16evmc_status_codeRKSt5arrayIsLm256EERlPKN4intx4uintILj256EEESE_
FNDA:9149,baseline_execution.cpp:_ZN6evmone8baseline12_GLOBAL__N_16invokeILNS_6OpcodeE29EEENS1_8PositionERKSt5arrayIsLm256EEPKN4intx4uintILj256EEES4_RlRNS_14ExecutionStateE
FNDA:9149,baseline_execution.cpp:_ZN6evmone8baseline12_GLOBAL__N_118check_requirementsILNS_6OpcodeE29EEE16evmc_status_codeRKSt5arrayIsLm256EERlPKN4intx4uintILj256EEESE_
FNDA:3341,baseline_execution.cpp:_ZN6evmone8baseline12_GLOBAL__N_16invokeILNS_6OpcodeE30EEENS1_8PositionERKSt5arrayIsLm256EEPKN4intx4uintILj256EEES4_RlRNS_14ExecutionStateE
FNDA:3341,baseline_execution.cpp:_ZN6evmone8baseline12_GLOBAL__N_118check_requirementsILNS_6OpcodeE30EEE16evmc_status_codeRKSt5arrayIsLm256EERlPKN4intx4uintILj256EEESE_
FNDA:15860,baseline_execution.cpp:_ZN6evmone8baseline12_GLOBAL__N_16invokeILNS_6OpcodeE32EEENS1_8PositionERKSt5arrayIsLm256EEPKN4intx4uintILj256EEES4_RlRNS_14ExecutionStateE
FNDA:15860,baseline_execution.cpp:_ZN6evmone8baseline12_GLOBAL__N_118check_requirementsILNS_6OpcodeE32EEE16evmc_status_codeRKSt5arrayIsLm256EERlPKN4intx4uintILj256EEESE_
FNDA:57073,baseline_execution.cpp:_ZN6evmone8baseline12_GLOBAL__N_16invokeILNS_6OpcodeE48EEENS1_8PositionERKSt5arrayIsLm256EEPKN4intx4uintILj256EEES4_RlRNS_14ExecutionStateE
FNDA:57073,baseline_execution.cpp:_ZN6evmone8baseline12_GLOBAL__N_118check_requirementsILNS_6OpcodeE48EEE16evmc_status_codeRKSt5arrayIsLm256EERlPKN4intx4uintILj256EEESE_
FNDA:4818559,baseline_execution.cpp:_ZN6evmone8baseline12_GLOBAL__N_16invokeEPDoFvNS_8StackTopERNS_14ExecutionStateEENS1_8PositionERlS4_
FNDA:9796,baseline_execution.cpp:_ZN6evmone8baseline12_GLOBAL__N_16invokeILNS_6OpcodeE49EEENS1_8PositionERKSt5arrayIsLm256EEPKN4intx4uintILj256EEES4_RlRNS_14ExecutionStateE
FNDA:9796,baseline_execution.cpp:_ZN6evmone8baseline12_GLOBAL__N_118check_requirementsILNS_6OpcodeE49EEE16evmc_status_codeRKSt5arrayIsLm256EERlPKN4intx4uintILj256EEESE_
FNDA:23721,baseline_execution.cpp:_ZN6evmone8baseline12_GLOBAL__N_16invokeILNS_6OpcodeE50EEENS1_8PositionERKSt5arrayIsLm256EEPKN4intx4uintILj256EEES4_RlRNS_14ExecutionStateE
FNDA:23721,baseline_execution.cpp:_ZN6evmone8baseline12_GLOBAL__N_118check_requirementsILNS_6OpcodeE50EEE16evmc_status_codeRKSt5arrayIsLm256EERlPKN4intx4uintILj256EEESE_
FNDA:276057,baseline_execution.cpp:_ZN6evmone8baseline12_GLOBAL__N_16invokeILNS_6OpcodeE51EEENS1_8PositionERKSt5arrayIsLm256EEPKN4intx4uintILj256EEES4_RlRNS_14ExecutionStateE
FNDA:276057,baseline_execution.cpp:_ZN6evmone8baseline12_GLOBAL__N_118check_requirementsILNS_6OpcodeE51EEE16evmc_status_codeRKSt5arrayIsLm256EERlPKN4intx4uintILj256EEESE_
FNDA:24820,baseline_execution.cpp:_ZN6evmone8baseline12_GLOBAL__N_16invokeILNS_6OpcodeE52EEENS1_8PositionERKSt5arrayIsLm256EEPKN4intx4uintILj256EEES4_RlRNS_14ExecutionStateE
FNDA:24820,baseline_execution.cpp:_ZN6evmone8baseline12_GLOBAL__N_118check_requirementsILNS_6OpcodeE52EEE16evmc_status_codeRKSt5arrayIsLm256EERlPKN4intx4uintILj256EEESE_
FNDA:1830655,baseline_execution.cpp:_ZN6evmone8baseline12_GLOBAL__N_16invokeILNS_6OpcodeE53EEENS1_8PositionERKSt5arrayIsLm256EEPKN4intx4uintILj256EEES4_RlRNS_14ExecutionStateE
FNDA:1830655,baseline_execution.cpp:_ZN6evmone8baseline12_GLOBAL__N_118check_requirementsILNS_6OpcodeE53EEE16evmc_status_codeRKSt5arrayIsLm256EERlPKN4intx4uintILj256EEESE_
FNDA:185091,baseline_execution.cpp:_ZN6evmone8baseline12_GLOBAL__N_16invokeILNS_6OpcodeE54EEENS1_8PositionERKSt5arrayIsLm256EEPKN4intx4uintILj256EEES4_RlRNS_14ExecutionStateE
FNDA:185091,baseline_execution.cpp:_ZN6evmone8baseline12_GLOBAL__N_118check_requirementsILNS_6OpcodeE54EEE16evmc_status_codeRKSt5arrayIsLm256EERlPKN4intx4uintILj256EEESE_
FNDA:127711,baseline_execution.cpp:_ZN6evmone8baseline12_GLOBAL__N_16invokeILNS_6OpcodeE55EEENS1_8PositionERKSt5arrayIsLm256EEPKN4intx4uintILj256EEES4_RlRNS_14ExecutionStateE
FNDA:127711,baseline_execution.cpp:_ZN6evmone8baseline12_GLOBAL__N_118check_requirementsILNS_6OpcodeE55EEE16evmc_status_codeRKSt5arrayIsLm256EERlPKN4intx4uintILj256EEESE_
FNDA:21765,baseline_execution.cpp:_ZN6evmone8baseline12_GLOBAL__N_16invokeILNS_6OpcodeE56EEENS1_8PositionERKSt5arrayIsLm256EEPKN4intx4uintILj256EEES4_RlRNS_14ExecutionStateE
FNDA:21765,baseline_execution.cpp:_ZN6evmone8baseline12_GLOBAL__N_118check_requirementsILNS_6OpcodeE56EEE16evmc_status_codeRKSt5arrayIsLm256EERlPKN4intx4uintILj256EEESE_
FNDA:23528,baseline_execution.cpp:_ZN6evmone8baseline12_GLOBAL__N_16invokeILNS_6OpcodeE57EEENS1_8PositionERKSt5arrayIsLm256EEPKN4intx4uintILj256EEES4_RlRNS_14ExecutionStateE
FNDA:23528,baseline_execution.cpp:_ZN6evmone8baseline12_GLOBAL__N_118check_requirementsILNS_6OpcodeE57EEE16evmc_status_codeRKSt5arrayIsLm256EERlPKN4intx4uintILj256EEESE_
FNDA:13515,baseline_execution.cpp:_ZN6evmone8baseline12_GLOBAL__N_16invokeILNS_6OpcodeE58EEENS1_8PositionERKSt5arrayIsLm256EEPKN4intx4uintILj256EEES4_RlRNS_14ExecutionStateE
FNDA:13515,baseline_execution.cpp:_ZN6evmone8baseline12_GLOBAL__N_118check_requirementsILNS_6OpcodeE58EEE16evmc_status_codeRKSt5arrayIsLm256EERlPKN4intx4uintILj256EEESE_
FNDA:471711,baseline_execution.cpp:_ZN6evmone8baseline12_GLOBAL__N_16invokeILNS_6OpcodeE59EEENS1_8PositionERKSt5arrayIsLm256EEPKN4intx4uintILj256EEES4_RlRNS_14ExecutionStateE
FNDA:471711,baseline_execution.cpp:_ZN6evmone8baseline12_GLOBAL__N_118check_requirementsILNS_6OpcodeE59EEE16evmc_status_codeRKSt5arrayIsLm256EERlPKN4intx4uintILj256EEESE_
FNDA:13341,baseline_execution.cpp:_ZN6evmone8baseline12_GLOBAL__N_16invokeILNS_6OpcodeE60EEENS1_8PositionERKSt5arrayIsLm256EEPKN4intx4uintILj256EEES4_RlRNS_14ExecutionStateE
FNDA:13341,baseline_execution.cpp:_ZN6evmone8baseline12_GLOBAL__N_118check_requirementsILNS_6OpcodeE60EEE16evmc_status_codeRKSt5arrayIsLm256EERlPKN4intx4uintILj256EEESE_
FNDA:60804,baseline_execution.cpp:_ZN6evmone8baseline12_GLOBAL__N_16invokeILNS_6OpcodeE61EEENS1_8PositionERKSt5arrayIsLm256EEPKN4intx4uintILj256EEES4_RlRNS_14ExecutionStateE
FNDA:60804,baseline_execution.cpp:_ZN6evmone8baseline12_GLOBAL__N_118check_requirementsILNS_6OpcodeE61EEE16evmc_status_codeRKSt5arrayIsLm256EERlPKN4intx4uintILj256EEESE_
FNDA:9692,baseline_execution.cpp:_ZN6evmone8baseline12_GLOBAL__N_16invokeILNS_6OpcodeE62EEENS1_8PositionERKSt5arrayIsLm256EEPKN4intx4uintILj256EEES4_RlRNS_14ExecutionStateE
FNDA:9692,baseline_execution.cpp:_ZN6evmone8baseline12_GLOBAL__N_118check_requirementsILNS_6OpcodeE62EEE16evmc_status_codeRKSt5arrayIsLm256EERlPKN4intx4uintILj256EEESE_
FNDA:3554,baseline_execution.cpp:_ZN6evmone8baseline12_GLOBAL__N_16invokeILNS_6OpcodeE63EEENS1_8PositionERKSt5arrayIsLm256EEPKN4intx4uintILj256EEES4_RlRNS_14ExecutionStateE
FNDA:3554,baseline_execution.cpp:_ZN6evmone8baseline12_GLOBAL__N_118check_requirementsILNS_6OpcodeE63EEE16evmc_status_codeRKSt5arrayIsLm256EERlPKN4intx4uintILj256EEESE_
FNDA:69978,baseline_execution.cpp:_ZN6evmone8baseline12_GLOBAL__N_16invokeILNS_6OpcodeE64EEENS1_8PositionERKSt5arrayIsLm256EEPKN4intx4uintILj256EEES4_RlRNS_14ExecutionStateE
FNDA:69978,baseline_execution.cpp:_ZN6evmone8baseline12_GLOBAL__N_118check_requirementsILNS_6OpcodeE64EEE16evmc_status_codeRKSt5arrayIsLm256EERlPKN4intx4uintILj256EEESE_
FNDA:15027,baseline_execution.cpp:_ZN6evmone8baseline12_GLOBAL__N_16invokeILNS_6OpcodeE65EEENS1_8PositionERKSt5arrayIsLm256EEPKN4intx4uintILj256EEES4_RlRNS_14ExecutionStateE
FNDA:15027,baseline_execution.cpp:_ZN6evmone8baseline12_GLOBAL__N_118check_requirementsILNS_6OpcodeE65EEE16evmc_status_codeRKSt5arrayIsLm256EERlPKN4intx4uintILj256EEESE_
FNDA:151252,baseline_execution.cpp:_ZN6evmone8baseline12_GLOBAL__N_16invokeILNS_6OpcodeE66EEENS1_8PositionERKSt5arrayIsLm256EEPKN4intx4uintILj256EEES4_RlRNS_14ExecutionStateE
FNDA:151252,baseline_execution.cpp:_ZN6evmone8baseline12_GLOBAL__N_118check_requirementsILNS_6OpcodeE66EEE16evmc_status_codeRKSt5arrayIsLm256EERlPKN4intx4uintILj256EEESE_
FNDA:134925,baseline_execution.cpp:_ZN6evmone8baseline12_GLOBAL__N_16invokeILNS_6OpcodeE67EEENS1_8PositionERKSt5arrayIsLm256EEPKN4intx4uintILj256EEES4_RlRNS_14ExecutionStateE
FNDA:134925,baseline_execution.cpp:_ZN6evmone8baseline12_GLOBAL__N_118check_requirementsILNS_6OpcodeE67EEE16evmc_status_codeRKSt5arrayIsLm256EERlPKN4intx4uintILj256EEESE_
FNDA:13926,baseline_execution.cpp:_ZN6evmone8baseline12_GLOBAL__N_16invokeILNS_6OpcodeE68EEENS1_8PositionERKSt5arrayIsLm256EEPKN4intx4uintILj256EEES4_RlRNS_14ExecutionStateE
FNDA:13926,baseline_execution.cpp:_ZN6evmone8baseline12_GLOBAL__N_118check_requirementsILNS_6OpcodeE68EEE16evmc_status_codeRKSt5arrayIsLm256EERlPKN4intx4uintILj256EEESE_
FNDA:15349,baseline_execution.cpp:_ZN6evmone8baseline12_GLOBAL__N_16invokeILNS_6OpcodeE69EEENS1_8PositionERKSt5arrayIsLm256EEPKN4intx4uintILj256EEES4_RlRNS_14ExecutionStateE
FNDA:15349,baseline_execution.cpp:_ZN6evmone8baseline12_GLOBAL__N_118check_requirementsILNS_6OpcodeE69EEE16evmc_status_codeRKSt5arrayIsLm256EERlPKN4intx4uintILj256EEESE_
FNDA:776,baseline_execution.cpp:_ZN6evmone8baseline12_GLOBAL__N_16invokeILNS_6OpcodeE70EEENS1_8PositionERKSt5arrayIsLm256EEPKN4intx4uintILj256EEES4_RlRNS_14ExecutionStateE
FNDA:776,baseline_execution.cpp:_ZN6evmone8baseline12_GLOBAL__N_118check_requirementsILNS_6OpcodeE70EEE16evmc_status_codeRKSt5arrayIsLm256EERlPKN4intx4uintILj256EEESE_
FNDA:1917,baseline_execution.cpp:_ZN6evmone8baseline12_GLOBAL__N_16invokeILNS_6OpcodeE71EEENS1_8PositionERKSt5arrayIsLm256EEPKN4intx4uintILj256EEES4_RlRNS_14ExecutionStateE
FNDA:1917,baseline_execution.cpp:_ZN6evmone8baseline12_GLOBAL__N_118check_requirementsILNS_6OpcodeE71EEE16evmc_status_codeRKSt5arrayIsLm256EERlPKN4intx4uintILj256EEESE_
FNDA:1042,baseline_execution.cpp:_ZN6evmone8baseline12_GLOBAL__N_16invokeILNS_6OpcodeE72EEENS1_8PositionERKSt5arrayIsLm256EEPKN4intx4uintILj256EEES4_RlRNS_14ExecutionStateE
FNDA:1042,baseline_execution.cpp:_ZN6evmone8baseline12_GLOBAL__N_118check_requirementsILNS_6OpcodeE72EEE16evmc_status_codeRKSt5arrayIsLm256EERlPKN4intx4uintILj256EEESE_
FNDA:3614,baseline_execution.cpp:_ZN6evmone8baseline12_GLOBAL__N_16invokeILNS_6OpcodeE73EEENS1_8PositionERKSt5arrayIsLm256EEPKN4intx4uintILj256EEES4_RlRNS_14ExecutionStateE
FNDA:3614,baseline_execution.cpp:_ZN6evmone8baseline12_GLOBAL__N_118check_requirementsILNS_6OpcodeE73EEE16evmc_status_codeRKSt5arrayIsLm256EERlPKN4intx4uintILj256EEESE_
FNDA:13612,baseline_execution.cpp:_ZN6evmone8baseline12_GLOBAL__N_16invokeILNS_6OpcodeE74EEENS1_8PositionERKSt5arrayIsLm256EEPKN4intx4uintILj256EEES4_RlRNS_14ExecutionStateE
FNDA:13612,baseline_execution.cpp:_ZN6evmone8baseline12_GLOBAL__N_118check_requirementsILNS_6OpcodeE74EEE16evmc_status_codeRKSt5arrayIsLm256EERlPKN4intx4uintILj256EEESE_
FNDA:4526146,baseline_execution.cpp:_ZN6evmone8baseline12_GLOBAL__N_16invokeILNS_6OpcodeE80EEENS1_8PositionERKSt5arrayIsLm256EEPKN4intx4uintILj256EEES4_RlRNS_14ExecutionStateE
FNDA:4526146,baseline_execution.cpp:_ZN6evmone8baseline12_GLOBAL__N_118check_requirementsILNS_6OpcodeE80EEE16evmc_status_codeRKSt5arrayIsLm256EERlPKN4intx4uintILj256EEESE_
FNDA:12297052,baseline_execution.cpp:_ZN6evmone8baseline12_GLOBAL__N_16invokeILNS_6OpcodeE81EEENS1_8PositionERKSt5arrayIsLm256EEPKN4intx4uintILj256EEES4_RlRNS_14ExecutionStateE
FNDA:12297052,baseline_execution.cpp:_ZN6evmone8baseline12_GLOBAL__N_118check_requirementsILNS_6OpcodeE81EEE16evmc_status_codeRKSt5arrayIsLm256EERlPKN4intx4uintILj256EEESE_
FNDA:8725818,baseline_execution.cpp:_ZN6evmone8baseline12_GLOBAL__N_16invokeILNS_6OpcodeE82EEENS1_8PositionERKSt5arrayIsLm256EEPKN4intx4uintILj256EEES4_RlRNS_14ExecutionStateE
FNDA:8725818,baseline_execution.cpp:_ZN6evmone8baseline12_GLOBAL__N_118check_requirementsILNS_6OpcodeE82EEE16evmc_status_codeRKSt5arrayIsLm256EERlPKN4intx4uintILj256EEESE_
FNDA:158863,baseline_execution.cpp:_ZN6evmone8baseline12_GLOBAL__N_16invokeILNS_6OpcodeE83EEENS1_8PositionERKSt5arrayIsLm256EEPKN4intx4uintILj256EEES4_RlRNS_14ExecutionStateE
FNDA:158863,baseline_execution.cpp:_ZN6evmone8baseline12_GLOBAL__N_118check_requirementsILNS_6OpcodeE83EEE16evmc_status_codeRKSt5arrayIsLm256EERlPKN4intx4uintILj256EEESE_
FNDA:1026505,baseline_execution.cpp:_ZN6evmone8baseline12_GLOBAL__N_16invokeILNS_6OpcodeE84EEENS1_8PositionERKSt5arrayIsLm256EEPKN4intx4uintILj256EEES4_RlRNS_14ExecutionStateE
FNDA:1026505,baseline_execution.cpp:_ZN6evmone8baseline12_GLOBAL__N_118check_requirementsILNS_6OpcodeE84EEE16evmc_status_codeRKSt5arrayIsLm256EERlPKN4intx4uintILj256EEESE_
FNDA:4732510,baseline_execution.cpp:_ZN6evmone8baseline12_GLOBAL__N_16invokeILNS_6OpcodeE85EEENS1_8PositionERKSt5arrayIsLm256EEPKN4intx4uintILj256EEES4_RlRNS_14ExecutionStateE
FNDA:4732510,baseline_execution.cpp:_ZN6evmone8baseline12_GLOBAL__N_118check_requirementsILNS_6OpcodeE85EEE16evmc_status_codeRKSt5arrayIsLm256EERlPKN4intx4uintILj256EEESE_
FNDA:5519368,baseline_execution.cpp:_ZN6evmone8baseline12_GLOBAL__N_16invokeILNS_6OpcodeE86EEENS1_8PositionERKSt5arrayIsLm256EEPKN4intx4uintILj256EEES4_RlRNS_14ExecutionStateE
FNDA:5519368,baseline_execution.cpp:_ZN6evmone8baseline12_GLOBAL__N_118check_requirementsILNS_6OpcodeE86EEE16evmc_status_codeRKSt5arrayIsLm256EERlPKN4intx4uintILj256EEESE_
FNDA:114773559,baseline_execution.cpp:_ZN6evmone8baseline12_GLOBAL__N_16invokeEPDoFPKhNS_8StackTopERNS_14ExecutionStateES3_ENS1_8PositionERlS6_
FNDA:7133414,baseline_execution.cpp:_ZN6evmone8baseline12_GLOBAL__N_16invokeILNS_6OpcodeE87EEENS1_8PositionERKSt5arrayIsLm256EEPKN4intx4uintILj256EEES4_RlRNS_14ExecutionStateE
FNDA:7133414,baseline_execution.cpp:_ZN6evmone8baseline12_GLOBAL__N_118check_requirementsILNS_6OpcodeE87EEE16evmc_status_codeRKSt5arrayIsLm256EERlPKN4intx4uintILj256EEESE_
FNDA:5688649,baseline_execution.cpp:_ZN6evmone8baseline12_GLOBAL__N_16invokeILNS_6OpcodeE88EEENS1_8PositionERKSt5arrayIsLm256EEPKN4intx4uintILj256EEES4_RlRNS_14ExecutionStateE
FNDA:5688649,baseline_execution.cpp:_ZN6evmone8baseline12_GLOBAL__N_118check_requirementsILNS_6OpcodeE88EEE16evmc_status_codeRKSt5arrayIsLm256EERlPKN4intx4uintILj256EEESE_
FNDA:16725,baseline_execution.cpp:_ZN6evmone8baseline12_GLOBAL__N_16invokeILNS_6OpcodeE89EEENS1_8PositionERKSt5arrayIsLm256EEPKN4intx4uintILj256EEES4_RlRNS_14ExecutionStateE
FNDA:16725,baseline_execution.cpp:_ZN6evmone8baseline12_GLOBAL__N_118check_requirementsILNS_6OpcodeE89EEE16evmc_status_codeRKSt5arrayIsLm256EERlPKN4intx4uintILj256EEESE_
FNDA:16593110,baseline_execution.cpp:_ZN6evmone8baseline12_GLOBAL__N_16invokeILNS_6OpcodeE90EEENS1_8PositionERKSt5arrayIsLm256EEPKN4intx4uintILj256EEES4_RlRNS_14ExecutionStateE
FNDA:16593110,baseline_execution.cpp:_ZN6evmone8baseline12_GLOBAL__N_118check_requirementsILNS_6OpcodeE90EEE16evmc_status_codeRKSt5arrayIsLm256EERlPKN4intx4uintILj256EEESE_
FNDA:24092024,baseline_execution.cpp:_ZN6evmone8baseline12_GLOBAL__N_16invokeILNS_6OpcodeE91EEENS1_8PositionERKSt5arrayIsLm256EEPKN4intx4uintILj256EEES4_RlRNS_14ExecutionStateE
FNDA:24092024,baseline_execution.cpp:_ZN6evmone8baseline12_GLOBAL__N_118check_requirementsILNS_6OpcodeE91EEE16evmc_status_codeRKSt5arrayIsLm256EERlPKN4intx4uintILj256EEESE_
FNDA:1890981,baseline_execution.cpp:_ZN6evmone8baseline12_GLOBAL__N_16invokeILNS_6OpcodeE92EEENS1_8PositionERKSt5arrayIsLm256EEPKN4intx4uintILj256EEES4_RlRNS_14ExecutionStateE
FNDA:1890981,baseline_execution.cpp:_ZN6evmone8baseline12_GLOBAL__N_118check_requirementsILNS_6OpcodeE92EEE16evmc_status_codeRKSt5arrayIsLm256EERlPKN4intx4uintILj256EEESE_
FNDA:9080140,baseline_execution.cpp:_ZN6evmone8baseline12_GLOBAL__N_16invokeILNS_6OpcodeE93EEENS1_8PositionERKSt5arrayIsLm256EEPKN4intx4uintILj256EEES4_RlRNS_14ExecutionStateE
FNDA:9080140,baseline_execution.cpp:_ZN6evmone8baseline12_GLOBAL__N_118check_requirementsILNS_6OpcodeE93EEE16evmc_status_codeRKSt5arrayIsLm256EERlPKN4intx4uintILj256EEESE_
FNDA:2013,baseline_execution.cpp:_ZN6evmone8baseline12_GLOBAL__N_16invokeILNS_6OpcodeE94EEENS1_8PositionERKSt5arrayIsLm256EEPKN4intx4uintILj256EEES4_RlRNS_14ExecutionStateE
FNDA:2013,baseline_execution.cpp:_ZN6evmone8baseline12_GLOBAL__N_118check_requirementsILNS_6OpcodeE94EEE16evmc_status_codeRKSt5arrayIsLm256EERlPKN4intx4uintILj256EEESE_
FNDA:1182755,baseline_execution.cpp:_ZN6evmone8baseline12_GLOBAL__N_16invokeILNS_6OpcodeE95EEENS1_8PositionERKSt5arrayIsLm256EEPKN4intx4uintILj256EEES4_RlRNS_14ExecutionStateE
FNDA:1182755,baseline_execution.cpp:_ZN6evmone8baseline12_GLOBAL__N_118check_requirementsILNS_6OpcodeE95EEE16evmc_status_codeRKSt5arrayIsLm256EERlPKN4intx4uintILj256EEESE_
FNDA:81219525,baseline_execution.cpp:_ZN6evmone8baseline12_GLOBAL__N_16invokeILNS_6OpcodeE96EEENS1_8PositionERKSt5arrayIsLm256EEPKN4intx4uintILj256EEES4_RlRNS_14ExecutionStateE
FNDA:81219525,baseline_execution.cpp:_ZN6evmone8baseline12_GLOBAL__N_118check_requirementsILNS_6OpcodeE96EEE16evmc_status_codeRKSt5arrayIsLm256EERlPKN4intx4uintILj256EEESE_
FNDA:10060494,baseline_execution.cpp:_ZN6evmone8baseline12_GLOBAL__N_16invokeILNS_6OpcodeE97EEENS1_8PositionERKSt5arrayIsLm256EEPKN4intx4uintILj256EEES4_RlRNS_14ExecutionStateE
FNDA:10060494,baseline_execution.cpp:_ZN6evmone8baseline12_GLOBAL__N_118check_requirementsILNS_6OpcodeE97EEE16evmc_status_codeRKSt5arrayIsLm256EERlPKN4intx4uintILj256EEESE_
FNDA:1335750,baseline_execution.cpp:_ZN6evmone8baseline12_GLOBAL__N_16invokeILNS_6OpcodeE98EEENS1_8PositionERKSt5arrayIsLm256EEPKN4intx4uintILj256EEES4_RlRNS_14ExecutionStateE
FNDA:1335750,baseline_execution.cpp:_ZN6evmone8baseline12_GLOBAL__N_118check_requirementsILNS_6OpcodeE98EEE16evmc_status_codeRKSt5arrayIsLm256EERlPKN4intx4uintILj256EEESE_
FNDA:120239,baseline_execution.cpp:_ZN6evmone8baseline12_GLOBAL__N_16invokeILNS_6OpcodeE99EEENS1_8PositionERKSt5arrayIsLm256EEPKN4intx4uintILj256EEES4_RlRNS_14ExecutionStateE
FNDA:120239,baseline_execution.cpp:_ZN6evmone8baseline12_GLOBAL__N_118check_requirementsILNS_6OpcodeE99EEE16evmc_status_codeRKSt5arrayIsLm256EERlPKN4intx4uintILj256EEESE_
FNDA:57868,baseline_execution.cpp:_ZN6evmone8baseline12_GLOBAL__N_16invokeILNS_6OpcodeE100EEENS1_8PositionERKSt5arrayIsLm256EEPKN4intx4uintILj256EEES4_RlRNS_14ExecutionStateE
FNDA:57868,baseline_execution.cpp:_ZN6evmone8baseline12_GLOBAL__N_118check_requirementsILNS_6OpcodeE100EEE16evmc_status_codeRKSt5arrayIsLm256EERlPKN4intx4uintILj256EEESE_
FNDA:111350,baseline_execution.cpp:_ZN6evmone8baseline12_GLOBAL__N_16invokeILNS_6OpcodeE101EEENS1_8PositionERKSt5arrayIsLm256EEPKN4intx4uintILj256EEES4_RlRNS_14ExecutionStateE
FNDA:111350,baseline_execution.cpp:_ZN6evmone8baseline12_GLOBAL__N_118check_requirementsILNS_6OpcodeE101EEE16evmc_status_codeRKSt5arrayIsLm256EERlPKN4intx4uintILj256EEESE_
FNDA:46765,baseline_execution.cpp:_ZN6evmone8baseline12_GLOBAL__N_16invokeILNS_6OpcodeE102EEENS1_8PositionERKSt5arrayIsLm256EEPKN4intx4uintILj256EEES4_RlRNS_14ExecutionStateE
FNDA:46765,baseline_execution.cpp:_ZN6evmone8baseline12_GLOBAL__N_118check_requirementsILNS_6OpcodeE102EEE16evmc_status_codeRKSt5arrayIsLm256EERlPKN4intx4uintILj256EEESE_
FNDA:47247,baseline_execution.cpp:_ZN6evmone8baseline12_GLOBAL__N_16invokeILNS_6OpcodeE103EEENS1_8PositionERKSt5arrayIsLm256EEPKN4intx4uintILj256EEES4_RlRNS_14ExecutionStateE
FNDA:47247,baseline_execution.cpp:_ZN6evmone8baseline12_GLOBAL__N_118check_requirementsILNS_6OpcodeE103EEE16evmc_status_codeRKSt5arrayIsLm256EERlPKN4intx4uintILj256EEESE_
FNDA:42013,baseline_execution.cpp:_ZN6evmone8baseline12_GLOBAL__N_16invokeILNS_6OpcodeE104EEENS1_8PositionERKSt5arrayIsLm256EEPKN4intx4uintILj256EEES4_RlRNS_14ExecutionStateE
FNDA:42013,baseline_execution.cpp:_ZN6evmone8baseline12_GLOBAL__N_118check_requirementsILNS_6OpcodeE104EEE16evmc_status_codeRKSt5arrayIsLm256EERlPKN4intx4uintILj256EEESE_
FNDA:34835,baseline_execution.cpp:_ZN6evmone8baseline12_GLOBAL__N_16invokeILNS_6OpcodeE105EEENS1_8PositionERKSt5arrayIsLm256EEPKN4intx4uintILj256EEES4_RlRNS_14ExecutionStateE
FNDA:34835,baseline_execution.cpp:_ZN6evmone8baseline12_GLOBAL__N_118check_requirementsILNS_6OpcodeE105EEE16evmc_status_codeRKSt5arrayIsLm256EERlPKN4intx4uintILj256EEESE_
FNDA:28957,baseline_execution.cpp:_ZN6evmone8baseline12_GLOBAL__N_16invokeILNS_6OpcodeE106EEENS1_8PositionERKSt5arrayIsLm256EEPKN4intx4uintILj256EEES4_RlRNS_14ExecutionStateE
FNDA:28957,baseline_execution.cpp:_ZN6evmone8baseline12_GLOBAL__N_118check_requirementsILNS_6OpcodeE106EEE16evmc_status_codeRKSt5arrayIsLm256EERlPKN4intx4uintILj256EEESE_
FNDA:40609,baseline_execution.cpp:_ZN6evmone8baseline12_GLOBAL__N_16invokeILNS_6OpcodeE107EEENS1_8PositionERKSt5arrayIsLm256EEPKN4intx4uintILj256EEES4_RlRNS_14ExecutionStateE
FNDA:40609,baseline_execution.cpp:_ZN6evmone8baseline12_GLOBAL__N_118check_requirementsILNS_6OpcodeE107EEE16evmc_status_codeRKSt5arrayIsLm256EERlPKN4intx4uintILj256EEESE_
FNDA:38920,baseline_execution.cpp:_ZN6evmone8baseline12_GLOBAL__N_16invokeILNS_6OpcodeE108EEENS1_8PositionERKSt5arrayIsLm256EEPKN4intx4uintILj256EEES4_RlRNS_14ExecutionStateE
FNDA:38920,baseline_execution.cpp:_ZN6evmone8baseline12_GLOBAL__N_118check_requirementsILNS_6OpcodeE108EEE16evmc_status_codeRKSt5arrayIsLm256EERlPKN4intx4uintILj256EEESE_
FNDA:34213,baseline_execution.cpp:_ZN6evmone8baseline12_GLOBAL__N_16invokeILNS_6OpcodeE109EEENS1_8PositionERKSt5arrayIsLm256EEPKN4intx4uintILj256EEES4_RlRNS_14ExecutionStateE
FNDA:34213,baseline_execution.cpp:_ZN6evmone8baseline12_GLOBAL__N_118check_requirementsILNS_6OpcodeE109EEE16evmc_status_codeRKSt5arrayIsLm256EERlPKN4intx4uintILj256EEESE_
FNDA:29169,baseline_execution.cpp:_ZN6evmone8baseline12_GLOBAL__N_16invokeILNS_6OpcodeE110EEENS1_8PositionERKSt5arrayIsLm256EEPKN4intx4uintILj256EEES4_RlRNS_14ExecutionStateE
FNDA:29169,baseline_execution.cpp:_ZN6evmone8baseline12_GLOBAL__N_118check_requirementsILNS_6OpcodeE110EEE16evmc_status_codeRKSt5arrayIsLm256EERlPKN4intx4uintILj256EEESE_
FNDA:48789,baseline_execution.cpp:_ZN6evmone8baseline12_GLOBAL__N_16invokeILNS_6OpcodeE111EEENS1_8PositionERKSt5arrayIsLm256EEPKN4intx4uintILj256EEES4_RlRNS_14ExecutionStateE
FNDA:48789,baseline_execution.cpp:_ZN6evmone8baseline12_GLOBAL__N_118check_requirementsILNS_6OpcodeE111EEE16evmc_status_codeRKSt5arrayIsLm256EERlPKN4intx4uintILj256EEESE_
FNDA:21385,baseline_execution.cpp:_ZN6evmone8baseline12_GLOBAL__N_16invokeILNS_6OpcodeE112EEENS1_8PositionERKSt5arrayIsLm256EEPKN4intx4uintILj256EEES4_RlRNS_14ExecutionStateE
FNDA:21385,baseline_execution.cpp:_ZN6evmone8baseline12_GLOBAL__N_118check_requirementsILNS_6OpcodeE112EEE16evmc_status_codeRKSt5arrayIsLm256EERlPKN4intx4uintILj256EEESE_
FNDA:66344,baseline_execution.cpp:_ZN6evmone8baseline12_GLOBAL__N_16invokeILNS_6OpcodeE113EEENS1_8PositionERKSt5arrayIsLm256EEPKN4intx4uintILj256EEES4_RlRNS_14ExecutionStateE
FNDA:66344,baseline_execution.cpp:_ZN6evmone8baseline12_GLOBAL__N_118check_requirementsILNS_6OpcodeE113EEE16evmc_status_codeRKSt5arrayIsLm256EERlPKN4intx4uintILj256EEESE_
FNDA:31753,baseline_execution.cpp:_ZN6evmone8baseline12_GLOBAL__N_16invokeILNS_6OpcodeE114EEENS1_8PositionERKSt5arrayIsLm256EEPKN4intx4uintILj256EEES4_RlRNS_14ExecutionStateE
FNDA:31753,baseline_execution.cpp:_ZN6evmone8baseline12_GLOBAL__N_118check_requirementsILNS_6OpcodeE114EEE16evmc_status_codeRKSt5arrayIsLm256EERlPKN4intx4uintILj256EEESE_
FNDA:2265880,baseline_execution.cpp:_ZN6evmone8baseline12_GLOBAL__N_16invokeILNS_6OpcodeE115EEENS1_8PositionERKSt5arrayIsLm256EEPKN4intx4uintILj256EEES4_RlRNS_14ExecutionStateE
FNDA:2265880,baseline_execution.cpp:_ZN6evmone8baseline12_GLOBAL__N_118check_requirementsILNS_6OpcodeE115EEE16evmc_status_codeRKSt5arrayIsLm256EERlPKN4intx4uintILj256EEESE_
FNDA:45125,baseline_execution.cpp:_ZN6evmone8baseline12_GLOBAL__N_16invokeILNS_6OpcodeE116EEENS1_8PositionERKSt5arrayIsLm256EEPKN4intx4uintILj256EEES4_RlRNS_14ExecutionStateE
FNDA:45125,baseline_execution.cpp:_ZN6evmone8baseline12_GLOBAL__N_118check_requirementsILNS_6OpcodeE116EEE16evmc_status_codeRKSt5arrayIsLm256EERlPKN4intx4uintILj256EEESE_
FNDA:37487,baseline_execution.cpp:_ZN6evmone8baseline12_GLOBAL__N_16invokeILNS_6OpcodeE117EEENS1_8PositionERKSt5arrayIsLm256EEPKN4intx4uintILj256EEES4_RlRNS_14ExecutionStateE
FNDA:37487,baseline_execution.cpp:_ZN6evmone8baseline12_GLOBAL__N_118check_requirementsILNS_6OpcodeE117EEE16evmc_status_codeRKSt5arrayIsLm256EERlPKN4intx4uintILj256EEESE_
FNDA:38427,baseline_execution.cpp:_ZN6evmone8baseline12_GLOBAL__N_16invokeILNS_6OpcodeE118EEENS1_8PositionERKSt5arrayIsLm256EEPKN4intx4uintILj256EEES4_RlRNS_14ExecutionStateE
FNDA:38427,baseline_execution.cpp:_ZN6evmone8baseline12_GLOBAL__N_118check_requirementsILNS_6OpcodeE118EEE16evmc_status_codeRKSt5arrayIsLm256EERlPKN4intx4uintILj256EEESE_
FNDA:31945,baseline_execution.cpp:_ZN6evmone8baseline12_GLOBAL__N_16invokeILNS_6OpcodeE119EEENS1_8PositionERKSt5arrayIsLm256EEPKN4intx4uintILj256EEES4_RlRNS_14ExecutionStateE
FNDA:31945,baseline_execution.cpp:_ZN6evmone8baseline12_GLOBAL__N_118check_requirementsILNS_6OpcodeE119EEE16evmc_status_codeRKSt5arrayIsLm256EERlPKN4intx4uintILj256EEESE_
FNDA:30275,baseline_execution.cpp:_ZN6evmone8baseline12_GLOBAL__N_16invokeILNS_6OpcodeE120EEENS1_8PositionERKSt5arrayIsLm256EEPKN4intx4uintILj256EEES4_RlRNS_14ExecutionStateE
FNDA:30275,baseline_execution.cpp:_ZN6evmone8baseline12_GLOBAL__N_118check_requirementsILNS_6OpcodeE120EEE16evmc_status_codeRKSt5arrayIsLm256EERlPKN4intx4uintILj256EEESE_
FNDA:41093,baseline_execution.cpp:_ZN6evmone8baseline12_GLOBAL__N_16invokeILNS_6OpcodeE121EEENS1_8PositionERKSt5arrayIsLm256EEPKN4intx4uintILj256EEES4_RlRNS_14ExecutionStateE
FNDA:41093,baseline_execution.cpp:_ZN6evmone8baseline12_GLOBAL__N_118check_requirementsILNS_6OpcodeE121EEE16evmc_status_codeRKSt5arrayIsLm256EERlPKN4intx4uintILj256EEESE_
FNDA:42207,baseline_execution.cpp:_ZN6evmone8baseline12_GLOBAL__N_16invokeILNS_6OpcodeE122EEENS1_8PositionERKSt5arrayIsLm256EEPKN4intx4uintILj256EEES4_RlRNS_14ExecutionStateE
FNDA:42207,baseline_execution.cpp:_ZN6evmone8baseline12_GLOBAL__N_118check_requirementsILNS_6OpcodeE122EEE16evmc_status_codeRKSt5arrayIsLm256EERlPKN4intx4uintILj256EEESE_
FNDA:28847,baseline_execution.cpp:_ZN6evmone8baseline12_GLOBAL__N_16invokeILNS_6OpcodeE123EEENS1_8PositionERKSt5arrayIsLm256EEPKN4intx4uintILj256EEES4_RlRNS_14ExecutionStateE
FNDA:28847,baseline_execution.cpp:_ZN6evmone8baseline12_GLOBAL__N_118check_requirementsILNS_6OpcodeE123EEE16evmc_status_codeRKSt5arrayIsLm256EERlPKN4intx4uintILj256EEESE_
FNDA:34473,baseline_execution.cpp:_ZN6evmone8baseline12_GLOBAL__N_16invokeILNS_6OpcodeE124EEENS1_8PositionERKSt5arrayIsLm256EEPKN4intx4uintILj256EEES4_RlRNS_14ExecutionStateE
FNDA:34473,baseline_execution.cpp:_ZN6evmone8baseline12_GLOBAL__N_118check_requirementsILNS_6OpcodeE124EEE16evmc_status_codeRKSt5arrayIsLm256EERlPKN4intx4uintILj256EEESE_
FNDA:25093,baseline_execution.cpp:_ZN6evmone8baseline12_GLOBAL__N_16invokeILNS_6OpcodeE125EEENS1_8PositionERKSt5arrayIsLm256EEPKN4intx4uintILj256EEES4_RlRNS_14ExecutionStateE
FNDA:25093,baseline_execution.cpp:_ZN6evmone8baseline12_GLOBAL__N_118check_requirementsILNS_6OpcodeE125EEE16evmc_status_codeRKSt5arrayIsLm256EERlPKN4intx4uintILj256EEESE_
FNDA:92024,baseline_execution.cpp:_ZN6evmone8baseline12_GLOBAL__N_16invokeILNS_6OpcodeE126EEENS1_8PositionERKSt5arrayIsLm256EEPKN4intx4uintILj256EEES4_RlRNS_14ExecutionStateE
FNDA:92024,baseline_execution.cpp:_ZN6evmone8baseline12_GLOBAL__N_118check_requirementsILNS_6OpcodeE126EEE16evmc_status_codeRKSt5arrayIsLm256EERlPKN4intx4uintILj256EEESE_
FNDA:308988,baseline_execution.cpp:_ZN6evmone8baseline12_GLOBAL__N_16invokeILNS_6OpcodeE127EEENS1_8PositionERKSt5arrayIsLm256EEPKN4intx4uintILj256EEES4_RlRNS_14ExecutionStateE
FNDA:308988,baseline_execution.cpp:_ZN6evmone8baseline12_GLOBAL__N_118check_requirementsILNS_6OpcodeE127EEE16evmc_status_codeRKSt5arrayIsLm256EERlPKN4intx4uintILj256EEESE_
FNDA:5878450,baseline_execution.cpp:_ZN6evmone8baseline12_GLOBAL__N_16invokeILNS_6OpcodeE128EEENS1_8PositionERKSt5arrayIsLm256EEPKN4intx4uintILj256EEES4_RlRNS_14ExecutionStateE
FNDA:5878450,baseline_execution.cpp:_ZN6evmone8baseline12_GLOBAL__N_118check_requirementsILNS_6OpcodeE128EEE16evmc_status_codeRKSt5arrayIsLm256EERlPKN4intx4uintILj256EEESE_
FNDA:1251724,baseline_execution.cpp:_ZN6evmone8baseline12_GLOBAL__N_16invokeILNS_6OpcodeE129EEENS1_8PositionERKSt5arrayIsLm256EEPKN4intx4uintILj256EEES4_RlRNS_14ExecutionStateE
FNDA:1251724,baseline_execution.cpp:_ZN6evmone8baseline12_GLOBAL__N_118check_requirementsILNS_6OpcodeE129EEE16evmc_status_codeRKSt5arrayIsLm256EERlPKN4intx4uintILj256EEESE_
FNDA:617473,baseline_execution.cpp:_ZN6evmone8baseline12_GLOBAL__N_16invokeILNS_6OpcodeE130EEENS1_8PositionERKSt5arrayIsLm256EEPKN4intx4uintILj256EEES4_RlRNS_14ExecutionStateE
FNDA:617473,baseline_execution.cpp:_ZN6evmone8baseline12_GLOBAL__N_118check_requirementsILNS_6OpcodeE130EEE16evmc_status_codeRKSt5arrayIsLm256EERlPKN4intx4uintILj256EEESE_
FNDA:283222,baseline_execution.cpp:_ZN6evmone8baseline12_GLOBAL__N_16invokeILNS_6OpcodeE131EEENS1_8PositionERKSt5arrayIsLm256EEPKN4intx4uintILj256EEES4_RlRNS_14ExecutionStateE
FNDA:283222,baseline_execution.cpp:_ZN6evmone8baseline12_GLOBAL__N_118check_requirementsILNS_6OpcodeE131EEE16evmc_status_codeRKSt5arrayIsLm256EERlPKN4intx4uintILj256EEESE_
FNDA:123504,baseline_execution.cpp:_ZN6evmone8baseline12_GLOBAL__N_16invokeILNS_6OpcodeE132EEENS1_8PositionERKSt5arrayIsLm256EEPKN4intx4uintILj256EEES4_RlRNS_14ExecutionStateE
FNDA:123504,baseline_execution.cpp:_ZN6evmone8baseline12_GLOBAL__N_118check_requirementsILNS_6OpcodeE132EEE16evmc_status_codeRKSt5arrayIsLm256EERlPKN4intx4uintILj256EEESE_
FNDA:63402,baseline_execution.cpp:_ZN6evmone8baseline12_GLOBAL__N_16invokeILNS_6OpcodeE133EEENS1_8PositionERKSt5arrayIsLm256EEPKN4intx4uintILj256EEES4_RlRNS_14ExecutionStateE
FNDA:63402,baseline_execution.cpp:_ZN6evmone8baseline12_GLOBAL__N_118check_requirementsILNS_6OpcodeE133EEE16evmc_status_codeRKSt5arrayIsLm256EERlPKN4intx4uintILj256EEESE_
FNDA:49093,baseline_execution.cpp:_ZN6evmone8baseline12_GLOBAL__N_16invokeILNS_6OpcodeE134EEENS1_8PositionERKSt5arrayIsLm256EEPKN4intx4uintILj256EEES4_RlRNS_14ExecutionStateE
FNDA:49093,baseline_execution.cpp:_ZN6evmone8baseline12_GLOBAL__N_118check_requirementsILNS_6OpcodeE134EEE16evmc_status_codeRKSt5arrayIsLm256EERlPKN4intx4uintILj256EEESE_
FNDA:443711,baseline_execution.cpp:_ZN6evmone8baseline12_GLOBAL__N_16invokeILNS_6OpcodeE135EEENS1_8PositionERKSt5arrayIsLm256EEPKN4intx4uintILj256EEES4_RlRNS_14ExecutionStateE
FNDA:443711,baseline_execution.cpp:_ZN6evmone8baseline12_GLOBAL__N_118check_requirementsILNS_6OpcodeE135EEE16evmc_status_codeRKSt5arrayIsLm256EERlPKN4intx4uintILj256EEESE_
FNDA:26676,baseline_execution.cpp:_ZN6evmone8baseline12_GLOBAL__N_16invokeILNS_6OpcodeE136EEENS1_8PositionERKSt5arrayIsLm256EEPKN4intx4uintILj256EEES4_RlRNS_14ExecutionStateE
FNDA:26676,baseline_execution.cpp:_ZN6evmone8baseline12_GLOBAL__N_118check_requirementsILNS_6OpcodeE136EEE16evmc_status_codeRKSt5arrayIsLm256EERlPKN4intx4uintILj256EEESE_
FNDA:52533,baseline_execution.cpp:_ZN6evmone8baseline12_GLOBAL__N_16invokeILNS_6OpcodeE137EEENS1_8PositionERKSt5arrayIsLm256EEPKN4intx4uintILj256EEES4_RlRNS_14ExecutionStateE
FNDA:52533,baseline_execution.cpp:_ZN6evmone8baseline12_GLOBAL__N_118check_requirementsILNS_6OpcodeE137EEE16evmc_status_codeRKSt5arrayIsLm256EERlPKN4intx4uintILj256EEESE_
FNDA:24630,baseline_execution.cpp:_ZN6evmone8baseline12_GLOBAL__N_16invokeILNS_6OpcodeE138EEENS1_8PositionERKSt5arrayIsLm256EEPKN4intx4uintILj256EEES4_RlRNS_14ExecutionStateE
FNDA:24630,baseline_execution.cpp:_ZN6evmone8baseline12_GLOBAL__N_118check_requirementsILNS_6OpcodeE138EEE16evmc_status_codeRKSt5arrayIsLm256EERlPKN4intx4uintILj256EEESE_
FNDA:16614,baseline_execution.cpp:_ZN6evmone8baseline12_GLOBAL__N_16invokeILNS_6OpcodeE139EEENS1_8PositionERKSt5arrayIsLm256EEPKN4intx4uintILj256EEES4_RlRNS_14ExecutionStateE
FNDA:16614,baseline_execution.cpp:_ZN6evmone8baseline12_GLOBAL__N_118check_requirementsILNS_6OpcodeE139EEE16evmc_status_codeRKSt5arrayIsLm256EERlPKN4intx4uintILj256EEESE_
FNDA:30155,baseline_execution.cpp:_ZN6evmone8baseline12_GLOBAL__N_16invokeILNS_6OpcodeE140EEENS1_8PositionERKSt5arrayIsLm256EEPKN4intx4uintILj256EEES4_RlRNS_14ExecutionStateE
FNDA:30155,baseline_execution.cpp:_ZN6evmone8baseline12_GLOBAL__N_118check_requirementsILNS_6OpcodeE140EEE16evmc_status_codeRKSt5arrayIsLm256EERlPKN4intx4uintILj256EEESE_
FNDA:15062,baseline_execution.cpp:_ZN6evmone8baseline12_GLOBAL__N_16invokeILNS_6OpcodeE141EEENS1_8PositionERKSt5arrayIsLm256EEPKN4intx4uintILj256EEES4_RlRNS_14ExecutionStateE
FNDA:15062,baseline_execution.cpp:_ZN6evmone8baseline12_GLOBAL__N_118check_requirementsILNS_6OpcodeE141EEE16evmc_status_codeRKSt5arrayIsLm256EERlPKN4intx4uintILj256EEESE_
FNDA:25070,baseline_execution.cpp:_ZN6evmone8baseline12_GLOBAL__N_16invokeILNS_6OpcodeE142EEENS1_8PositionERKSt5arrayIsLm256EEPKN4intx4uintILj256EEES4_RlRNS_14ExecutionStateE
FNDA:25070,baseline_execution.cpp:_ZN6evmone8baseline12_GLOBAL__N_118check_requirementsILNS_6OpcodeE142EEE16evmc_status_codeRKSt5arrayIsLm256EERlPKN4intx4uintILj256EEESE_
FNDA:17311,baseline_execution.cpp:_ZN6evmone8baseline12_GLOBAL__N_16invokeILNS_6OpcodeE143EEENS1_8PositionERKSt5arrayIsLm256EEPKN4intx4uintILj256EEES4_RlRNS_14ExecutionStateE
FNDA:17311,baseline_execution.cpp:_ZN6evmone8baseline12_GLOBAL__N_118check_requirementsILNS_6OpcodeE143EEE16evmc_status_codeRKSt5arrayIsLm256EERlPKN4intx4uintILj256EEESE_
FNDA:716340,baseline_execution.cpp:_ZN6evmone8baseline12_GLOBAL__N_16invokeILNS_6OpcodeE144EEENS1_8PositionERKSt5arrayIsLm256EEPKN4intx4uintILj256EEES4_RlRNS_14ExecutionStateE
FNDA:716340,baseline_execution.cpp:_ZN6evmone8baseline12_GLOBAL__N_118check_requirementsILNS_6OpcodeE144EEE16evmc_status_codeRKSt5arrayIsLm256EERlPKN4intx4uintILj256EEESE_
FNDA:394939,baseline_execution.cpp:_ZN6evmone8baseline12_GLOBAL__N_16invokeILNS_6OpcodeE145EEENS1_8PositionERKSt5arrayIsLm256EEPKN4intx4uintILj256EEES4_RlRNS_14ExecutionStateE
FNDA:394939,baseline_execution.cpp:_ZN6evmone8baseline12_GLOBAL__N_118check_requirementsILNS_6OpcodeE145EEE16evmc_status_codeRKSt5arrayIsLm256EERlPKN4intx4uintILj256EEESE_
FNDA:268294,baseline_execution.cpp:_ZN6evmone8baseline12_GLOBAL__N_16invokeILNS_6OpcodeE146EEENS1_8PositionERKSt5arrayIsLm256EEPKN4intx4uintILj256EEES4_RlRNS_14ExecutionStateE
FNDA:268294,baseline_execution.cpp:_ZN6evmone8baseline12_GLOBAL__N_118check_requirementsILNS_6OpcodeE146EEE16evmc_status_codeRKSt5arrayIsLm256EERlPKN4intx4uintILj256EEESE_
FNDA:84903,baseline_execution.cpp:_ZN6evmone8baseline12_GLOBAL__N_16invokeILNS_6OpcodeE147EEENS1_8PositionERKSt5arrayIsLm256EEPKN4intx4uintILj256EEES4_RlRNS_14ExecutionStateE
FNDA:84903,baseline_execution.cpp:_ZN6evmone8baseline12_GLOBAL__N_118check_requirementsILNS_6OpcodeE147EEE16evmc_status_codeRKSt5arrayIsLm256EERlPKN4intx4uintILj256EEESE_
FNDA:35838,baseline_execution.cpp:_ZN6evmone8baseline12_GLOBAL__N_16invokeILNS_6OpcodeE148EEENS1_8PositionERKSt5arrayIsLm256EEPKN4intx4uintILj256EEES4_RlRNS_14ExecutionStateE
FNDA:35838,baseline_execution.cpp:_ZN6evmone8baseline12_GLOBAL__N_118check_requirementsILNS_6OpcodeE148EEE16evmc_status_codeRKSt5arrayIsLm256EERlPKN4intx4uintILj256EEESE_
FNDA:8149,baseline_execution.cpp:_ZN6evmone8baseline12_GLOBAL__N_16invokeILNS_6OpcodeE149EEENS1_8PositionERKSt5arrayIsLm256EEPKN4intx4uintILj256EEES4_RlRNS_14ExecutionStateE
FNDA:8149,baseline_execution.cpp:_ZN6evmone8baseline12_GLOBAL__N_118check_requirementsILNS_6OpcodeE149EEE16evmc_status_codeRKSt5arrayIsLm256EERlPKN4intx4uintILj256EEESE_
FNDA:3917,baseline_execution.cpp:_ZN6evmone8baseline12_GLOBAL__N_16invokeILNS_6OpcodeE150EEENS1_8PositionERKSt5arrayIsLm256EEPKN4intx4uintILj256EEES4_RlRNS_14ExecutionStateE
FNDA:3917,baseline_execution.cpp:_ZN6evmone8baseline12_GLOBAL__N_118check_requirementsILNS_6OpcodeE150EEE16evmc_status_codeRKSt5arrayIsLm256EERlPKN4intx4uintILj256EEESE_
FNDA:7827,baseline_execution.cpp:_ZN6evmone8baseline12_GLOBAL__N_16invokeILNS_6OpcodeE151EEENS1_8PositionERKSt5arrayIsLm256EEPKN4intx4uintILj256EEES4_RlRNS_14ExecutionStateE
FNDA:7827,baseline_execution.cpp:_ZN6evmone8baseline12_GLOBAL__N_118check_requirementsILNS_6OpcodeE151EEE16evmc_status_codeRKSt5arrayIsLm256EERlPKN4intx4uintILj256EEESE_
FNDA:5957,baseline_execution.cpp:_ZN6evmone8baseline12_GLOBAL__N_16invokeILNS_6OpcodeE152EEENS1_8PositionERKSt5arrayIsLm256EEPKN4intx4uintILj256EEES4_RlRNS_14ExecutionStateE
FNDA:5957,baseline_execution.cpp:_ZN6evmone8baseline12_GLOBAL__N_118check_requirementsILNS_6OpcodeE152EEE16evmc_status_codeRKSt5arrayIsLm256EERlPKN4intx4uintILj256EEESE_
FNDA:2343,baseline_execution.cpp:_ZN6evmone8baseline12_GLOBAL__N_16invokeILNS_6OpcodeE153EEENS1_8PositionERKSt5arrayIsLm256EEPKN4intx4uintILj256EEES4_RlRNS_14ExecutionStateE
FNDA:2343,baseline_execution.cpp:_ZN6evmone8baseline12_GLOBAL__N_118check_requirementsILNS_6OpcodeE153EEE16evmc_status_codeRKSt5arrayIsLm256EERlPKN4intx4uintILj256EEESE_
FNDA:2773,baseline_execution.cpp:_ZN6evmone8baseline12_GLOBAL__N_16invokeILNS_6OpcodeE154EEENS1_8PositionERKSt5arrayIsLm256EEPKN4intx4uintILj256EEES4_RlRNS_14ExecutionStateE
FNDA:2773,baseline_execution.cpp:_ZN6evmone8baseline12_GLOBAL__N_118check_requirementsILNS_6OpcodeE154EEE16evmc_status_codeRKSt5arrayIsLm256EERlPKN4intx4uintILj256EEESE_
FNDA:6829,baseline_execution.cpp:_ZN6evmone8baseline12_GLOBAL__N_16invokeILNS_6OpcodeE155EEENS1_8PositionERKSt5arrayIsLm256EEPKN4intx4uintILj256EEES4_RlRNS_14ExecutionStateE
FNDA:6829,baseline_execution.cpp:_ZN6evmone8baseline12_GLOBAL__N_118check_requirementsILNS_6OpcodeE155EEE16evmc_status_codeRKSt5arrayIsLm256EERlPKN4intx4uintILj256EEESE_
FNDA:4283,baseline_execution.cpp:_ZN6evmone8baseline12_GLOBAL__N_16invokeILNS_6OpcodeE156EEENS1_8PositionERKSt5arrayIsLm256EEPKN4intx4uintILj256EEES4_RlRNS_14ExecutionStateE
FNDA:4283,baseline_execution.cpp:_ZN6evmone8baseline12_GLOBAL__N_118check_requirementsILNS_6OpcodeE156EEE16evmc_status_codeRKSt5arrayIsLm256EERlPKN4intx4uintILj256EEESE_
FNDA:3610,baseline_execution.cpp:_ZN6evmone8baseline12_GLOBAL__N_16invokeILNS_6OpcodeE157EEENS1_8PositionERKSt5arrayIsLm256EEPKN4intx4uintILj256EEES4_RlRNS_14ExecutionStateE
FNDA:3610,baseline_execution.cpp:_ZN6evmone8baseline12_GLOBAL__N_118check_requirementsILNS_6OpcodeE157EEE16evmc_status_codeRKSt5arrayIsLm256EERlPKN4intx4uintILj256EEESE_
FNDA:2449,baseline_execution.cpp:_ZN6evmone8baseline12_GLOBAL__N_16invokeILNS_6OpcodeE158EEENS1_8PositionERKSt5arrayIsLm256EEPKN4intx4uintILj256EEES4_RlRNS_14ExecutionStateE
FNDA:2449,baseline_execution.cpp:_ZN6evmone8baseline12_GLOBAL__N_118check_requirementsILNS_6OpcodeE158EEE16evmc_status_codeRKSt5arrayIsLm256EERlPKN4intx4uintILj256EEESE_
FNDA:2455,baseline_execution.cpp:_ZN6evmone8baseline12_GLOBAL__N_16invokeILNS_6OpcodeE159EEENS1_8PositionERKSt5arrayIsLm256EEPKN4intx4uintILj256EEES4_RlRNS_14ExecutionStateE
FNDA:2455,baseline_execution.cpp:_ZN6evmone8baseline12_GLOBAL__N_118check_requirementsILNS_6OpcodeE159EEE16evmc_status_codeRKSt5arrayIsLm256EERlPKN4intx4uintILj256EEESE_
FNDA:9723,baseline_execution.cpp:_ZN6evmone8baseline12_GLOBAL__N_16invokeILNS_6OpcodeE160EEENS1_8PositionERKSt5arrayIsLm256EEPKN4intx4uintILj256EEES4_RlRNS_14ExecutionStateE
FNDA:9723,baseline_execution.cpp:_ZN6evmone8baseline12_GLOBAL__N_118check_requirementsILNS_6OpcodeE160EEE16evmc_status_codeRKSt5arrayIsLm256EERlPKN4intx4uintILj256EEESE_
FNDA:8459,baseline_execution.cpp:_ZN6evmone8baseline12_GLOBAL__N_16invokeILNS_6OpcodeE161EEENS1_8PositionERKSt5arrayIsLm256EEPKN4intx4uintILj256EEES4_RlRNS_14ExecutionStateE
FNDA:8459,baseline_execution.cpp:_ZN6evmone8baseline12_GLOBAL__N_118check_requirementsILNS_6OpcodeE161EEE16evmc_status_codeRKSt5arrayIsLm256EERlPKN4intx4uintILj256EEESE_
FNDA:4930,baseline_execution.cpp:_ZN6evmone8baseline12_GLOBAL__N_16invokeILNS_6OpcodeE162EEENS1_8PositionERKSt5arrayIsLm256EEPKN4intx4uintILj256EEES4_RlRNS_14ExecutionStateE
FNDA:4930,baseline_execution.cpp:_ZN6evmone8baseline12_GLOBAL__N_118check_requirementsILNS_6OpcodeE162EEE16evmc_status_codeRKSt5arrayIsLm256EERlPKN4intx4uintILj256EEESE_
FNDA:7106,baseline_execution.cpp:_ZN6evmone8baseline12_GLOBAL__N_16invokeILNS_6OpcodeE163EEENS1_8PositionERKSt5arrayIsLm256EEPKN4intx4uintILj256EEES4_RlRNS_14ExecutionStateE
FNDA:7106,baseline_execution.cpp:_ZN6evmone8baseline12_GLOBAL__N_118check_requirementsILNS_6OpcodeE163EEE16evmc_status_codeRKSt5arrayIsLm256EERlPKN4intx4uintILj256EEESE_
FNDA:1088,baseline_execution.cpp:_ZN6evmone8baseline12_GLOBAL__N_16invokeILNS_6OpcodeE164EEENS1_8PositionERKSt5arrayIsLm256EEPKN4intx4uintILj256EEES4_RlRNS_14ExecutionStateE
FNDA:1088,baseline_execution.cpp:_ZN6evmone8baseline12_GLOBAL__N_118check_requirementsILNS_6OpcodeE164EEE16evmc_status_codeRKSt5arrayIsLm256EERlPKN4intx4uintILj256EEESE_
FNDA:25370,baseline_execution.cpp:_ZN6evmone8baseline12_GLOBAL__N_16invokeILNS_6OpcodeE240EEENS1_8PositionERKSt5arrayIsLm256EEPKN4intx4uintILj256EEES4_RlRNS_14ExecutionStateE
FNDA:25370,baseline_execution.cpp:_ZN6evmone8baseline12_GLOBAL__N_118check_requirementsILNS_6OpcodeE240EEE16evmc_status_codeRKSt5arrayIsLm256EERlPKN4intx4uintILj256EEESE_
FNDA:894215,baseline_execution.cpp:_ZN6evmone8baseline12_GLOBAL__N_16invokeILNS_6OpcodeE241EEENS1_8PositionERKSt5arrayIsLm256EEPKN4intx4uintILj256EEES4_RlRNS_14ExecutionStateE
FNDA:894215,baseline_execution.cpp:_ZN6evmone8baseline12_GLOBAL__N_118check_requirementsILNS_6OpcodeE241EEE16evmc_status_codeRKSt5arrayIsLm256EERlPKN4intx4uintILj256EEESE_
FNDA:83692,baseline_execution.cpp:_ZN6evmone8baseline12_GLOBAL__N_16invokeILNS_6OpcodeE242EEENS1_8PositionERKSt5arrayIsLm256EEPKN4intx4uintILj256EEES4_RlRNS_14ExecutionStateE
FNDA:83692,baseline_execution.cpp:_ZN6evmone8baseline12_GLOBAL__N_118check_requirementsILNS_6OpcodeE242EEE16evmc_status_codeRKSt5arrayIsLm256EERlPKN4intx4uintILj256EEESE_
FNDA:535385,baseline_execution.cpp:_ZN6evmone8baseline12_GLOBAL__N_16invokeILNS_6OpcodeE243EEENS1_8PositionERKSt5arrayIsLm256EEPKN4intx4uintILj256EEES4_RlRNS_14ExecutionStateE
FNDA:535385,baseline_execution.cpp:_ZN6evmone8baseline12_GLOBAL__N_118check_requirementsILNS_6OpcodeE243EEE16evmc_status_codeRKSt5arrayIsLm256EERlPKN4intx4uintILj256EEESE_
FNDA:101933,baseline_execution.cpp:_ZN6evmone8baseline12_GLOBAL__N_16invokeILNS_6OpcodeE244EEENS1_8PositionERKSt5arrayIsLm256EEPKN4intx4uintILj256EEES4_RlRNS_14ExecutionStateE
FNDA:101933,baseline_execution.cpp:_ZN6evmone8baseline12_GLOBAL__N_118check_requirementsILNS_6OpcodeE244EEE16evmc_status_codeRKSt5arrayIsLm256EERlPKN4intx4uintILj256EEESE_
FNDA:27911,baseline_execution.cpp:_ZN6evmone8baseline12_GLOBAL__N_16invokeILNS_6OpcodeE245EEENS1_8PositionERKSt5arrayIsLm256EEPKN4intx4uintILj256EEES4_RlRNS_14ExecutionStateE
FNDA:27911,baseline_execution.cpp:_ZN6evmone8baseline12_GLOBAL__N_118check_requirementsILNS_6OpcodeE245EEE16evmc_status_codeRKSt5arrayIsLm256EERlPKN4intx4uintILj256EEESE_
FNDA:3064290,baseline_execution.cpp:_ZN6evmone8baseline12_GLOBAL__N_16invokeILNS_6OpcodeE250EEENS1_8PositionERKSt5arrayIsLm256EEPKN4intx4uintILj256EEES4_RlRNS_14ExecutionStateE
FNDA:3064290,baseline_execution.cpp:_ZN6evmone8baseline12_GLOBAL__N_118check_requirementsILNS_6OpcodeE250EEE16evmc_status_codeRKSt5arrayIsLm256EERlPKN4intx4uintILj256EEESE_
FNDA:25474,baseline_execution.cpp:_ZN6evmone8baseline12_GLOBAL__N_16invokeILNS_6OpcodeE253EEENS1_8PositionERKSt5arrayIsLm256EEPKN4intx4uintILj256EEES4_RlRNS_14ExecutionStateE
FNDA:25474,baseline_execution.cpp:_ZN6evmone8baseline12_GLOBAL__N_118check_requirementsILNS_6OpcodeE253EEE16evmc_status_codeRKSt5arrayIsLm256EERlPKN4intx4uintILj256EEESE_
FNDA:2033,baseline_execution.cpp:_ZN6evmone8baseline12_GLOBAL__N_16invokeILNS_6OpcodeE254EEENS1_8PositionERKSt5arrayIsLm256EEPKN4intx4uintILj256EEES4_RlRNS_14ExecutionStateE
FNDA:2033,baseline_execution.cpp:_ZN6evmone8baseline12_GLOBAL__N_118check_requirementsILNS_6OpcodeE254EEE16evmc_status_codeRKSt5arrayIsLm256EERlPKN4intx4uintILj256EEESE_
FNDA:421161,baseline_execution.cpp:_ZN6evmone8baseline12_GLOBAL__N_16invokeILNS_6OpcodeE255EEENS1_8PositionERKSt5arrayIsLm256EEPKN4intx4uintILj256EEES4_RlRNS_14ExecutionStateE
FNDA:421161,baseline_execution.cpp:_ZN6evmone8baseline12_GLOBAL__N_118check_requirementsILNS_6OpcodeE255EEE16evmc_status_codeRKSt5arrayIsLm256EERlPKN4intx4uintILj256EEESE_
FNDA:0,baseline_execution.cpp:_ZN6evmone8baseline12_GLOBAL__N_18dispatchILb1EEElRKSt5arrayIsLm256EERNS_14ExecutionStateElPKhPNS_6TracerE
FNDA:0,baseline_execution.cpp:_ZN6evmone8baseline12_GLOBAL__N_18dispatchILb0EEElRKSt5arrayIsLm256EERNS_14ExecutionStateElPKhPNS_6TracerE
FNF:11
FNH:10
DA:19,252809529
DA:46,252809529
DA:47,252809529
DA:48,252809529
DA:49,252809529
DA:51,252809529
DA:53,21890613
DA:54,21890613
DA:60,18970192
DA:61,18970192
DA:62,6774
DA:63,18970192
DA:64,21890613
DA:69,129848630
DA:70,129848630
DA:71,129848630
DA:72,129848630
DA:73,3012
DA:74,129848630
DA:76,106363989
DA:78,106363989
DA:79,106363989
DA:80,2838
DA:81,106363989
DA:84,246118118
DA:85,246118118
DA:86,422919
DA:87,246118118
DA:89,245695199
DA:90,252809529
DA:104,73240123
DA:105,73240123
DA:106,73240123
DA:107,73240123
DA:112,57549520
DA:113,57549520
DA:114,57549520
DA:115,57549520
DA:116,299049
DA:117,299049
DA:118,299049
DA:119,299049
DA:120,57250471
DA:121,57549520
DA:125,4818559
DA:126,4818559
DA:127,4818559
DA:128,4818559
DA:133,114773559
DA:134,114773559
DA:135,114773559
DA:140,1992225
DA:141,1992225
DA:142,1992225
DA:143,1992225
DA:144,1992225
DA:145,1992225
DA:151,252809529
DA:152,252809529
DA:153,252809529
DA:154,435543
DA:155,435543
DA:156,435543
DA:157,435543
DA:158,252373986
DA:159,252373986
DA:160,252373986
DA:161,252809529
DA:167,0
DA:168,0
DA:171,0
DA:173,0
DA:174,0
DA:176,0
DA:177,0
DA:178,0
DA:179,0
DA:180,0
DA:181,0
DA:182,0
DA:183,0
DA:184,0
DA:186,0
DA:187,0
DA:188,0
DA:189,0
DA:190,0
DA:191,0
DA:192,0
DA:193,0
DA:194,0
DA:195,0
DA:196,0
DA:197,0
DA:198,0
DA:201,0
DA:202,0
DA:203,0
DA:205,0
DA:206,0
DA:208,0
DA:209,0
DA:210,0
DA:211,0
DA:212,0
DA:213,0
DA:214,0
DA:219,2785059
DA:220,2785059
DA:222,2785059
DA:223,417758850
DA:224,2785059
DA:225,295216254
DA:226,2785059
DA:227,2785059
DA:228,2785059
DA:229,2785059
DA:230,2785059
DA:231,2785059
DA:233,2785059
DA:236,2785059
DA:238,2785059
DA:240,2785059
DA:241,252809529
DA:242,252809529
DA:243,252809529
DA:244,252809529
DA:245,2729927
DA:246,2729927
DA:247,252809529
DA:248,252809529
DA:251,250079602
DA:252,250079602
DA:253,252809529
DA:255,502889131
DA:256,502889131
DA:258,502889131
DA:259,55132
DA:260,55132
DA:261,502889131
DA:267,2785059
DA:268,2785059
DA:269,2785059
DA:270,2785059
DA:272,2785059
DA:273,2785059
DA:275,2785059
DA:277,2785059
DA:279,2785059
DA:280,2785059
DA:281,0
DA:282,0
DA:283,0
DA:284,0
DA:285,2785059
DA:286,2785059
DA:287,2785059
DA:288,2785059
DA:289,2785059
DA:290,0
DA:291,0
DA:292,0
DA:293,2785059
DA:295,2785059
DA:296,2785059
DA:298,2785059
DA:299,2785059
DA:300,2785059
DA:302,2785059
DA:303,0
DA:305,2785059
DA:306,2785059
DA:310,2785059
DA:311,2785059
DA:312,2785059
DA:314,2785059
DA:315,2785059
DA:316,2785059
BRDA:61,0,0,85
BRDA:61,0,1,3467687
BRDA:61,1,2,746
BRDA:61,1,3,12866
BRDA:61,2,4,154
BRDA:61,2,5,3400
BRDA:61,3,6,499
BRDA:61,3,7,2842
BRDA:61,4,8,83
BRDA:61,4,9,9066
BRDA:61,5,10,742
BRDA:61,5,11,2872
BRDA:61,6,12,19
BRDA:61,6,13,101914
BRDA:61,7,14,80
BRDA:61,7,15,9612
BRDA:61,8,16,83
BRDA:61,8,17,19339
BRDA:61,9,18,83
BRDA:61,9,19,27828
BRDA:61,10,20,80
BRDA:61,10,21,60724
BRDA:61,11,22,490
BRDA:61,11,23,552
BRDA:61,12,24,45
BRDA:61,12,25,3064245
BRDA:61,13,26,670
BRDA:61,13,27,1182085
BRDA:61,14,28,742
BRDA:61,14,29,1890239
BRDA:61,15,30,45
BRDA:61,15,31,25429
BRDA:61,16,32,742
BRDA:61,16,33,9079398
BRDA:61,17,34,322
BRDA:61,17,35,1595
BRDA:61,18,36,322
BRDA:61,18,37,454
BRDA:61,19,38,742
BRDA:61,19,39,1271
BRDA:72,0,0,58
BRDA:72,0,1,30217
BRDA:72,1,2,32
BRDA:72,1,3,15317
BRDA:72,2,4,58
BRDA:72,2,5,31695
BRDA:72,3,6,58
BRDA:72,3,7,42149
BRDA:72,4,8,58
BRDA:72,4,9,2265822
BRDA:72,5,10,58
BRDA:72,5,11,41035
BRDA:72,6,12,58
BRDA:72,6,13,45067
BRDA:72,7,14,12
BRDA:72,7,15,1030
BRDA:72,8,16,58
BRDA:72,8,17,37429
BRDA:72,9,18,16
BRDA:72,9,19,760
BRDA:72,10,20,12
BRDA:72,10,21,13600
BRDA:72,11,22,58
BRDA:72,11,23,31887
BRDA:72,12,24,16
BRDA:72,12,25,1901
BRDA:72,13,26,58
BRDA:72,13,27,41955
BRDA:72,14,28,40
BRDA:72,14,29,1182715
BRDA:72,15,30,88
BRDA:72,15,31,81219437
BRDA:72,16,32,58
BRDA:72,16,33,10060436
BRDA:72,17,34,58
BRDA:72,17,35,1335692
BRDA:72,18,36,58
BRDA:72,18,37,120181
BRDA:72,19,38,58
BRDA:72,19,39,57810
BRDA:72,20,40,58
BRDA:72,20,41,111292
BRDA:72,21,42,58
BRDA:72,21,43,46707
BRDA:72,22,44,32
BRDA:72,22,45,16593078
BRDA:72,23,46,58
BRDA:72,23,47,47189
BRDA:72,24,48,32
BRDA:72,24,49,16693
BRDA:72,25,50,58
BRDA:72,25,51,66286
BRDA:72,26,52,48
BRDA:72,26,53,5688601
BRDA:72,27,54,58
BRDA:72,27,55,34777
BRDA:72,28,56,58
BRDA:72,28,57,28899
BRDA:72,29,58,58
BRDA:72,29,59,40551
BRDA:72,30,60,58
BRDA:72,30,61,38862
BRDA:72,31,62,58
BRDA:72,31,63,34155
BRDA:72,32,64,58
BRDA:72,32,65,29111
BRDA:72,33,66,58
BRDA:72,33,67,48731
BRDA:72,34,68,58
BRDA:72,34,69,21327
BRDA:72,35,70,58
BRDA:72,35,71,38369
BRDA:72,36,72,32
BRDA:72,36,73,16582
BRDA:72,37,74,32
BRDA:72,37,75,617441
BRDA:72,38,76,32
BRDA:72,38,77,283190
BRDA:72,39,78,32
BRDA:72,39,79,15030
BRDA:72,40,80,32
BRDA:72,40,81,24788
BRDA:72,41,82,32
BRDA:72,41,83,13483
BRDA:72,42,84,32
BRDA:72,42,85,30123
BRDA:72,43,86,32
BRDA:72,43,87,63370
BRDA:72,44,88,32
BRDA:72,44,89,49061
BRDA:72,45,90,32
BRDA:72,45,91,276025
BRDA:72,46,92,32
BRDA:72,46,93,123472
BRDA:72,47,94,32
BRDA:72,47,95,23689
BRDA:72,48,96,32
BRDA:72,48,97,443679
BRDA:72,49,98,58
BRDA:72,49,99,28789
BRDA:72,50,100,32
BRDA:72,50,101,24598
BRDA:72,51,102,32
BRDA:72,51,103,26644
BRDA:72,52,104,32
BRDA:72,52,105,52501
BRDA:72,53,106,32
BRDA:72,53,107,57041
BRDA:72,54,108,22
BRDA:72,54,109,60782
BRDA:72,55,110,32
BRDA:72,55,111,17279
BRDA:72,56,112,58
BRDA:72,56,113,91966
BRDA:72,57,114,32
BRDA:72,57,115,14995
BRDA:72,58,116,32
BRDA:72,58,117,21733
BRDA:72,59,118,32
BRDA:72,59,119,134893
BRDA:72,60,120,58
BRDA:72,60,121,308930
BRDA:72,61,122,32
BRDA:72,61,123,25038
BRDA:72,62,124,32
BRDA:72,62,125,5878418
BRDA:72,63,126,58
BRDA:72,63,127,25035
BRDA:72,64,128,32
BRDA:72,64,129,151220
BRDA:72,65,130,32
BRDA:72,65,131,13894
BRDA:72,66,132,32
BRDA:72,66,133,185059
BRDA:72,67,134,32
BRDA:72,67,135,1251692
BRDA:72,68,136,58
BRDA:72,68,137,34415
BRDA:79,0,0,24
BRDA:79,0,1,9772
BRDA:79,1,2,18
BRDA:79,1,3,46497
BRDA:79,2,4,12
BRDA:79,2,5,7133402
BRDA:79,3,6,24
BRDA:79,3,7,4065
BRDA:79,4,8,18
BRDA:79,4,9,3314318
BRDA:79,5,10,50
BRDA:79,5,11,84853
BRDA:79,6,12,18
BRDA:79,6,13,471693
BRDA:79,7,14,18
BRDA:79,7,15,13323
BRDA:79,8,16,24
BRDA:79,8,17,244357
BRDA:79,9,18,12
BRDA:79,9,19,2001
BRDA:79,10,20,334
BRDA:79,10,21,15891095
BRDA:79,11,22,36
BRDA:79,11,23,17275
BRDA:79,12,24,24
BRDA:79,12,25,1890957
BRDA:79,13,26,44
BRDA:79,13,27,716296
BRDA:79,14,28,18
BRDA:79,14,29,158845
BRDA:79,15,30,50
BRDA:79,15,31,268244
BRDA:79,16,32,18
BRDA:79,16,33,1830637
BRDA:79,17,34,48
BRDA:79,17,35,9080092
BRDA:79,18,36,24
BRDA:79,18,37,23504
BRDA:79,19,38,44
BRDA:79,19,39,394895
BRDA:79,20,40,24
BRDA:79,20,41,841608
BRDA:79,21,42,12
BRDA:79,21,43,9137
BRDA:79,22,44,18
BRDA:79,22,45,403815
BRDA:79,23,46,6
BRDA:79,23,47,3608
BRDA:79,24,48,18
BRDA:79,24,49,69960
BRDA:79,25,50,18
BRDA:79,25,51,6604
BRDA:79,26,52,12
BRDA:79,26,53,19410
BRDA:79,27,54,18
BRDA:79,27,55,6244
BRDA:79,28,56,12
BRDA:79,28,57,3467760
BRDA:79,29,58,12
BRDA:79,29,59,3542
BRDA:79,30,60,50
BRDA:79,30,61,127661
BRDA:79,31,62,18
BRDA:79,31,63,75486
BRDA:79,32,64,18
BRDA:79,32,65,5288604
BRDA:79,33,66,24
BRDA:79,33,67,67814
BRDA:79,34,68,18
BRDA:79,34,69,125187
BRDA:79,35,70,18
BRDA:79,35,71,51089
BRDA:79,36,72,18
BRDA:79,36,73,1708
BRDA:79,37,74,24
BRDA:79,37,75,5519344
BRDA:79,38,76,34
BRDA:79,38,77,2935892
BRDA:79,39,78,24
BRDA:79,39,79,2616
BRDA:79,40,80,4
BRDA:79,40,81,3337
BRDA:79,41,82,48
BRDA:79,41,83,4526098
BRDA:79,42,84,18
BRDA:79,42,85,12297034
BRDA:79,43,86,6
BRDA:79,43,87,9686
BRDA:79,44,88,24
BRDA:79,44,89,37452
BRDA:79,45,90,18
BRDA:79,45,91,8725800
BRDA:79,46,92,18
BRDA:79,46,93,2366
BRDA:79,47,94,30
BRDA:79,47,95,15830
BRDA:79,48,96,18
BRDA:79,48,97,2092
BRDA:79,49,98,18
BRDA:79,49,99,1026487
BRDA:79,50,100,18
BRDA:79,50,101,3606
BRDA:79,51,102,18
BRDA:79,51,103,4732492
BRDA:79,52,104,18
BRDA:79,52,105,158503
BRDA:79,53,106,30
BRDA:79,53,107,4900
BRDA:79,54,108,50
BRDA:79,54,109,3560
BRDA:79,55,110,24
BRDA:79,55,111,52509
BRDA:79,56,112,44
BRDA:79,56,113,2405
BRDA:79,57,114,36
BRDA:79,57,115,26640
BRDA:79,58,116,44
BRDA:79,58,117,2411
BRDA:79,59,118,12
BRDA:79,59,119,27899
BRDA:79,60,120,18
BRDA:79,60,121,9705
BRDA:79,61,122,24
BRDA:79,61,123,443687
BRDA:79,62,124,18
BRDA:79,62,125,8441
BRDA:79,63,126,30
BRDA:79,63,127,101903
BRDA:79,64,128,24
BRDA:79,64,129,1251700
BRDA:79,65,130,18
BRDA:79,65,131,5878432
BRDA:79,66,132,24
BRDA:79,66,133,49069
BRDA:79,67,134,18
BRDA:79,67,135,535367
BRDA:79,68,136,18
BRDA:79,68,137,7088
BRDA:79,69,138,18
BRDA:79,69,139,63384
BRDA:79,70,140,36
BRDA:79,70,141,1052
BRDA:79,71,142,42
BRDA:79,71,143,123462
BRDA:79,72,144,42
BRDA:79,72,145,83650
BRDA:79,73,146,24
BRDA:79,73,147,283198
BRDA:79,74,148,24
BRDA:79,74,149,25346
BRDA:79,75,150,18
BRDA:79,75,151,617455
BRDA:79,76,152,24
BRDA:79,76,153,894191
BRDA:79,77,154,50
BRDA:79,77,155,2293
BRDA:79,78,156,50
BRDA:79,78,157,35788
BRDA:79,79,158,50
BRDA:79,79,159,8099
BRDA:79,80,160,56
BRDA:79,80,161,3861
BRDA:79,81,162,36
BRDA:79,81,163,25034
BRDA:79,82,164,50
BRDA:79,82,165,7777
BRDA:79,83,166,30
BRDA:79,83,167,15032
BRDA:79,84,168,50
BRDA:79,84,169,5907
BRDA:79,85,170,12
BRDA:79,85,171,421149
BRDA:79,86,172,12
BRDA:79,86,173,3064278
BRDA:79,87,174,18
BRDA:79,87,175,30137
BRDA:79,88,176,50
BRDA:79,88,177,2723
BRDA:79,89,178,24
BRDA:79,89,179,24606
BRDA:79,90,180,36
BRDA:79,90,181,16578
BRDA:79,91,182,50
BRDA:79,91,183,6779
BRDA:79,92,184,50
BRDA:79,92,185,25424
BRDA:79,93,186,44
BRDA:79,93,187,4239
BRDA:85,0,0,2
BRDA:85,0,1,1251722
BRDA:85,1,2,2
BRDA:85,1,3,28845
BRDA:85,2,4,2
BRDA:85,2,5,21763
BRDA:85,3,6,6
BRDA:85,3,7,34467
BRDA:85,4,8,2
BRDA:85,4,9,69976
BRDA:85,5,10,2
BRDA:85,5,11,308986
BRDA:85,6,12,2
BRDA:85,6,13,134923
BRDA:85,7,14,2
BRDA:85,7,15,92022
BRDA:85,8,16,2
BRDA:85,8,17,15025
BRDA:85,9,18,2
BRDA:85,9,19,25091
BRDA:85,10,20,2
BRDA:85,10,21,151250
BRDA:85,11,22,2
BRDA:85,11,23,5878448
BRDA:85,12,24,6
BRDA:85,12,25,52527
BRDA:85,13,26,2
BRDA:85,13,27,25068
BRDA:85,14,28,2
BRDA:85,14,29,127709
BRDA:85,15,30,2
BRDA:85,15,31,15060
BRDA:85,16,32,2
BRDA:85,16,33,23526
BRDA:85,17,34,2
BRDA:85,17,35,30153
BRDA:85,18,36,2
BRDA:85,18,37,13513
BRDA:85,19,38,2
BRDA:85,19,39,16612
BRDA:85,20,40,410
BRDA:85,20,41,471301
BRDA:85,21,42,2
BRDA:85,21,43,24628
BRDA:85,22,44,26
BRDA:85,22,45,13315
BRDA:85,23,46,2
BRDA:85,23,47,617471
BRDA:85,24,48,2
BRDA:85,24,49,26674
BRDA:85,25,50,2
BRDA:85,25,51,60802
BRDA:85,26,52,2
BRDA:85,26,53,443709
BRDA:85,27,54,2
BRDA:85,27,55,49091
BRDA:85,28,56,2
BRDA:85,28,57,9690
BRDA:85,29,58,2
BRDA:85,29,59,63400
BRDA:85,30,60,2
BRDA:85,30,61,123502
BRDA:85,31,62,2
BRDA:85,31,63,283220
BRDA:85,32,64,2
BRDA:85,32,65,3552
BRDA:85,33,66,12
BRDA:85,33,67,16593098
BRDA:85,34,68,2
BRDA:85,34,69,158861
BRDA:85,35,70,2
BRDA:85,35,71,40607
BRDA:85,36,72,6
BRDA:85,36,73,1026499
BRDA:85,37,74,2
BRDA:85,37,75,28955
BRDA:85,38,76,54
BRDA:85,38,77,5519314
BRDA:85,39,78,2
BRDA:85,39,79,34833
BRDA:85,40,80,8
BRDA:85,40,81,7133406
BRDA:85,41,82,2
BRDA:85,41,83,42011
BRDA:85,42,84,42
BRDA:85,42,85,5688607
BRDA:85,43,86,6
BRDA:85,43,87,47241
BRDA:85,44,88,2
BRDA:85,44,89,16723
BRDA:85,45,90,2
BRDA:85,45,91,46763
BRDA:85,46,92,2
BRDA:85,46,93,38918
BRDA:85,47,94,2
BRDA:85,47,95,111348
BRDA:85,48,96,20
BRDA:85,48,97,24092004
BRDA:85,49,98,2
BRDA:85,49,99,57866
BRDA:85,50,100,2
BRDA:85,50,101,1890979
BRDA:85,51,102,2
BRDA:85,51,103,120237
BRDA:85,52,104,8
BRDA:85,52,105,1335742
BRDA:85,53,106,32
BRDA:85,53,107,9080108
BRDA:85,54,108,116
BRDA:85,54,109,10060378
BRDA:85,55,110,3675
BRDA:85,55,111,81215850
BRDA:85,56,112,50
BRDA:85,56,113,1963
BRDA:85,57,114,20
BRDA:85,57,115,1182735
BRDA:85,58,116,24
BRDA:85,58,117,2265856
BRDA:85,59,118,2
BRDA:85,59,119,42205
BRDA:85,60,120,2
BRDA:85,60,121,41091
BRDA:85,61,122,2
BRDA:85,61,123,15347
BRDA:85,62,124,2
BRDA:85,62,125,30273
BRDA:85,63,126,2
BRDA:85,63,127,31943
BRDA:85,64,128,2
BRDA:85,64,129,774
BRDA:85,65,130,2
BRDA:85,65,131,38425
BRDA:85,66,132,2
BRDA:85,66,133,37485
BRDA:85,67,134,2
BRDA:85,67,135,1915
BRDA:85,68,136,2
BRDA:85,68,137,45123
BRDA:85,69,138,2
BRDA:85,69,139,1040
BRDA:85,70,140,2
BRDA:85,70,141,13924
BRDA:85,71,142,2
BRDA:85,71,143,31751
BRDA:85,72,144,2
BRDA:85,72,145,3612
BRDA:85,73,146,2
BRDA:85,73,147,66342
BRDA:85,74,148,8
BRDA:85,74,149,13604
BRDA:85,75,150,2
BRDA:85,75,151,21383
BRDA:85,76,152,2
BRDA:85,76,153,48787
BRDA:85,77,154,82
BRDA:85,77,155,4526064
BRDA:85,78,156,2
BRDA:85,78,157,29167
BRDA:85,79,158,8
BRDA:85,79,159,12297044
BRDA:85,80,160,2
BRDA:85,80,161,34211
BRDA:85,81,162,52
BRDA:85,81,163,8725766
BRDA:85,82,164,2
BRDA:85,82,165,3622
BRDA:85,83,166,2
BRDA:85,83,167,35836
BRDA:85,84,168,2
BRDA:85,84,169,84901
BRDA:85,85,170,2
BRDA:85,85,171,268292
BRDA:85,86,172,2
BRDA:85,86,173,394937
BRDA:85,87,174,2
BRDA:85,87,175,716338
BRDA:85,88,176,2
BRDA:85,88,177,17309
BRDA:85,89,178,36
BRDA:85,89,179,15891393
BRDA:85,90,180,14
BRDA:85,90,181,244367
BRDA:85,91,182,2
BRDA:85,91,183,3314334
BRDA:85,92,184,8
BRDA:85,92,185,46507
BRDA:85,93,186,2
BRDA:85,93,187,4087
BRDA:85,94,188,2
BRDA:85,94,189,158519
BRDA:85,95,190,2
BRDA:85,95,191,8147
BRDA:85,96,192,2
BRDA:85,96,193,2108
BRDA:85,97,194,2
BRDA:85,97,195,2382
BRDA:85,98,196,44
BRDA:85,98,197,37432
BRDA:85,99,198,2
BRDA:85,99,199,2638
BRDA:85,100,200,2
BRDA:85,100,201,2935924
BRDA:85,101,202,2
BRDA:85,101,203,403831
BRDA:85,102,204,2
BRDA:85,102,205,6620
BRDA:85,103,206,2
BRDA:85,103,207,6260
BRDA:85,104,208,2
BRDA:85,104,209,841630
BRDA:85,105,210,10
BRDA:85,105,211,5288612
BRDA:85,106,212,2
BRDA:85,106,213,125203
BRDA:85,107,214,16
BRDA:85,107,215,8443
BRDA:85,108,216,413186
BRDA:85,108,217,7975
BRDA:85,109,218,0
BRDA:85,109,219,25474
BRDA:85,110,220,114
BRDA:85,110,221,3064176
BRDA:85,111,222,1968
BRDA:85,111,223,25943
BRDA:85,112,224,78
BRDA:85,112,225,101855
BRDA:85,113,226,88
BRDA:85,113,227,83604
BRDA:85,114,228,72
BRDA:85,114,229,894143
BRDA:85,115,230,2302
BRDA:85,115,231,23068
BRDA:85,116,232,16
BRDA:85,116,233,1072
BRDA:85,117,234,16
BRDA:85,117,235,7090
BRDA:85,118,236,16
BRDA:85,118,237,4914
BRDA:85,119,238,2
BRDA:85,119,239,185089
BRDA:85,120,240,20
BRDA:85,120,241,9703
BRDA:85,121,242,2
BRDA:85,121,243,2453
BRDA:85,122,244,2
BRDA:85,122,245,2447
BRDA:85,123,246,2
BRDA:85,123,247,3608
BRDA:85,124,248,6
BRDA:85,124,249,4277
BRDA:85,125,250,2
BRDA:85,125,251,6827
BRDA:85,126,252,2
BRDA:85,126,253,2771
BRDA:85,127,254,2
BRDA:85,127,255,2341
BRDA:85,128,256,2
BRDA:85,128,257,5955
BRDA:85,129,258,2
BRDA:85,129,259,7825
BRDA:85,130,260,2
BRDA:85,130,261,3915
BRDA:85,131,262,2
BRDA:85,131,263,3467770
BRDA:85,132,264,2
BRDA:85,132,265,9147
BRDA:85,133,266,2
BRDA:85,133,267,15858
BRDA:85,134,268,2
BRDA:85,134,269,23719
BRDA:85,135,270,2
BRDA:85,135,271,67836
BRDA:85,136,272,2
BRDA:85,136,273,1724
BRDA:85,137,274,8
BRDA:85,137,275,1830647
BRDA:85,138,276,2
BRDA:85,138,277,75502
BRDA:85,139,278,18
BRDA:85,139,279,3323
BRDA:85,140,280,2
BRDA:85,140,281,24818
BRDA:85,141,282,2
BRDA:85,141,283,57071
BRDA:85,142,284,2
BRDA:85,142,285,51105
BRDA:85,143,286,2
BRDA:85,143,287,9794
BRDA:85,144,288,2
BRDA:85,144,289,19420
BRDA:85,145,290,8
BRDA:85,145,291,276049
BRDA:115,0,0,299049
BRDA:115,0,1,57250471
BRDA:153,0,0,34
BRDA:153,0,1,13481
BRDA:153,1,2,34
BRDA:153,1,3,7072
BRDA:153,2,4,34
BRDA:153,2,5,24786
BRDA:153,3,6,60
BRDA:153,3,7,29109
BRDA:153,4,8,60
BRDA:153,4,9,48729
BRDA:153,5,10,52
BRDA:153,5,11,1036
BRDA:153,6,12,60
BRDA:153,6,13,21325
BRDA:153,7,14,34
BRDA:153,7,15,8425
BRDA:153,8,16,2326
BRDA:153,8,17,23044
BRDA:153,9,18,60
BRDA:153,9,19,66284
BRDA:153,10,20,96
BRDA:153,10,21,894119
BRDA:153,11,22,60
BRDA:153,11,23,31693
BRDA:153,12,24,26
BRDA:153,12,25,1830629
BRDA:153,13,26,60
BRDA:153,13,27,28897
BRDA:153,14,28,104
BRDA:153,14,29,60700
BRDA:153,15,30,64
BRDA:153,15,31,47183
BRDA:153,16,32,50
BRDA:153,16,33,4233
BRDA:153,17,34,60
BRDA:153,17,35,41953
BRDA:153,18,36,52
BRDA:153,18,37,3558
BRDA:153,19,38,34
BRDA:153,19,39,23687
BRDA:153,20,40,60
BRDA:153,20,41,34775
BRDA:153,21,42,46
BRDA:153,21,43,2403
BRDA:153,22,44,44
BRDA:153,22,45,13297
BRDA:153,23,46,46
BRDA:153,23,47,4884
BRDA:153,24,48,46
BRDA:153,24,49,2409
BRDA:153,25,50,60
BRDA:153,25,51,40549
BRDA:153,26,52,38
BRDA:153,26,53,9685
BRDA:153,27,54,40
BRDA:153,27,55,276017
BRDA:153,28,56,60
BRDA:153,28,57,38860
BRDA:153,29,58,60
BRDA:153,29,59,45065
BRDA:153,30,60,428
BRDA:153,30,61,471283
BRDA:153,31,62,60
BRDA:153,31,63,34153
BRDA:153,32,64,58
BRDA:153,32,65,49035
BRDA:153,33,66,64
BRDA:153,33,67,34409
BRDA:153,34,68,60
BRDA:153,34,69,25033
BRDA:153,35,70,60
BRDA:153,35,71,91964
BRDA:153,36,72,60
BRDA:153,36,73,308928
BRDA:153,37,74,52
BRDA:153,37,75,5878398
BRDA:153,38,76,58
BRDA:153,38,77,1251666
BRDA:153,39,78,52
BRDA:153,39,79,617421
BRDA:153,40,80,58
BRDA:153,40,81,283164
BRDA:153,41,82,76
BRDA:153,41,83,123428
BRDA:153,42,84,52
BRDA:153,42,85,63350
BRDA:153,43,86,60
BRDA:153,43,87,28787
BRDA:153,44,88,58
BRDA:153,44,89,443653
BRDA:153,45,90,70
BRDA:153,45,91,26606
BRDA:153,46,92,62
BRDA:153,46,93,52471
BRDA:153,47,94,58
BRDA:153,47,95,24572
BRDA:153,48,96,70
BRDA:153,48,97,16544
BRDA:153,49,98,52
BRDA:153,49,99,30103
BRDA:153,50,100,64
BRDA:153,50,101,14998
BRDA:153,51,102,70
BRDA:153,51,103,25000
BRDA:153,52,104,70
BRDA:153,52,105,17241
BRDA:153,53,106,34
BRDA:153,53,107,21731
BRDA:153,54,108,82
BRDA:153,54,109,2265798
BRDA:153,55,110,26
BRDA:153,55,111,23502
BRDA:153,56,112,18
BRDA:153,56,113,535367
BRDA:153,57,114,20
BRDA:153,57,115,125185
BRDA:153,58,116,127
BRDA:153,58,117,101806
BRDA:153,59,118,60
BRDA:153,59,119,37427
BRDA:153,60,120,2063
BRDA:153,60,121,25848
BRDA:153,61,122,60
BRDA:153,61,123,38367
BRDA:153,62,124,171
BRDA:153,62,125,3064119
BRDA:153,63,126,130
BRDA:153,63,127,83562
BRDA:153,64,128,60
BRDA:153,64,129,31885
BRDA:153,65,130,95
BRDA:153,65,131,25379
BRDA:153,66,132,34
BRDA:153,66,133,185057
BRDA:153,67,134,60
BRDA:153,67,135,30215
BRDA:153,68,136,0
BRDA:153,68,137,2033
BRDA:153,69,138,413198
BRDA:153,69,139,7963
BRDA:153,70,140,60
BRDA:153,70,141,41033
BRDA:153,71,142,52
BRDA:153,71,143,127659
BRDA:153,72,144,60
BRDA:153,72,145,42147
BRDA:153,73,146,34
BRDA:153,73,147,151218
BRDA:153,74,148,70
BRDA:153,74,149,8725748
BRDA:153,75,150,340
BRDA:153,75,151,436
BRDA:153,76,152,34
BRDA:153,76,153,134891
BRDA:153,77,154,20
BRDA:153,77,155,2364
BRDA:153,78,156,20
BRDA:153,78,157,158843
BRDA:153,79,158,20
BRDA:153,79,159,75484
BRDA:153,80,160,20
BRDA:153,80,161,2090
BRDA:153,81,162,20
BRDA:153,81,163,3604
BRDA:153,82,164,18
BRDA:153,82,165,4732492
BRDA:153,83,166,68
BRDA:153,83,167,37408
BRDA:153,84,168,78
BRDA:153,84,169,5519290
BRDA:153,85,170,20
BRDA:153,85,171,158501
BRDA:153,86,172,99
BRDA:153,86,173,3467673
BRDA:153,87,174,20
BRDA:153,87,175,7133394
BRDA:153,88,176,26
BRDA:153,88,177,4063
BRDA:153,89,178,90
BRDA:153,89,179,5688559
BRDA:153,90,180,52
BRDA:153,90,181,6777
BRDA:153,91,182,26
BRDA:153,91,183,46489
BRDA:153,92,184,34
BRDA:153,92,185,14993
BRDA:153,93,186,26
BRDA:153,93,187,841606
BRDA:153,94,188,20
BRDA:153,94,189,1706
BRDA:153,95,190,750
BRDA:153,95,191,2864
BRDA:153,96,192,20
BRDA:153,96,193,6242
BRDA:153,97,194,20
BRDA:153,97,195,6602
BRDA:153,98,196,34
BRDA:153,98,197,15315
BRDA:153,99,198,20
BRDA:153,99,199,403813
BRDA:153,100,200,504
BRDA:153,100,201,538
BRDA:153,101,202,766
BRDA:153,101,203,12846
BRDA:153,102,204,34
BRDA:153,102,205,13892
BRDA:153,103,206,24
BRDA:153,103,207,1026481
BRDA:153,104,208,36
BRDA:153,104,209,2935890
BRDA:153,105,210,28
BRDA:153,105,211,5288594
BRDA:153,106,212,26
BRDA:153,106,213,67812
BRDA:153,107,214,130
BRDA:153,107,215,4526016
BRDA:153,108,216,340
BRDA:153,108,217,1577
BRDA:153,109,218,26
BRDA:153,109,219,2614
BRDA:153,110,220,26
BRDA:153,110,221,12297026
BRDA:153,111,222,20
BRDA:153,111,223,51087
BRDA:153,112,224,88
BRDA:153,112,225,9604
BRDA:153,113,226,730
BRDA:153,113,227,1182025
BRDA:153,114,228,168
BRDA:153,114,229,3386
BRDA:153,115,230,52
BRDA:153,115,231,35786
BRDA:153,116,232,3763
BRDA:153,116,233,81215762
BRDA:153,117,234,52
BRDA:153,117,235,8097
BRDA:153,118,236,34
BRDA:153,118,237,16691
BRDA:153,119,238,174
BRDA:153,119,239,10060320
BRDA:153,120,240,58
BRDA:153,120,241,3859
BRDA:153,121,242,66
BRDA:153,121,243,1335684
BRDA:153,122,244,52
BRDA:153,122,245,7775
BRDA:153,123,246,32
BRDA:153,123,247,15828
BRDA:153,124,248,60
BRDA:153,124,249,120179
BRDA:153,125,250,52
BRDA:153,125,251,5905
BRDA:153,126,252,34
BRDA:153,126,253,57039
BRDA:153,127,254,60
BRDA:153,127,255,57808
BRDA:153,128,256,52
BRDA:153,128,257,2291
BRDA:153,129,258,60
BRDA:153,129,259,111290
BRDA:153,130,260,52
BRDA:153,130,261,2721
BRDA:153,131,262,26
BRDA:153,131,263,9770
BRDA:153,132,264,60
BRDA:153,132,265,46705
BRDA:153,133,266,804
BRDA:153,133,267,1209
BRDA:153,134,268,822
BRDA:153,134,269,9079318
BRDA:153,135,270,46
BRDA:153,135,271,716294
BRDA:153,136,272,20
BRDA:153,136,273,69958
BRDA:153,137,274,0
BRDA:153,137,275,1421483
BRDA:153,138,276,768
BRDA:153,138,277,1890213
BRDA:153,139,278,97
BRDA:153,139,279,9052
BRDA:153,140,280,46
BRDA:153,140,281,394893
BRDA:153,141,282,370
BRDA:153,141,283,15891059
BRDA:153,142,284,20
BRDA:153,142,285,24092004
BRDA:153,143,286,38
BRDA:153,143,287,244343
BRDA:153,144,288,52
BRDA:153,144,289,268242
BRDA:153,145,290,44
BRDA:153,145,291,16593066
BRDA:153,146,292,521
BRDA:153,146,293,2820
BRDA:153,147,294,97
BRDA:153,147,295,19325
BRDA:153,148,296,20
BRDA:153,148,297,3314316
BRDA:153,149,298,52
BRDA:153,149,299,84851
BRDA:173,0,0,-
BRDA:173,0,1,-
BRDA:173,1,2,-
BRDA:173,1,3,-
BRDA:179,0,0,-
BRDA:179,0,1,-
BRDA:190,0,0,-
BRDA:190,0,1,-
BRDA:190,1,2,-
BRDA:190,1,3,-
BRDA:190,2,4,-
BRDA:190,2,5,-
BRDA:190,3,6,-
BRDA:190,3,7,-
BRDA:190,4,8,-
BRDA:190,4,9,-
BRDA:190,5,10,-
BRDA:190,5,11,-
BRDA:190,6,12,-
BRDA:190,6,13,-
BRDA:190,7,14,-
BRDA:190,7,15,-
BRDA:190,8,16,-
BRDA:190,8,17,-
BRDA:190,9,18,-
BRDA:190,9,19,-
BRDA:190,10,20,-
BRDA:190,10,21,-
BRDA:190,11,22,-
BRDA:190,11,23,-
BRDA:190,12,24,-
BRDA:190,12,25,-
BRDA:190,13,26,-
BRDA:190,13,27,-
BRDA:190,14,28,-
BRDA:190,14,29,-
BRDA:190,15,30,-
BRDA:190,15,31,-
BRDA:190,16,32,-
BRDA:190,16,33,-
BRDA:190,17,34,-
BRDA:190,17,35,-
BRDA:190,18,36,-
BRDA:190,18,37,-
BRDA:190,19,38,-
BRDA:190,19,39,-
BRDA:190,20,40,-
BRDA:190,20,41,-
BRDA:190,21,42,-
BRDA:190,21,43,-
BRDA:190,22,44,-
BRDA:190,22,45,-
BRDA:190,23,46,-
BRDA:190,23,47,-
BRDA:190,24,48,-
BRDA:190,24,49,-
BRDA:190,25,50,-
BRDA:190,25,51,-
BRDA:190,26,52,-
BRDA:190,26,53,-
BRDA:190,27,54,-
BRDA:190,27,55,-
BRDA:190,28,56,-
BRDA:190,28,57,-
BRDA:190,29,58,-
BRDA:190,29,59,-
BRDA:190,30,60,-
BRDA:190,30,61,-
BRDA:190,31,62,-
BRDA:190,31,63,-
BRDA:190,32,64,-
BRDA:190,32,65,-
BRDA:190,33,66,-
BRDA:190,33,67,-
BRDA:190,34,68,-
BRDA:190,34,69,-
BRDA:190,35,70,-
BRDA:190,35,71,-
BRDA:190,36,72,-
BRDA:190,36,73,-
BRDA:190,37,74,-
BRDA:190,37,75,-
BRDA:190,38,76,-
BRDA:190,38,77,-
BRDA:190,39,78,-
BRDA:190,39,79,-
BRDA:190,40,80,-
BRDA:190,40,81,-
BRDA:190,41,82,-
BRDA:190,41,83,-
BRDA:190,42,84,-
BRDA:190,42,85,-
BRDA:190,43,86,-
BRDA:190,43,87,-
BRDA:190,44,88,-
BRDA:190,44,89,-
BRDA:190,45,90,-
BRDA:190,45,91,-
BRDA:190,46,92,-
BRDA:190,46,93,-
BRDA:190,47,94,-
BRDA:190,47,95,-
BRDA:190,48,96,-
BRDA:190,48,97,-
BRDA:190,49,98,-
BRDA:190,49,99,-
BRDA:190,50,100,-
BRDA:190,50,101,-
BRDA:190,51,102,-
BRDA:190,51,103,-
BRDA:190,52,104,-
BRDA:190,52,105,-
BRDA:190,53,106,-
BRDA:190,53,107,-
BRDA:190,54,108,-
BRDA:190,54,109,-
BRDA:190,55,110,-
BRDA:190,55,111,-
BRDA:190,56,112,-
BRDA:190,56,113,-
BRDA:190,57,114,-
BRDA:190,57,115,-
BRDA:190,58,116,-
BRDA:190,58,117,-
BRDA:190,59,118,-
BRDA:190,59,119,-
BRDA:190,60,120,-
BRDA:190,60,121,-
BRDA:190,61,122,-
BRDA:190,61,123,-
BRDA:190,62,124,-
BRDA:190,62,125,-
BRDA:190,63,126,-
BRDA:190,63,127,-
BRDA:190,64,128,-
BRDA:190,64,129,-
BRDA:190,65,130,-
BRDA:190,65,131,-
BRDA:190,66,132,-
BRDA:190,66,133,-
BRDA:190,67,134,-
BRDA:190,67,135,-
BRDA:190,68,136,-
BRDA:190,68,137,-
BRDA:190,69,138,-
BRDA:190,69,139,-
BRDA:190,70,140,-
BRDA:190,70,141,-
BRDA:190,71,142,-
BRDA:190,71,143,-
BRDA:190,72,144,-
BRDA:190,72,145,-
BRDA:190,73,146,-
BRDA:190,73,147,-
BRDA:190,74,148,-
BRDA:190,74,149,-
BRDA:190,75,150,-
BRDA:190,75,151,-
BRDA:190,76,152,-
BRDA:190,76,153,-
BRDA:190,77,154,-
BRDA:190,77,155,-
BRDA:190,78,156,-
BRDA:190,78,157,-
BRDA:190,79,158,-
BRDA:190,79,159,-
BRDA:190,80,160,-
BRDA:190,80,161,-
BRDA:190,81,162,-
BRDA:190,81,163,-
BRDA:190,82,164,-
BRDA:190,82,165,-
BRDA:190,83,166,-
BRDA:190,83,167,-
BRDA:190,84,168,-
BRDA:190,84,169,-
BRDA:190,85,170,-
BRDA:190,85,171,-
BRDA:190,86,172,-
BRDA:190,86,173,-
BRDA:190,87,174,-
BRDA:190,87,175,-
BRDA:190,88,176,-
BRDA:190,88,177,-
BRDA:190,89,178,-
BRDA:190,89,179,-
BRDA:190,90,180,-
BRDA:190,90,181,-
BRDA:190,91,182,-
BRDA:190,91,183,-
BRDA:190,92,184,-
BRDA:190,92,185,-
BRDA:190,93,186,-
BRDA:190,93,187,-
BRDA:190,94,188,-
BRDA:190,94,189,-
BRDA:190,95,190,-
BRDA:190,95,191,-
BRDA:190,96,192,-
BRDA:190,96,193,-
BRDA:190,97,194,-
BRDA:190,97,195,-
BRDA:190,98,196,-
BRDA:190,98,197,-
BRDA:190,99,198,-
BRDA:190,99,199,-
BRDA:190,100,200,-
BRDA:190,100,201,-
BRDA:190,101,202,-
BRDA:190,101,203,-
BRDA:190,102,204,-
BRDA:190,102,205,-
BRDA:190,103,206,-
BRDA:190,103,207,-
BRDA:190,104,208,-
BRDA:190,104,209,-
BRDA:190,105,210,-
BRDA:190,105,211,-
BRDA:190,106,212,-
BRDA:190,106,213,-
BRDA:190,107,214,-
BRDA:190,107,215,-
BRDA:190,108,216,-
BRDA:190,108,217,-
BRDA:190,109,218,-
BRDA:190,109,219,-
BRDA:190,110,220,-
BRDA:190,110,221,-
BRDA:190,111,222,-
BRDA:190,111,223,-
BRDA:190,112,224,-
BRDA:190,112,225,-
BRDA:190,113,226,-
BRDA:190,113,227,-
BRDA:190,114,228,-
BRDA:190,114,229,-
BRDA:190,115,230,-
BRDA:190,115,231,-
BRDA:190,116,232,-
BRDA:190,116,233,-
BRDA:190,117,234,-
BRDA:190,117,235,-
BRDA:190,118,236,-
BRDA:190,118,237,-
BRDA:190,119,238,-
BRDA:190,119,239,-
BRDA:190,120,240,-
BRDA:190,120,241,-
BRDA:190,121,242,-
BRDA:190,121,243,-
BRDA:190,122,244,-
BRDA:190,122,245,-
BRDA:190,123,246,-
BRDA:190,123,247,-
BRDA:190,124,248,-
BRDA:190,124,249,-
BRDA:190,125,250,-
BRDA:190,125,251,-
BRDA:190,126,252,-
BRDA:190,126,253,-
BRDA:190,127,254,-
BRDA:190,127,255,-
BRDA:190,128,256,-
BRDA:190,128,257,-
BRDA:190,129,258,-
BRDA:190,129,259,-
BRDA:190,130,260,-
BRDA:190,130,261,-
BRDA:190,131,262,-
BRDA:190,131,263,-
BRDA:190,132,264,-
BRDA:190,132,265,-
BRDA:190,133,266,-
BRDA:190,133,267,-
BRDA:190,134,268,-
BRDA:190,134,269,-
BRDA:190,135,270,-
BRDA:190,135,271,-
BRDA:190,136,272,-
BRDA:190,136,273,-
BRDA:190,137,274,-
BRDA:190,137,275,-
BRDA:190,138,276,-
BRDA:190,138,277,-
BRDA:190,139,278,-
BRDA:190,139,279,-
BRDA:190,140,280,-
BRDA:190,140,281,-
BRDA:190,141,282,-
BRDA:190,141,283,-
BRDA:190,142,284,-
BRDA:190,142,285,-
BRDA:190,143,286,-
BRDA:190,143,287,-
BRDA:190,144,288,-
BRDA:190,144,289,-
BRDA:190,145,290,-
BRDA:190,145,291,-
BRDA:190,146,292,-
BRDA:190,146,293,-
BRDA:190,147,294,-
BRDA:190,147,295,-
BRDA:190,148,296,-
BRDA:190,148,297,-
BRDA:190,149,298,-
BRDA:190,149,299,-
BRDA:190,150,300,-
BRDA:190,150,301,-
BRDA:190,151,302,-
BRDA:190,151,303,-
BRDA:190,152,304,-
BRDA:190,152,305,-
BRDA:190,153,306,-
BRDA:190,153,307,-
BRDA:190,154,308,-
BRDA:190,154,309,-
BRDA:190,155,310,-
BRDA:190,155,311,-
BRDA:190,156,312,-
BRDA:190,156,313,-
BRDA:190,157,314,-
BRDA:190,157,315,-
BRDA:190,158,316,-
BRDA:190,158,317,-
BRDA:190,159,318,-
BRDA:190,159,319,-
BRDA:190,160,320,-
BRDA:190,160,321,-
BRDA:190,161,322,-
BRDA:190,161,323,-
BRDA:190,162,324,-
BRDA:190,162,325,-
BRDA:190,163,326,-
BRDA:190,163,327,-
BRDA:190,164,328,-
BRDA:190,164,329,-
BRDA:190,165,330,-
BRDA:190,165,331,-
BRDA:190,166,332,-
BRDA:190,166,333,-
BRDA:190,167,334,-
BRDA:190,167,335,-
BRDA:190,168,336,-
BRDA:190,168,337,-
BRDA:190,169,338,-
BRDA:190,169,339,-
BRDA:190,170,340,-
BRDA:190,170,341,-
BRDA:190,171,342,-
BRDA:190,171,343,-
BRDA:190,172,344,-
BRDA:190,172,345,-
BRDA:190,173,346,-
BRDA:190,173,347,-
BRDA:190,174,348,-
BRDA:190,174,349,-
BRDA:190,175,350,-
BRDA:190,175,351,-
BRDA:190,176,352,-
BRDA:190,176,353,-
BRDA:190,177,354,-
BRDA:190,177,355,-
BRDA:190,178,356,-
BRDA:190,178,357,-
BRDA:190,179,358,-
BRDA:190,179,359,-
BRDA:190,180,360,-
BRDA:190,180,361,-
BRDA:190,181,362,-
BRDA:190,181,363,-
BRDA:190,182,364,-
BRDA:190,182,365,-
BRDA:190,183,366,-
BRDA:190,183,367,-
BRDA:190,184,368,-
BRDA:190,184,369,-
BRDA:190,185,370,-
BRDA:190,185,371,-
BRDA:190,186,372,-
BRDA:190,186,373,-
BRDA:190,187,374,-
BRDA:190,187,375,-
BRDA:190,188,376,-
BRDA:190,188,377,-
BRDA:190,189,378,-
BRDA:190,189,379,-
BRDA:190,190,380,-
BRDA:190,190,381,-
BRDA:190,191,382,-
BRDA:190,191,383,-
BRDA:190,192,384,-
BRDA:190,192,385,-
BRDA:190,193,386,-
BRDA:190,193,387,-
BRDA:190,194,388,-
BRDA:190,194,389,-
BRDA:190,195,390,-
BRDA:190,195,391,-
BRDA:190,196,392,-
BRDA:190,196,393,-
BRDA:190,197,394,-
BRDA:190,197,395,-
BRDA:190,198,396,-
BRDA:190,198,397,-
BRDA:190,199,398,-
BRDA:190,199,399,-
BRDA:190,200,400,-
BRDA:190,200,401,-
BRDA:190,201,402,-
BRDA:190,201,403,-
BRDA:190,202,404,-
BRDA:190,202,405,-
BRDA:190,203,406,-
BRDA:190,203,407,-
BRDA:190,204,408,-
BRDA:190,204,409,-
BRDA:190,205,410,-
BRDA:190,205,411,-
BRDA:190,206,412,-
BRDA:190,206,413,-
BRDA:190,207,414,-
BRDA:190,207,415,-
BRDA:190,208,416,-
BRDA:190,208,417,-
BRDA:190,209,418,-
BRDA:190,209,419,-
BRDA:190,210,420,-
BRDA:190,210,421,-
BRDA:190,211,422,-
BRDA:190,211,423,-
BRDA:190,212,424,-
BRDA:190,212,425,-
BRDA:190,213,426,-
BRDA:190,213,427,-
BRDA:190,214,428,-
BRDA:190,214,429,-
BRDA:190,215,430,-
BRDA:190,215,431,-
BRDA:190,216,432,-
BRDA:190,216,433,-
BRDA:190,217,434,-
BRDA:190,217,435,-
BRDA:190,218,436,-
BRDA:190,218,437,-
BRDA:190,219,438,-
BRDA:190,219,439,-
BRDA:190,220,440,-
BRDA:190,220,441,-
BRDA:190,221,442,-
BRDA:190,221,443,-
BRDA:190,222,444,-
BRDA:190,222,445,-
BRDA:190,223,446,-
BRDA:190,223,447,-
BRDA:190,224,448,-
BRDA:190,224,449,-
BRDA:190,225,450,-
BRDA:190,225,451,-
BRDA:190,226,452,-
BRDA:190,226,453,-
BRDA:190,227,454,-
BRDA:190,227,455,-
BRDA:190,228,456,-
BRDA:190,228,457,-
BRDA:190,229,458,-
BRDA:190,229,459,-
BRDA:190,230,460,-
BRDA:190,230,461,-
BRDA:190,231,462,-
BRDA:190,231,463,-
BRDA:190,232,464,-
BRDA:190,232,465,-
BRDA:190,233,466,-
BRDA:190,233,467,-
BRDA:190,234,468,-
BRDA:190,234,469,-
BRDA:190,235,470,-
BRDA:190,235,471,-
BRDA:190,236,472,-
BRDA:190,236,473,-
BRDA:190,237,474,-
BRDA:190,237,475,-
BRDA:190,238,476,-
BRDA:190,238,477,-
BRDA:190,239,478,-
BRDA:190,239,479,-
BRDA:190,240,480,-
BRDA:190,240,481,-
BRDA:190,241,482,-
BRDA:190,241,483,-
BRDA:190,242,484,-
BRDA:190,242,485,-
BRDA:190,243,486,-
BRDA:190,243,487,-
BRDA:190,244,488,-
BRDA:190,244,489,-
BRDA:190,245,490,-
BRDA:190,245,491,-
BRDA:190,246,492,-
BRDA:190,246,493,-
BRDA:190,247,494,-
BRDA:190,247,495,-
BRDA:190,248,496,-
BRDA:190,248,497,-
BRDA:190,249,498,-
BRDA:190,249,499,-
BRDA:190,250,500,-
BRDA:190,250,501,-
BRDA:190,251,502,-
BRDA:190,251,503,-
BRDA:190,252,504,-
BRDA:190,252,505,-
BRDA:190,253,506,-
BRDA:190,253,507,-
BRDA:190,254,508,-
BRDA:190,254,509,-
BRDA:190,255,510,-
BRDA:190,255,511,-
BRDA:190,256,512,-
BRDA:190,256,513,-
BRDA:190,257,514,-
BRDA:190,257,515,-
BRDA:190,258,516,-
BRDA:190,258,517,-
BRDA:190,259,518,-
BRDA:190,259,519,-
BRDA:190,260,520,-
BRDA:190,260,521,-
BRDA:190,261,522,-
BRDA:190,261,523,-
BRDA:190,262,524,-
BRDA:190,262,525,-
BRDA:190,263,526,-
BRDA:190,263,527,-
BRDA:190,264,528,-
BRDA:190,264,529,-
BRDA:190,265,530,-
BRDA:190,265,531,-
BRDA:190,266,532,-
BRDA:190,266,533,-
BRDA:190,267,534,-
BRDA:190,267,535,-
BRDA:190,268,536,-
BRDA:190,268,537,-
BRDA:190,269,538,-
BRDA:190,269,539,-
BRDA:190,270,540,-
BRDA:190,270,541,-
BRDA:190,271,542,-
BRDA:190,271,543,-
BRDA:190,272,544,-
BRDA:190,272,545,-
BRDA:190,273,546,-
BRDA:190,273,547,-
BRDA:190,274,548,-
BRDA:190,274,549,-
BRDA:190,275,550,-
BRDA:190,275,551,-
BRDA:190,276,552,-
BRDA:190,276,553,-
BRDA:190,277,554,-
BRDA:190,277,555,-
BRDA:190,278,556,-
BRDA:190,278,557,-
BRDA:190,279,558,-
BRDA:190,279,559,-
BRDA:190,280,560,-
BRDA:190,280,561,-
BRDA:190,281,562,-
BRDA:190,281,563,-
BRDA:190,282,564,-
BRDA:190,282,565,-
BRDA:190,283,566,-
BRDA:190,283,567,-
BRDA:190,284,568,-
BRDA:190,284,569,-
BRDA:190,285,570,-
BRDA:190,285,571,-
BRDA:190,286,572,-
BRDA:190,286,573,-
BRDA:190,287,574,-
BRDA:190,287,575,-
BRDA:190,288,576,-
BRDA:190,288,577,-
BRDA:190,289,578,-
BRDA:190,289,579,-
BRDA:190,290,580,-
BRDA:190,290,581,-
BRDA:190,291,582,-
BRDA:190,291,583,-
BRDA:190,292,584,-
BRDA:190,292,585,-
BRDA:190,293,586,-
BRDA:190,293,587,-
BRDA:190,294,588,-
BRDA:190,294,589,-
BRDA:190,295,590,-
BRDA:190,295,591,-
BRDA:190,296,592,-
BRDA:190,296,593,-
BRDA:190,297,594,-
BRDA:190,297,595,-
BRDA:190,298,596,-
BRDA:190,298,597,-
BRDA:190,299,598,-
BRDA:190,299,599,-
BRDA:193,0,0,-
BRDA:193,0,1,-
BRDA:193,1,2,-
BRDA:193,1,3,-
BRDA:193,2,4,-
BRDA:193,2,5,-
BRDA:193,3,6,-
BRDA:193,3,7,-
BRDA:193,4,8,-
BRDA:193,4,9,-
BRDA:193,5,10,-
BRDA:193,5,11,-
BRDA:193,6,12,-
BRDA:193,6,13,-
BRDA:193,7,14,-
BRDA:193,7,15,-
BRDA:193,8,16,-
BRDA:193,8,17,-
BRDA:193,9,18,-
BRDA:193,9,19,-
BRDA:193,10,20,-
BRDA:193,10,21,-
BRDA:193,11,22,-
BRDA:193,11,23,-
BRDA:193,12,24,-
BRDA:193,12,25,-
BRDA:193,13,26,-
BRDA:193,13,27,-
BRDA:193,14,28,-
BRDA:193,14,29,-
BRDA:193,15,30,-
BRDA:193,15,31,-
BRDA:193,16,32,-
BRDA:193,16,33,-
BRDA:193,17,34,-
BRDA:193,17,35,-
BRDA:193,18,36,-
BRDA:193,18,37,-
BRDA:193,19,38,-
BRDA:193,19,39,-
BRDA:193,20,40,-
BRDA:193,20,41,-
BRDA:193,21,42,-
BRDA:193,21,43,-
BRDA:193,22,44,-
BRDA:193,22,45,-
BRDA:193,23,46,-
BRDA:193,23,47,-
BRDA:193,24,48,-
BRDA:193,24,49,-
BRDA:193,25,50,-
BRDA:193,25,51,-
BRDA:193,26,52,-
BRDA:193,26,53,-
BRDA:193,27,54,-
BRDA:193,27,55,-
BRDA:193,28,56,-
BRDA:193,28,57,-
BRDA:193,29,58,-
BRDA:193,29,59,-
BRDA:193,30,60,-
BRDA:193,30,61,-
BRDA:193,31,62,-
BRDA:193,31,63,-
BRDA:193,32,64,-
BRDA:193,32,65,-
BRDA:193,33,66,-
BRDA:193,33,67,-
BRDA:193,34,68,-
BRDA:193,34,69,-
BRDA:193,35,70,-
BRDA:193,35,71,-
BRDA:193,36,72,-
BRDA:193,36,73,-
BRDA:193,37,74,-
BRDA:193,37,75,-
BRDA:193,38,76,-
BRDA:193,38,77,-
BRDA:193,39,78,-
BRDA:193,39,79,-
BRDA:193,40,80,-
BRDA:193,40,81,-
BRDA:193,41,82,-
BRDA:193,41,83,-
BRDA:193,42,84,-
BRDA:193,42,85,-
BRDA:193,43,86,-
BRDA:193,43,87,-
BRDA:193,44,88,-
BRDA:193,44,89,-
BRDA:193,45,90,-
BRDA:193,45,91,-
BRDA:193,46,92,-
BRDA:193,46,93,-
BRDA:193,47,94,-
BRDA:193,47,95,-
BRDA:193,48,96,-
BRDA:193,48,97,-
BRDA:193,49,98,-
BRDA:193,49,99,-
BRDA:193,50,100,-
BRDA:193,50,101,-
BRDA:193,51,102,-
BRDA:193,51,103,-
BRDA:193,52,104,-
BRDA:193,52,105,-
BRDA:193,53,106,-
BRDA:193,53,107,-
BRDA:193,54,108,-
BRDA:193,54,109,-
BRDA:193,55,110,-
BRDA:193,55,111,-
BRDA:193,56,112,-
BRDA:193,56,113,-
BRDA:193,57,114,-
BRDA:193,57,115,-
BRDA:193,58,116,-
BRDA:193,58,117,-
BRDA:193,59,118,-
BRDA:193,59,119,-
BRDA:193,60,120,-
BRDA:193,60,121,-
BRDA:193,61,122,-
BRDA:193,61,123,-
BRDA:193,62,124,-
BRDA:193,62,125,-
BRDA:193,63,126,-
BRDA:193,63,127,-
BRDA:193,64,128,-
BRDA:193,64,129,-
BRDA:193,65,130,-
BRDA:193,65,131,-
BRDA:193,66,132,-
BRDA:193,66,133,-
BRDA:193,67,134,-
BRDA:193,67,135,-
BRDA:193,68,136,-
BRDA:193,68,137,-
BRDA:193,69,138,-
BRDA:193,69,139,-
BRDA:193,70,140,-
BRDA:193,70,141,-
BRDA:193,71,142,-
BRDA:193,71,143,-
BRDA:193,72,144,-
BRDA:193,72,145,-
BRDA:193,73,146,-
BRDA:193,73,147,-
BRDA:193,74,148,-
BRDA:193,74,149,-
BRDA:193,75,150,-
BRDA:193,75,151,-
BRDA:193,76,152,-
BRDA:193,76,153,-
BRDA:193,77,154,-
BRDA:193,77,155,-
BRDA:193,78,156,-
BRDA:193,78,157,-
BRDA:193,79,158,-
BRDA:193,79,159,-
BRDA:193,80,160,-
BRDA:193,80,161,-
BRDA:193,81,162,-
BRDA:193,81,163,-
BRDA:193,82,164,-
BRDA:193,82,165,-
BRDA:193,83,166,-
BRDA:193,83,167,-
BRDA:193,84,168,-
BRDA:193,84,169,-
BRDA:193,85,170,-
BRDA:193,85,171,-
BRDA:193,86,172,-
BRDA:193,86,173,-
BRDA:193,87,174,-
BRDA:193,87,175,-
BRDA:193,88,176,-
BRDA:193,88,177,-
BRDA:193,89,178,-
BRDA:193,89,179,-
BRDA:193,90,180,-
BRDA:193,90,181,-
BRDA:193,91,182,-
BRDA:193,91,183,-
BRDA:193,92,184,-
BRDA:193,92,185,-
BRDA:193,93,186,-
BRDA:193,93,187,-
BRDA:193,94,188,-
BRDA:193,94,189,-
BRDA:193,95,190,-
BRDA:193,95,191,-
BRDA:193,96,192,-
BRDA:193,96,193,-
BRDA:193,97,194,-
BRDA:193,97,195,-
BRDA:193,98,196,-
BRDA:193,98,197,-
BRDA:193,99,198,-
BRDA:193,99,199,-
BRDA:193,100,200,-
BRDA:193,100,201,-
BRDA:193,101,202,-
BRDA:193,101,203,-
BRDA:193,102,204,-
BRDA:193,102,205,-
BRDA:193,103,206,-
BRDA:193,103,207,-
BRDA:193,104,208,-
BRDA:193,104,209,-
BRDA:193,105,210,-
BRDA:193,105,211,-
BRDA:193,106,212,-
BRDA:193,106,213,-
BRDA:193,107,214,-
BRDA:193,107,215,-
BRDA:193,108,216,-
BRDA:193,108,217,-
BRDA:193,109,218,-
BRDA:193,109,219,-
BRDA:193,110,220,-
BRDA:193,110,221,-
BRDA:193,111,222,-
BRDA:193,111,223,-
BRDA:193,112,224,-
BRDA:193,112,225,-
BRDA:193,113,226,-
BRDA:193,113,227,-
BRDA:193,114,228,-
BRDA:193,114,229,-
BRDA:193,115,230,-
BRDA:193,115,231,-
BRDA:193,116,232,-
BRDA:193,116,233,-
BRDA:193,117,234,-
BRDA:193,117,235,-
BRDA:193,118,236,-
BRDA:193,118,237,-
BRDA:193,119,238,-
BRDA:193,119,239,-
BRDA:193,120,240,-
BRDA:193,120,241,-
BRDA:193,121,242,-
BRDA:193,121,243,-
BRDA:193,122,244,-
BRDA:193,122,245,-
BRDA:193,123,246,-
BRDA:193,123,247,-
BRDA:193,124,248,-
BRDA:193,124,249,-
BRDA:193,125,250,-
BRDA:193,125,251,-
BRDA:193,126,252,-
BRDA:193,126,253,-
BRDA:193,127,254,-
BRDA:193,127,255,-
BRDA:193,128,256,-
BRDA:193,128,257,-
BRDA:193,129,258,-
BRDA:193,129,259,-
BRDA:193,130,260,-
BRDA:193,130,261,-
BRDA:193,131,262,-
BRDA:193,131,263,-
BRDA:193,132,264,-
BRDA:193,132,265,-
BRDA:193,133,266,-
BRDA:193,133,267,-
BRDA:193,134,268,-
BRDA:193,134,269,-
BRDA:193,135,270,-
BRDA:193,135,271,-
BRDA:193,136,272,-
BRDA:193,136,273,-
BRDA:193,137,274,-
BRDA:193,137,275,-
BRDA:193,138,276,-
BRDA:193,138,277,-
BRDA:193,139,278,-
BRDA:193,139,279,-
BRDA:193,140,280,-
BRDA:193,140,281,-
BRDA:193,141,282,-
BRDA:193,141,283,-
BRDA:193,142,284,-
BRDA:193,142,285,-
BRDA:193,143,286,-
BRDA:193,143,287,-
BRDA:193,144,288,-
BRDA:193,144,289,-
BRDA:193,145,290,-
BRDA:193,145,291,-
BRDA:193,146,292,-
BRDA:193,146,293,-
BRDA:193,147,294,-
BRDA:193,147,295,-
BRDA:193,148,296,-
BRDA:193,148,297,-
BRDA:193,149,298,-
BRDA:193,149,299,-
BRDA:193,150,300,-
BRDA:193,150,301,-
BRDA:193,151,302,-
BRDA:193,151,303,-
BRDA:193,152,304,-
BRDA:193,152,305,-
BRDA:193,153,306,-
BRDA:193,153,307,-
BRDA:193,154,308,-
BRDA:193,154,309,-
BRDA:193,155,310,-
BRDA:193,155,311,-
BRDA:193,156,312,-
BRDA:193,156,313,-
BRDA:193,157,314,-
BRDA:193,157,315,-
BRDA:193,158,316,-
BRDA:193,158,317,-
BRDA:193,159,318,-
BRDA:193,159,319,-
BRDA:193,160,320,-
BRDA:193,160,321,-
BRDA:193,161,322,-
BRDA:193,161,323,-
BRDA:193,162,324,-
BRDA:193,162,325,-
BRDA:193,163,326,-
BRDA:193,163,327,-
BRDA:193,164,328,-
BRDA:193,164,329,-
BRDA:193,165,330,-
BRDA:193,165,331,-
BRDA:193,166,332,-
BRDA:193,166,333,-
BRDA:193,167,334,-
BRDA:193,167,335,-
BRDA:193,168,336,-
BRDA:193,168,337,-
BRDA:193,169,338,-
BRDA:193,169,339,-
BRDA:193,170,340,-
BRDA:193,170,341,-
BRDA:193,171,342,-
BRDA:193,171,343,-
BRDA:193,172,344,-
BRDA:193,172,345,-
BRDA:193,173,346,-
BRDA:193,173,347,-
BRDA:193,174,348,-
BRDA:193,174,349,-
BRDA:193,175,350,-
BRDA:193,175,351,-
BRDA:193,176,352,-
BRDA:193,176,353,-
BRDA:193,177,354,-
BRDA:193,177,355,-
BRDA:193,178,356,-
BRDA:193,178,357,-
BRDA:193,179,358,-
BRDA:193,179,359,-
BRDA:193,180,360,-
BRDA:193,180,361,-
BRDA:193,181,362,-
BRDA:193,181,363,-
BRDA:193,182,364,-
BRDA:193,182,365,-
BRDA:193,183,366,-
BRDA:193,183,367,-
BRDA:193,184,368,-
BRDA:193,184,369,-
BRDA:193,185,370,-
BRDA:193,185,371,-
BRDA:193,186,372,-
BRDA:193,186,373,-
BRDA:193,187,374,-
BRDA:193,187,375,-
BRDA:193,188,376,-
BRDA:193,188,377,-
BRDA:193,189,378,-
BRDA:193,189,379,-
BRDA:193,190,380,-
BRDA:193,190,381,-
BRDA:193,191,382,-
BRDA:193,191,383,-
BRDA:193,192,384,-
BRDA:193,192,385,-
BRDA:193,193,386,-
BRDA:193,193,387,-
BRDA:193,194,388,-
BRDA:193,194,389,-
BRDA:193,195,390,-
BRDA:193,195,391,-
BRDA:193,196,392,-
BRDA:193,196,393,-
BRDA:193,197,394,-
BRDA:193,197,395,-
BRDA:193,198,396,-
BRDA:193,198,397,-
BRDA:193,199,398,-
BRDA:193,199,399,-
BRDA:193,200,400,-
BRDA:193,200,401,-
BRDA:193,201,402,-
BRDA:193,201,403,-
BRDA:193,202,404,-
BRDA:193,202,405,-
BRDA:193,203,406,-
BRDA:193,203,407,-
BRDA:193,204,408,-
BRDA:193,204,409,-
BRDA:193,205,410,-
BRDA:193,205,411,-
BRDA:193,206,412,-
BRDA:193,206,413,-
BRDA:193,207,414,-
BRDA:193,207,415,-
BRDA:193,208,416,-
BRDA:193,208,417,-
BRDA:193,209,418,-
BRDA:193,209,419,-
BRDA:193,210,420,-
BRDA:193,210,421,-
BRDA:193,211,422,-
BRDA:193,211,423,-
BRDA:193,212,424,-
BRDA:193,212,425,-
BRDA:193,213,426,-
BRDA:193,213,427,-
BRDA:193,214,428,-
BRDA:193,214,429,-
BRDA:193,215,430,-
BRDA:193,215,431,-
BRDA:193,216,432,-
BRDA:193,216,433,-
BRDA:193,217,434,-
BRDA:193,217,435,-
BRDA:193,218,436,-
BRDA:193,218,437,-
BRDA:193,219,438,-
BRDA:193,219,439,-
BRDA:193,220,440,-
BRDA:193,220,441,-
BRDA:193,221,442,-
BRDA:193,221,443,-
BRDA:193,222,444,-
BRDA:193,222,445,-
BRDA:193,223,446,-
BRDA:193,223,447,-
BRDA:193,224,448,-
BRDA:193,224,449,-
BRDA:193,225,450,-
BRDA:193,225,451,-
BRDA:193,226,452,-
BRDA:193,226,453,-
BRDA:193,227,454,-
BRDA:193,227,455,-
BRDA:193,228,456,-
BRDA:193,228,457,-
BRDA:193,229,458,-
BRDA:193,229,459,-
BRDA:193,230,460,-
BRDA:193,230,461,-
BRDA:193,231,462,-
BRDA:193,231,463,-
BRDA:193,232,464,-
BRDA:193,232,465,-
BRDA:193,233,466,-
BRDA:193,233,467,-
BRDA:193,234,468,-
BRDA:193,234,469,-
BRDA:193,235,470,-
BRDA:193,235,471,-
BRDA:193,236,472,-
BRDA:193,236,473,-
BRDA:193,237,474,-
BRDA:193,237,475,-
BRDA:193,238,476,-
BRDA:193,238,477,-
BRDA:193,239,478,-
BRDA:193,239,479,-
BRDA:193,240,480,-
BRDA:193,240,481,-
BRDA:193,241,482,-
BRDA:193,241,483,-
BRDA:193,242,484,-
BRDA:193,242,485,-
BRDA:193,243,486,-
BRDA:193,243,487,-
BRDA:193,244,488,-
BRDA:193,244,489,-
BRDA:193,245,490,-
BRDA:193,245,491,-
BRDA:193,246,492,-
BRDA:193,246,493,-
BRDA:193,247,494,-
BRDA:193,247,495,-
BRDA:193,248,496,-
BRDA:193,248,497,-
BRDA:193,249,498,-
BRDA:193,249,499,-
BRDA:193,250,500,-
BRDA:193,250,501,-
BRDA:193,251,502,-
BRDA:193,251,503,-
BRDA:193,252,504,-
BRDA:193,252,505,-
BRDA:193,253,506,-
BRDA:193,253,507,-
BRDA:193,254,508,-
BRDA:193,254,509,-
BRDA:193,255,510,-
BRDA:193,255,511,-
BRDA:193,256,512,-
BRDA:193,256,513,-
BRDA:193,257,514,-
BRDA:193,257,515,-
BRDA:193,258,516,-
BRDA:193,258,517,-
BRDA:193,259,518,-
BRDA:193,259,519,-
BRDA:193,260,520,-
BRDA:193,260,521,-
BRDA:193,261,522,-
BRDA:193,261,523,-
BRDA:193,262,524,-
BRDA:193,262,525,-
BRDA:193,263,526,-
BRDA:193,263,527,-
BRDA:193,264,528,-
BRDA:193,264,529,-
BRDA:193,265,530,-
BRDA:193,265,531,-
BRDA:193,266,532,-
BRDA:193,266,533,-
BRDA:193,267,534,-
BRDA:193,267,535,-
BRDA:193,268,536,-
BRDA:193,268,537,-
BRDA:193,269,538,-
BRDA:193,269,539,-
BRDA:193,270,540,-
BRDA:193,270,541,-
BRDA:193,271,542,-
BRDA:193,271,543,-
BRDA:193,272,544,-
BRDA:193,272,545,-
BRDA:193,273,546,-
BRDA:193,273,547,-
BRDA:193,274,548,-
BRDA:193,274,549,-
BRDA:193,275,550,-
BRDA:193,275,551,-
BRDA:193,276,552,-
BRDA:193,276,553,-
BRDA:193,277,554,-
BRDA:193,277,555,-
BRDA:193,278,556,-
BRDA:193,278,557,-
BRDA:193,279,558,-
BRDA:193,279,559,-
BRDA:193,280,560,-
BRDA:193,280,561,-
BRDA:193,281,562,-
BRDA:193,281,563,-
BRDA:193,282,564,-
BRDA:193,282,565,-
BRDA:193,283,566,-
BRDA:193,283,567,-
BRDA:193,284,568,-
BRDA:193,284,569,-
BRDA:193,285,570,-
BRDA:193,285,571,-
BRDA:193,286,572,-
BRDA:193,286,573,-
BRDA:193,287,574,-
BRDA:193,287,575,-
BRDA:193,288,576,-
BRDA:193,288,577,-
BRDA:193,289,578,-
BRDA:193,289,579,-
BRDA:193,290,580,-
BRDA:193,290,581,-
BRDA:193,291,582,-
BRDA:193,291,583,-
BRDA:193,292,584,-
BRDA:193,292,585,-
BRDA:193,293,586,-
BRDA:193,293,587,-
BRDA:193,294,588,-
BRDA:193,294,589,-
BRDA:193,295,590,-
BRDA:193,295,591,-
BRDA:193,296,592,-
BRDA:193,296,593,-
BRDA:193,297,594,-
BRDA:193,297,595,-
BRDA:193,298,596,-
BRDA:193,298,597,-
BRDA:193,299,598,-
BRDA:193,299,599,-
BRDA:205,0,0,-
BRDA:205,0,1,-
BRDA:205,1,2,-
BRDA:205,1,3,-
BRDA:205,2,4,-
BRDA:205,2,5,-
BRDA:205,3,6,-
BRDA:205,3,7,-
BRDA:205,4,8,-
BRDA:205,4,9,-
BRDA:205,5,10,-
BRDA:205,5,11,-
BRDA:205,6,12,-
BRDA:205,6,13,-
BRDA:205,7,14,-
BRDA:205,7,15,-
BRDA:205,8,16,-
BRDA:205,8,17,-
BRDA:205,9,18,-
BRDA:205,9,19,-
BRDA:205,10,20,-
BRDA:205,10,21,-
BRDA:205,11,22,-
BRDA:205,11,23,-
BRDA:205,12,24,-
BRDA:205,12,25,-
BRDA:205,13,26,-
BRDA:205,13,27,-
BRDA:205,14,28,-
BRDA:205,14,29,-
BRDA:205,15,30,-
BRDA:205,15,31,-
BRDA:205,16,32,-
BRDA:205,16,33,-
BRDA:205,17,34,-
BRDA:205,17,35,-
BRDA:205,18,36,-
BRDA:205,18,37,-
BRDA:205,19,38,-
BRDA:205,19,39,-
BRDA:205,20,40,-
BRDA:205,20,41,-
BRDA:205,21,42,-
BRDA:205,21,43,-
BRDA:205,22,44,-
BRDA:205,22,45,-
BRDA:205,23,46,-
BRDA:205,23,47,-
BRDA:205,24,48,-
BRDA:205,24,49,-
BRDA:205,25,50,-
BRDA:205,25,51,-
BRDA:205,26,52,-
BRDA:205,26,53,-
BRDA:205,27,54,-
BRDA:205,27,55,-
BRDA:205,28,56,-
BRDA:205,28,57,-
BRDA:205,29,58,-
BRDA:205,29,59,-
BRDA:205,30,60,-
BRDA:205,30,61,-
BRDA:205,31,62,-
BRDA:205,31,63,-
BRDA:205,32,64,-
BRDA:205,32,65,-
BRDA:205,33,66,-
BRDA:205,33,67,-
BRDA:205,34,68,-
BRDA:205,34,69,-
BRDA:205,35,70,-
BRDA:205,35,71,-
BRDA:205,36,72,-
BRDA:205,36,73,-
BRDA:205,37,74,-
BRDA:205,37,75,-
BRDA:205,38,76,-
BRDA:205,38,77,-
BRDA:205,39,78,-
BRDA:205,39,79,-
BRDA:205,40,80,-
BRDA:205,40,81,-
BRDA:205,41,82,-
BRDA:205,41,83,-
BRDA:205,42,84,-
BRDA:205,42,85,-
BRDA:205,43,86,-
BRDA:205,43,87,-
BRDA:205,44,88,-
BRDA:205,44,89,-
BRDA:205,45,90,-
BRDA:205,45,91,-
BRDA:205,46,92,-
BRDA:205,46,93,-
BRDA:205,47,94,-
BRDA:205,47,95,-
BRDA:205,48,96,-
BRDA:205,48,97,-
BRDA:205,49,98,-
BRDA:205,49,99,-
BRDA:205,50,100,-
BRDA:205,50,101,-
BRDA:205,51,102,-
BRDA:205,51,103,-
BRDA:205,52,104,-
BRDA:205,52,105,-
BRDA:205,53,106,-
BRDA:205,53,107,-
BRDA:205,54,108,-
BRDA:205,54,109,-
BRDA:205,55,110,-
BRDA:205,55,111,-
BRDA:205,56,112,-
BRDA:205,56,113,-
BRDA:205,57,114,-
BRDA:205,57,115,-
BRDA:205,58,116,-
BRDA:205,58,117,-
BRDA:205,59,118,-
BRDA:205,59,119,-
BRDA:205,60,120,-
BRDA:205,60,121,-
BRDA:205,61,122,-
BRDA:205,61,123,-
BRDA:205,62,124,-
BRDA:205,62,125,-
BRDA:205,63,126,-
BRDA:205,63,127,-
BRDA:205,64,128,-
BRDA:205,64,129,-
BRDA:205,65,130,-
BRDA:205,65,131,-
BRDA:205,66,132,-
BRDA:205,66,133,-
BRDA:205,67,134,-
BRDA:205,67,135,-
BRDA:205,68,136,-
BRDA:205,68,137,-
BRDA:205,69,138,-
BRDA:205,69,139,-
BRDA:205,70,140,-
BRDA:205,70,141,-
BRDA:205,71,142,-
BRDA:205,71,143,-
BRDA:205,72,144,-
BRDA:205,72,145,-
BRDA:205,73,146,-
BRDA:205,73,147,-
BRDA:205,74,148,-
BRDA:205,74,149,-
BRDA:205,75,150,-
BRDA:205,75,151,-
BRDA:205,76,152,-
BRDA:205,76,153,-
BRDA:205,77,154,-
BRDA:205,77,155,-
BRDA:205,78,156,-
BRDA:205,78,157,-
BRDA:205,79,158,-
BRDA:205,79,159,-
BRDA:205,80,160,-
BRDA:205,80,161,-
BRDA:205,81,162,-
BRDA:205,81,163,-
BRDA:205,82,164,-
BRDA:205,82,165,-
BRDA:205,83,166,-
BRDA:205,83,167,-
BRDA:205,84,168,-
BRDA:205,84,169,-
BRDA:205,85,170,-
BRDA:205,85,171,-
BRDA:205,86,172,-
BRDA:205,86,173,-
BRDA:205,87,174,-
BRDA:205,87,175,-
BRDA:205,88,176,-
BRDA:205,88,177,-
BRDA:205,89,178,-
BRDA:205,89,179,-
BRDA:205,90,180,-
BRDA:205,90,181,-
BRDA:205,91,182,-
BRDA:205,91,183,-
BRDA:205,92,184,-
BRDA:205,92,185,-
BRDA:205,93,186,-
BRDA:205,93,187,-
BRDA:205,94,188,-
BRDA:205,94,189,-
BRDA:205,95,190,-
BRDA:205,95,191,-
BRDA:205,96,192,-
BRDA:205,96,193,-
BRDA:205,97,194,-
BRDA:205,97,195,-
BRDA:205,98,196,-
BRDA:205,98,197,-
BRDA:205,99,198,-
BRDA:205,99,199,-
BRDA:205,100,200,-
BRDA:205,100,201,-
BRDA:205,101,202,-
BRDA:205,101,203,-
BRDA:205,102,204,-
BRDA:205,102,205,-
BRDA:205,103,206,-
BRDA:205,103,207,-
BRDA:205,104,208,-
BRDA:205,104,209,-
BRDA:205,105,210,-
BRDA:205,105,211,-
BRDA:205,106,212,-
BRDA:205,106,213,-
BRDA:205,107,214,-
BRDA:205,107,215,-
BRDA:205,108,216,-
BRDA:205,108,217,-
BRDA:205,109,218,-
BRDA:205,109,219,-
BRDA:205,110,220,-
BRDA:205,110,221,-
BRDA:205,111,222,-
BRDA:205,111,223,-
BRDA:205,112,224,-
BRDA:205,112,225,-
BRDA:205,113,226,-
BRDA:205,113,227,-
BRDA:205,114,228,-
BRDA:205,114,229,-
BRDA:205,115,230,-
BRDA:205,115,231,-
BRDA:205,116,232,-
BRDA:205,116,233,-
BRDA:205,117,234,-
BRDA:205,117,235,-
BRDA:205,118,236,-
BRDA:205,118,237,-
BRDA:205,119,238,-
BRDA:205,119,239,-
BRDA:205,120,240,-
BRDA:205,120,241,-
BRDA:205,121,242,-
BRDA:205,121,243,-
BRDA:205,122,244,-
BRDA:205,122,245,-
BRDA:205,123,246,-
BRDA:205,123,247,-
BRDA:205,124,248,-
BRDA:205,124,249,-
BRDA:205,125,250,-
BRDA:205,125,251,-
BRDA:205,126,252,-
BRDA:205,126,253,-
BRDA:205,127,254,-
BRDA:205,127,255,-
BRDA:205,128,256,-
BRDA:205,128,257,-
BRDA:205,129,258,-
BRDA:205,129,259,-
BRDA:205,130,260,-
BRDA:205,130,261,-
BRDA:205,131,262,-
BRDA:205,131,263,-
BRDA:205,132,264,-
BRDA:205,132,265,-
BRDA:205,133,266,-
BRDA:205,133,267,-
BRDA:205,134,268,-
BRDA:205,134,269,-
BRDA:205,135,270,-
BRDA:205,135,271,-
BRDA:205,136,272,-
BRDA:205,136,273,-
BRDA:205,137,274,-
BRDA:205,137,275,-
BRDA:205,138,276,-
BRDA:205,138,277,-
BRDA:205,139,278,-
BRDA:205,139,279,-
BRDA:205,140,280,-
BRDA:205,140,281,-
BRDA:205,141,282,-
BRDA:205,141,283,-
BRDA:205,142,284,-
BRDA:205,142,285,-
BRDA:205,143,286,-
BRDA:205,143,287,-
BRDA:205,144,288,-
BRDA:205,144,289,-
BRDA:205,145,290,-
BRDA:205,145,291,-
BRDA:205,146,292,-
BRDA:205,146,293,-
BRDA:205,147,294,-
BRDA:205,147,295,-
BRDA:205,148,296,-
BRDA:205,148,297,-
BRDA:205,149,298,-
BRDA:205,149,299,-
BRDA:205,150,300,-
BRDA:205,150,301,-
BRDA:205,151,302,-
BRDA:205,151,303,-
BRDA:205,152,304,-
BRDA:205,152,305,-
BRDA:205,153,306,-
BRDA:205,153,307,-
BRDA:205,154,308,-
BRDA:205,154,309,-
BRDA:205,155,310,-
BRDA:205,155,311,-
BRDA:205,156,312,-
BRDA:205,156,313,-
BRDA:205,157,314,-
BRDA:205,157,315,-
BRDA:205,158,316,-
BRDA:205,158,317,-
BRDA:205,159,318,-
BRDA:205,159,319,-
BRDA:205,160,320,-
BRDA:205,160,321,-
BRDA:205,161,322,-
BRDA:205,161,323,-
BRDA:205,162,324,-
BRDA:205,162,325,-
BRDA:205,163,326,-
BRDA:205,163,327,-
BRDA:205,164,328,-
BRDA:205,164,329,-
BRDA:205,165,330,-
BRDA:205,165,331,-
BRDA:205,166,332,-
BRDA:205,166,333,-
BRDA:205,167,334,-
BRDA:205,167,335,-
BRDA:205,168,336,-
BRDA:205,168,337,-
BRDA:205,169,338,-
BRDA:205,169,339,-
BRDA:205,170,340,-
BRDA:205,170,341,-
BRDA:205,171,342,-
BRDA:205,171,343,-
BRDA:205,172,344,-
BRDA:205,172,345,-
BRDA:205,173,346,-
BRDA:205,173,347,-
BRDA:205,174,348,-
BRDA:205,174,349,-
BRDA:205,175,350,-
BRDA:205,175,351,-
BRDA:205,176,352,-
BRDA:205,176,353,-
BRDA:205,177,354,-
BRDA:205,177,355,-
BRDA:205,178,356,-
BRDA:205,178,357,-
BRDA:205,179,358,-
BRDA:205,179,359,-
BRDA:205,180,360,-
BRDA:205,180,361,-
BRDA:205,181,362,-
BRDA:205,181,363,-
BRDA:205,182,364,-
BRDA:205,182,365,-
BRDA:205,183,366,-
BRDA:205,183,367,-
BRDA:205,184,368,-
BRDA:205,184,369,-
BRDA:205,185,370,-
BRDA:205,185,371,-
BRDA:205,186,372,-
BRDA:205,186,373,-
BRDA:205,187,374,-
BRDA:205,187,375,-
BRDA:205,188,376,-
BRDA:205,188,377,-
BRDA:205,189,378,-
BRDA:205,189,379,-
BRDA:205,190,380,-
BRDA:205,190,381,-
BRDA:205,191,382,-
BRDA:205,191,383,-
BRDA:205,192,384,-
BRDA:205,192,385,-
BRDA:205,193,386,-
BRDA:205,193,387,-
BRDA:205,194,388,-
BRDA:205,194,389,-
BRDA:205,195,390,-
BRDA:205,195,391,-
BRDA:205,196,392,-
BRDA:205,196,393,-
BRDA:205,197,394,-
BRDA:205,197,395,-
BRDA:205,198,396,-
BRDA:205,198,397,-
BRDA:205,199,398,-
BRDA:205,199,399,-
BRDA:205,200,400,-
BRDA:205,200,401,-
BRDA:205,201,402,-
BRDA:205,201,403,-
BRDA:205,202,404,-
BRDA:205,202,405,-
BRDA:205,203,406,-
BRDA:205,203,407,-
BRDA:205,204,408,-
BRDA:205,204,409,-
BRDA:205,205,410,-
BRDA:205,205,411,-
BRDA:205,206,412,-
BRDA:205,206,413,-
BRDA:205,207,414,-
BRDA:205,207,415,-
BRDA:205,208,416,-
BRDA:205,208,417,-
BRDA:205,209,418,-
BRDA:205,209,419,-
BRDA:205,210,420,-
BRDA:205,210,421,-
BRDA:205,211,422,-
BRDA:205,211,423,-
BRDA:205,212,424,-
BRDA:205,212,425,-
BRDA:205,213,426,-
BRDA:205,213,427,-
BRDA:205,214,428,-
BRDA:205,214,429,-
BRDA:205,215,430,-
BRDA:205,215,431,-
BRDA:205,216,432,-
BRDA:205,216,433,-
BRDA:205,217,434,-
BRDA:205,217,435,-
BRDA:205,218,436,-
BRDA:205,218,437,-
BRDA:205,219,438,-
BRDA:205,219,439,-
BRDA:205,220,440,-
BRDA:205,220,441,-
BRDA:205,221,442,-
BRDA:205,221,443,-
BRDA:205,222,444,-
BRDA:205,222,445,-
BRDA:205,223,446,-
BRDA:205,223,447,-
BRDA:205,224,448,-
BRDA:205,224,449,-
BRDA:205,225,450,-
BRDA:205,225,451,-
BRDA:205,226,452,-
BRDA:205,226,453,-
BRDA:205,227,454,-
BRDA:205,227,455,-
BRDA:205,228,456,-
BRDA:205,228,457,-
BRDA:205,229,458,-
BRDA:205,229,459,-
BRDA:205,230,460,-
BRDA:205,230,461,-
BRDA:205,231,462,-
BRDA:205,231,463,-
BRDA:205,232,464,-
BRDA:205,232,465,-
BRDA:205,233,466,-
BRDA:205,233,467,-
BRDA:205,234,468,-
BRDA:205,234,469,-
BRDA:205,235,470,-
BRDA:205,235,471,-
BRDA:205,236,472,-
BRDA:205,236,473,-
BRDA:205,237,474,-
BRDA:205,237,475,-
BRDA:205,238,476,-
BRDA:205,238,477,-
BRDA:205,239,478,-
BRDA:205,239,479,-
BRDA:205,240,480,-
BRDA:205,240,481,-
BRDA:205,241,482,-
BRDA:205,241,483,-
BRDA:205,242,484,-
BRDA:205,242,485,-
BRDA:205,243,486,-
BRDA:205,243,487,-
BRDA:205,244,488,-
BRDA:205,244,489,-
BRDA:205,245,490,-
BRDA:205,245,491,-
BRDA:205,246,492,-
BRDA:205,246,493,-
BRDA:205,247,494,-
BRDA:205,247,495,-
BRDA:205,248,496,-
BRDA:205,248,497,-
BRDA:205,249,498,-
BRDA:205,249,499,-
BRDA:205,250,500,-
BRDA:205,250,501,-
BRDA:205,251,502,-
BRDA:205,251,503,-
BRDA:205,252,504,-
BRDA:205,252,505,-
BRDA:205,253,506,-
BRDA:205,253,507,-
BRDA:205,254,508,-
BRDA:205,254,509,-
BRDA:205,255,510,-
BRDA:205,255,511,-
BRDA:205,256,512,-
BRDA:205,256,513,-
BRDA:205,257,514,-
BRDA:205,257,515,-
BRDA:205,258,516,-
BRDA:205,258,517,-
BRDA:205,259,518,-
BRDA:205,259,519,-
BRDA:205,260,520,-
BRDA:205,260,521,-
BRDA:205,261,522,-
BRDA:205,261,523,-
BRDA:205,262,524,-
BRDA:205,262,525,-
BRDA:205,263,526,-
BRDA:205,263,527,-
BRDA:205,264,528,-
BRDA:205,264,529,-
BRDA:205,265,530,-
BRDA:205,265,531,-
BRDA:205,266,532,-
BRDA:205,266,533,-
BRDA:205,267,534,-
BRDA:205,267,535,-
BRDA:205,268,536,-
BRDA:205,268,537,-
BRDA:205,269,538,-
BRDA:205,269,539,-
BRDA:205,270,540,-
BRDA:205,270,541,-
BRDA:205,271,542,-
BRDA:205,271,543,-
BRDA:205,272,544,-
BRDA:205,272,545,-
BRDA:205,273,546,-
BRDA:205,273,547,-
BRDA:205,274,548,-
BRDA:205,274,549,-
BRDA:205,275,550,-
BRDA:205,275,551,-
BRDA:205,276,552,-
BRDA:205,276,553,-
BRDA:205,277,554,-
BRDA:205,277,555,-
BRDA:205,278,556,-
BRDA:205,278,557,-
BRDA:205,279,558,-
BRDA:205,279,559,-
BRDA:205,280,560,-
BRDA:205,280,561,-
BRDA:205,281,562,-
BRDA:205,281,563,-
BRDA:205,282,564,-
BRDA:205,282,565,-
BRDA:205,283,566,-
BRDA:205,283,567,-
BRDA:205,284,568,-
BRDA:205,284,569,-
BRDA:205,285,570,-
BRDA:205,285,571,-
BRDA:205,286,572,-
BRDA:205,286,573,-
BRDA:205,287,574,-
BRDA:205,287,575,-
BRDA:205,288,576,-
BRDA:205,288,577,-
BRDA:205,289,578,-
BRDA:205,289,579,-
BRDA:205,290,580,-
BRDA:205,290,581,-
BRDA:205,291,582,-
BRDA:205,291,583,-
BRDA:205,292,584,-
BRDA:205,292,585,-
BRDA:205,293,586,-
BRDA:205,293,587,-
BRDA:205,294,588,-
BRDA:205,294,589,-
BRDA:205,295,590,-
BRDA:205,295,591,-
BRDA:205,296,592,-
BRDA:205,296,593,-
BRDA:205,297,594,-
BRDA:205,297,595,-
BRDA:205,298,596,-
BRDA:205,298,597,-
BRDA:205,299,598,-
BRDA:205,299,599,-
BRDA:205,300,600,-
BRDA:205,300,601,-
BRDA:205,301,602,-
BRDA:205,301,603,-
BRDA:205,302,604,-
BRDA:205,302,605,-
BRDA:205,303,606,-
BRDA:205,303,607,-
BRDA:205,304,608,-
BRDA:205,304,609,-
BRDA:205,305,610,-
BRDA:205,305,611,-
BRDA:205,306,612,-
BRDA:205,306,613,-
BRDA:205,307,614,-
BRDA:205,307,615,-
BRDA:205,308,616,-
BRDA:205,308,617,-
BRDA:205,309,618,-
BRDA:205,309,619,-
BRDA:205,310,620,-
BRDA:205,310,621,-
BRDA:205,311,622,-
BRDA:205,311,623,-
BRDA:205,312,624,-
BRDA:205,312,625,-
BRDA:205,313,626,-
BRDA:205,313,627,-
BRDA:205,314,628,-
BRDA:205,314,629,-
BRDA:205,315,630,-
BRDA:205,315,631,-
BRDA:205,316,632,-
BRDA:205,316,633,-
BRDA:205,317,634,-
BRDA:205,317,635,-
BRDA:205,318,636,-
BRDA:205,318,637,-
BRDA:205,319,638,-
BRDA:205,319,639,-
BRDA:205,320,640,-
BRDA:205,320,641,-
BRDA:205,321,642,-
BRDA:205,321,643,-
BRDA:205,322,644,-
BRDA:205,322,645,-
BRDA:205,323,646,-
BRDA:205,323,647,-
BRDA:205,324,648,-
BRDA:205,324,649,-
BRDA:205,325,650,-
BRDA:205,325,651,-
BRDA:205,326,652,-
BRDA:205,326,653,-
BRDA:205,327,654,-
BRDA:205,327,655,-
BRDA:205,328,656,-
BRDA:205,328,657,-
BRDA:205,329,658,-
BRDA:205,329,659,-
BRDA:205,330,660,-
BRDA:205,330,661,-
BRDA:205,331,662,-
BRDA:205,331,663,-
BRDA:205,332,664,-
BRDA:205,332,665,-
BRDA:205,333,666,-
BRDA:205,333,667,-
BRDA:205,334,668,-
BRDA:205,334,669,-
BRDA:205,335,670,-
BRDA:205,335,671,-
BRDA:205,336,672,-
BRDA:205,336,673,-
BRDA:205,337,674,-
BRDA:205,337,675,-
BRDA:205,338,676,-
BRDA:205,338,677,-
BRDA:205,339,678,-
BRDA:205,339,679,-
BRDA:205,340,680,-
BRDA:205,340,681,-
BRDA:205,341,682,-
BRDA:205,341,683,-
BRDA:205,342,684,-
BRDA:205,342,685,-
BRDA:205,343,686,-
BRDA:205,343,687,-
BRDA:205,344,688,-
BRDA:205,344,689,-
BRDA:205,345,690,-
BRDA:205,345,691,-
BRDA:205,346,692,-
BRDA:205,346,693,-
BRDA:205,347,694,-
BRDA:205,347,695,-
BRDA:205,348,696,-
BRDA:205,348,697,-
BRDA:205,349,698,-
BRDA:205,349,699,-
BRDA:205,350,700,-
BRDA:205,350,701,-
BRDA:205,351,702,-
BRDA:205,351,703,-
BRDA:205,352,704,-
BRDA:205,352,705,-
BRDA:205,353,706,-
BRDA:205,353,707,-
BRDA:205,354,708,-
BRDA:205,354,709,-
BRDA:205,355,710,-
BRDA:205,355,711,-
BRDA:205,356,712,-
BRDA:205,356,713,-
BRDA:205,357,714,-
BRDA:205,357,715,-
BRDA:205,358,716,-
BRDA:205,358,717,-
BRDA:205,359,718,-
BRDA:205,359,719,-
BRDA:205,360,720,-
BRDA:205,360,721,-
BRDA:205,361,722,-
BRDA:205,361,723,-
BRDA:205,362,724,-
BRDA:205,362,725,-
BRDA:205,363,726,-
BRDA:205,363,727,-
BRDA:205,364,728,-
BRDA:205,364,729,-
BRDA:205,365,730,-
BRDA:205,365,731,-
BRDA:205,366,732,-
BRDA:205,366,733,-
BRDA:205,367,734,-
BRDA:205,367,735,-
BRDA:205,368,736,-
BRDA:205,368,737,-
BRDA:205,369,738,-
BRDA:205,369,739,-
BRDA:205,370,740,-
BRDA:205,370,741,-
BRDA:205,371,742,-
BRDA:205,371,743,-
BRDA:205,372,744,-
BRDA:205,372,745,-
BRDA:205,373,746,-
BRDA:205,373,747,-
BRDA:205,374,748,-
BRDA:205,374,749,-
BRDA:205,375,750,-
BRDA:205,375,751,-
BRDA:205,376,752,-
BRDA:205,376,753,-
BRDA:205,377,754,-
BRDA:205,377,755,-
BRDA:205,378,756,-
BRDA:205,378,757,-
BRDA:205,379,758,-
BRDA:205,379,759,-
BRDA:205,380,760,-
BRDA:205,380,761,-
BRDA:205,381,762,-
BRDA:205,381,763,-
BRDA:205,382,764,-
BRDA:205,382,765,-
BRDA:205,383,766,-
BRDA:205,383,767,-
BRDA:205,384,768,-
BRDA:205,384,769,-
BRDA:205,385,770,-
BRDA:205,385,771,-
BRDA:205,386,772,-
BRDA:205,386,773,-
BRDA:205,387,774,-
BRDA:205,387,775,-
BRDA:205,388,776,-
BRDA:205,388,777,-
BRDA:205,389,778,-
BRDA:205,389,779,-
BRDA:205,390,780,-
BRDA:205,390,781,-
BRDA:205,391,782,-
BRDA:205,391,783,-
BRDA:205,392,784,-
BRDA:205,392,785,-
BRDA:205,393,786,-
BRDA:205,393,787,-
BRDA:205,394,788,-
BRDA:205,394,789,-
BRDA:205,395,790,-
BRDA:205,395,791,-
BRDA:205,396,792,-
BRDA:205,396,793,-
BRDA:205,397,794,-
BRDA:205,397,795,-
BRDA:205,398,796,-
BRDA:205,398,797,-
BRDA:205,399,798,-
BRDA:205,399,799,-
BRDA:205,400,800,-
BRDA:205,400,801,-
BRDA:205,401,802,-
BRDA:205,401,803,-
BRDA:205,402,804,-
BRDA:205,402,805,-
BRDA:205,403,806,-
BRDA:205,403,807,-
BRDA:205,404,808,-
BRDA:205,404,809,-
BRDA:205,405,810,-
BRDA:205,405,811,-
BRDA:205,406,812,-
BRDA:205,406,813,-
BRDA:205,407,814,-
BRDA:205,407,815,-
BRDA:205,408,816,-
BRDA:205,408,817,-
BRDA:205,409,818,-
BRDA:205,409,819,-
BRDA:205,410,820,-
BRDA:205,410,821,-
BRDA:205,411,822,-
BRDA:205,411,823,-
BRDA:205,412,824,-
BRDA:205,412,825,-
BRDA:205,413,826,-
BRDA:205,413,827,-
BRDA:205,414,828,-
BRDA:205,414,829,-
BRDA:205,415,830,-
BRDA:205,415,831,-
BRDA:205,416,832,-
BRDA:205,416,833,-
BRDA:205,417,834,-
BRDA:205,417,835,-
BRDA:205,418,836,-
BRDA:205,418,837,-
BRDA:205,419,838,-
BRDA:205,419,839,-
BRDA:205,420,840,-
BRDA:205,420,841,-
BRDA:205,421,842,-
BRDA:205,421,843,-
BRDA:205,422,844,-
BRDA:205,422,845,-
BRDA:205,423,846,-
BRDA:205,423,847,-
BRDA:205,424,848,-
BRDA:205,424,849,-
BRDA:205,425,850,-
BRDA:205,425,851,-
BRDA:205,426,852,-
BRDA:205,426,853,-
BRDA:205,427,854,-
BRDA:205,427,855,-
BRDA:205,428,856,-
BRDA:205,428,857,-
BRDA:205,429,858,-
BRDA:205,429,859,-
BRDA:205,430,860,-
BRDA:205,430,861,-
BRDA:205,431,862,-
BRDA:205,431,863,-
BRDA:205,432,864,-
BRDA:205,432,865,-
BRDA:205,433,866,-
BRDA:205,433,867,-
BRDA:205,434,868,-
BRDA:205,434,869,-
BRDA:205,435,870,-
BRDA:205,435,871,-
BRDA:205,436,872,-
BRDA:205,436,873,-
BRDA:205,437,874,-
BRDA:205,437,875,-
BRDA:205,438,876,-
BRDA:205,438,877,-
BRDA:205,439,878,-
BRDA:205,439,879,-
BRDA:205,440,880,-
BRDA:205,440,881,-
BRDA:205,441,882,-
BRDA:205,441,883,-
BRDA:205,442,884,-
BRDA:205,442,885,-
BRDA:205,443,886,-
BRDA:205,443,887,-
BRDA:205,444,888,-
BRDA:205,444,889,-
BRDA:205,445,890,-
BRDA:205,445,891,-
BRDA:205,446,892,-
BRDA:205,446,893,-
BRDA:205,447,894,-
BRDA:205,447,895,-
BRDA:205,448,896,-
BRDA:205,448,897,-
BRDA:205,449,898,-
BRDA:205,449,899,-
BRDA:205,450,900,-
BRDA:205,450,901,-
BRDA:205,451,902,-
BRDA:205,451,903,-
BRDA:205,452,904,-
BRDA:205,452,905,-
BRDA:205,453,906,-
BRDA:205,453,907,-
BRDA:205,454,908,-
BRDA:205,454,909,-
BRDA:205,455,910,-
BRDA:205,455,911,-
BRDA:205,456,912,-
BRDA:205,456,913,-
BRDA:205,457,914,-
BRDA:205,457,915,-
BRDA:205,458,916,-
BRDA:205,458,917,-
BRDA:205,459,918,-
BRDA:205,459,919,-
BRDA:205,460,920,-
BRDA:205,460,921,-
BRDA:205,461,922,-
BRDA:205,461,923,-
BRDA:205,462,924,-
BRDA:205,462,925,-
BRDA:205,463,926,-
BRDA:205,463,927,-
BRDA:205,464,928,-
BRDA:205,464,929,-
BRDA:205,465,930,-
BRDA:205,465,931,-
BRDA:205,466,932,-
BRDA:205,466,933,-
BRDA:205,467,934,-
BRDA:205,467,935,-
BRDA:205,468,936,-
BRDA:205,468,937,-
BRDA:205,469,938,-
BRDA:205,469,939,-
BRDA:205,470,940,-
BRDA:205,470,941,-
BRDA:205,471,942,-
BRDA:205,471,943,-
BRDA:205,472,944,-
BRDA:205,472,945,-
BRDA:205,473,946,-
BRDA:205,473,947,-
BRDA:205,474,948,-
BRDA:205,474,949,-
BRDA:205,475,950,-
BRDA:205,475,951,-
BRDA:205,476,952,-
BRDA:205,476,953,-
BRDA:205,477,954,-
BRDA:205,477,955,-
BRDA:205,478,956,-
BRDA:205,478,957,-
BRDA:205,479,958,-
BRDA:205,479,959,-
BRDA:205,480,960,-
BRDA:205,480,961,-
BRDA:205,481,962,-
BRDA:205,481,963,-
BRDA:205,482,964,-
BRDA:205,482,965,-
BRDA:205,483,966,-
BRDA:205,483,967,-
BRDA:205,484,968,-
BRDA:205,484,969,-
BRDA:205,485,970,-
BRDA:205,485,971,-
BRDA:205,486,972,-
BRDA:205,486,973,-
BRDA:205,487,974,-
BRDA:205,487,975,-
BRDA:205,488,976,-
BRDA:205,488,977,-
BRDA:205,489,978,-
BRDA:205,489,979,-
BRDA:205,490,980,-
BRDA:205,490,981,-
BRDA:205,491,982,-
BRDA:205,491,983,-
BRDA:205,492,984,-
BRDA:205,492,985,-
BRDA:205,493,986,-
BRDA:205,493,987,-
BRDA:205,494,988,-
BRDA:205,494,989,-
BRDA:205,495,990,-
BRDA:205,495,991,-
BRDA:205,496,992,-
BRDA:205,496,993,-
BRDA:205,497,994,-
BRDA:205,497,995,-
BRDA:205,498,996,-
BRDA:205,498,997,-
BRDA:205,499,998,-
BRDA:205,499,999,-
BRDA:205,500,1000,-
BRDA:205,500,1001,-
BRDA:205,501,1002,-
BRDA:205,501,1003,-
BRDA:205,502,1004,-
BRDA:205,502,1005,-
BRDA:205,503,1006,-
BRDA:205,503,1007,-
BRDA:205,504,1008,-
BRDA:205,504,1009,-
BRDA:205,505,1010,-
BRDA:205,505,1011,-
BRDA:205,506,1012,-
BRDA:205,506,1013,-
BRDA:205,507,1014,-
BRDA:205,507,1015,-
BRDA:205,508,1016,-
BRDA:205,508,1017,-
BRDA:205,509,1018,-
BRDA:205,509,1019,-
BRDA:205,510,1020,-
BRDA:205,510,1021,-
BRDA:205,511,1022,-
BRDA:205,511,1023,-
BRDA:205,512,1024,-
BRDA:205,512,1025,-
BRDA:205,513,1026,-
BRDA:205,513,1027,-
BRDA:205,514,1028,-
BRDA:205,514,1029,-
BRDA:205,515,1030,-
BRDA:205,515,1031,-
BRDA:205,516,1032,-
BRDA:205,516,1033,-
BRDA:205,517,1034,-
BRDA:205,517,1035,-
BRDA:205,518,1036,-
BRDA:205,518,1037,-
BRDA:205,519,1038,-
BRDA:205,519,1039,-
BRDA:205,520,1040,-
BRDA:205,520,1041,-
BRDA:205,521,1042,-
BRDA:205,521,1043,-
BRDA:205,522,1044,-
BRDA:205,522,1045,-
BRDA:205,523,1046,-
BRDA:205,523,1047,-
BRDA:205,524,1048,-
BRDA:205,524,1049,-
BRDA:205,525,1050,-
BRDA:205,525,1051,-
BRDA:205,526,1052,-
BRDA:205,526,1053,-
BRDA:205,527,1054,-
BRDA:205,527,1055,-
BRDA:205,528,1056,-
BRDA:205,528,1057,-
BRDA:205,529,1058,-
BRDA:205,529,1059,-
BRDA:205,530,1060,-
BRDA:205,530,1061,-
BRDA:205,531,1062,-
BRDA:205,531,1063,-
BRDA:205,532,1064,-
BRDA:205,532,1065,-
BRDA:205,533,1066,-
BRDA:205,533,1067,-
BRDA:205,534,1068,-
BRDA:205,534,1069,-
BRDA:205,535,1070,-
BRDA:205,535,1071,-
BRDA:205,536,1072,-
BRDA:205,536,1073,-
BRDA:205,537,1074,-
BRDA:205,537,1075,-
BRDA:205,538,1076,-
BRDA:205,538,1077,-
BRDA:205,539,1078,-
BRDA:205,539,1079,-
BRDA:205,540,1080,-
BRDA:205,540,1081,-
BRDA:205,541,1082,-
BRDA:205,541,1083,-
BRDA:205,542,1084,-
BRDA:205,542,1085,-
BRDA:205,543,1086,-
BRDA:205,543,1087,-
BRDA:205,544,1088,-
BRDA:205,544,1089,-
BRDA:205,545,1090,-
BRDA:205,545,1091,-
BRDA:205,546,1092,-
BRDA:205,546,1093,-
BRDA:205,547,1094,-
BRDA:205,547,1095,-
BRDA:205,548,1096,-
BRDA:205,548,1097,-
BRDA:205,549,1098,-
BRDA:205,549,1099,-
BRDA:205,550,1100,-
BRDA:205,550,1101,-
BRDA:205,551,1102,-
BRDA:205,551,1103,-
BRDA:205,552,1104,-
BRDA:205,552,1105,-
BRDA:205,553,1106,-
BRDA:205,553,1107,-
BRDA:205,554,1108,-
BRDA:205,554,1109,-
BRDA:205,555,1110,-
BRDA:205,555,1111,-
BRDA:205,556,1112,-
BRDA:205,556,1113,-
BRDA:205,557,1114,-
BRDA:205,557,1115,-
BRDA:205,558,1116,-
BRDA:205,558,1117,-
BRDA:205,559,1118,-
BRDA:205,559,1119,-
BRDA:205,560,1120,-
BRDA:205,560,1121,-
BRDA:205,561,1122,-
BRDA:205,561,1123,-
BRDA:205,562,1124,-
BRDA:205,562,1125,-
BRDA:205,563,1126,-
BRDA:205,563,1127,-
BRDA:205,564,1128,-
BRDA:205,564,1129,-
BRDA:205,565,1130,-
BRDA:205,565,1131,-
BRDA:205,566,1132,-
BRDA:205,566,1133,-
BRDA:205,567,1134,-
BRDA:205,567,1135,-
BRDA:205,568,1136,-
BRDA:205,568,1137,-
BRDA:205,569,1138,-
BRDA:205,569,1139,-
BRDA:205,570,1140,-
BRDA:205,570,1141,-
BRDA:205,571,1142,-
BRDA:205,571,1143,-
BRDA:205,572,1144,-
BRDA:205,572,1145,-
BRDA:205,573,1146,-
BRDA:205,573,1147,-
BRDA:205,574,1148,-
BRDA:205,574,1149,-
BRDA:205,575,1150,-
BRDA:205,575,1151,-
BRDA:205,576,1152,-
BRDA:205,576,1153,-
BRDA:205,577,1154,-
BRDA:205,577,1155,-
BRDA:205,578,1156,-
BRDA:205,578,1157,-
BRDA:205,579,1158,-
BRDA:205,579,1159,-
BRDA:205,580,1160,-
BRDA:205,580,1161,-
BRDA:205,581,1162,-
BRDA:205,581,1163,-
BRDA:205,582,1164,-
BRDA:205,582,1165,-
BRDA:205,583,1166,-
BRDA:205,583,1167,-
BRDA:205,584,1168,-
BRDA:205,584,1169,-
BRDA:205,585,1170,-
BRDA:205,585,1171,-
BRDA:205,586,1172,-
BRDA:205,586,1173,-
BRDA:205,587,1174,-
BRDA:205,587,1175,-
BRDA:205,588,1176,-
BRDA:205,588,1177,-
BRDA:205,589,1178,-
BRDA:205,589,1179,-
BRDA:205,590,1180,-
BRDA:205,590,1181,-
BRDA:205,591,1182,-
BRDA:205,591,1183,-
BRDA:205,592,1184,-
BRDA:205,592,1185,-
BRDA:205,593,1186,-
BRDA:205,593,1187,-
BRDA:205,594,1188,-
BRDA:205,594,1189,-
BRDA:205,595,1190,-
BRDA:205,595,1191,-
BRDA:205,596,1192,-
BRDA:205,596,1193,-
BRDA:205,597,1194,-
BRDA:205,597,1195,-
BRDA:205,598,1196,-
BRDA:205,598,1197,-
BRDA:205,599,1198,-
BRDA:205,599,1199,-
BRDA:208,0,0,-
BRDA:208,0,1,-
BRDA:208,1,2,-
BRDA:208,1,3,-
BRDA:243,0,0,60
BRDA:243,0,1,30215
BRDA:243,1,2,60
BRDA:243,1,3,41033
BRDA:243,2,4,60
BRDA:243,2,5,42147
BRDA:243,3,6,60
BRDA:243,3,7,28787
BRDA:243,4,8,64
BRDA:243,4,9,34409
BRDA:243,5,10,60
BRDA:243,5,11,25033
BRDA:243,6,12,60
BRDA:243,6,13,91964
BRDA:243,7,14,60
BRDA:243,7,15,308928
BRDA:243,8,16,52
BRDA:243,8,17,5878398
BRDA:243,9,18,58
BRDA:243,9,19,1251666
BRDA:243,10,20,52
BRDA:243,10,21,617421
BRDA:243,11,22,421161
BRDA:243,11,23,0
BRDA:243,12,24,58
BRDA:243,12,25,283164
BRDA:243,13,26,76
BRDA:243,13,27,123428
BRDA:243,14,28,52
BRDA:243,14,29,63350
BRDA:243,15,30,58
BRDA:243,15,31,49035
BRDA:243,16,32,58
BRDA:243,16,33,443653
BRDA:243,17,34,70
BRDA:243,17,35,26606
BRDA:243,18,36,60
BRDA:243,18,37,29109
BRDA:243,19,38,60
BRDA:243,19,39,111290
BRDA:243,20,40,60
BRDA:243,20,41,46705
BRDA:243,21,42,64
BRDA:243,21,43,47183
BRDA:243,22,44,60
BRDA:243,22,45,41953
BRDA:243,23,46,60
BRDA:243,23,47,34775
BRDA:243,24,48,60
BRDA:243,24,49,28897
BRDA:243,25,50,60
BRDA:243,25,51,40549
BRDA:243,26,52,60
BRDA:243,26,53,38860
BRDA:243,27,54,60
BRDA:243,27,55,34153
BRDA:243,28,56,60
BRDA:243,28,57,31885
BRDA:243,29,58,60
BRDA:243,29,59,48729
BRDA:243,30,60,60
BRDA:243,30,61,21325
BRDA:243,31,62,60
BRDA:243,31,63,66284
BRDA:243,32,64,60
BRDA:243,32,65,31693
BRDA:243,33,66,82
BRDA:243,33,67,2265798
BRDA:243,34,68,60
BRDA:243,34,69,45065
BRDA:243,35,70,60
BRDA:243,35,71,37427
BRDA:243,36,72,60
BRDA:243,36,73,38367
BRDA:243,37,74,2566
BRDA:243,37,75,22804
BRDA:243,38,76,50
BRDA:243,38,77,4233
BRDA:243,39,78,52
BRDA:243,39,79,3558
BRDA:243,40,80,46
BRDA:243,40,81,2403
BRDA:243,41,82,46
BRDA:243,41,83,2409
BRDA:243,42,84,361
BRDA:243,42,85,9362
BRDA:243,43,86,242
BRDA:243,43,87,8217
BRDA:243,44,88,222
BRDA:243,44,89,4708
BRDA:243,45,90,208
BRDA:243,45,91,6898
BRDA:243,46,92,226
BRDA:243,46,93,862
BRDA:243,47,94,52
BRDA:243,47,95,6777
BRDA:243,48,96,900
BRDA:243,48,97,893315
BRDA:243,49,98,766
BRDA:243,49,99,82926
BRDA:243,50,100,535385
BRDA:243,50,101,0
BRDA:243,51,102,519
BRDA:243,51,103,101414
BRDA:243,52,104,2247
BRDA:243,52,105,25664
BRDA:243,53,106,565
BRDA:243,53,107,3063725
BRDA:243,54,108,25474
BRDA:243,54,109,0
BRDA:243,55,110,2033
BRDA:243,55,111,0
BRDA:243,56,112,52
BRDA:243,56,113,268242
BRDA:243,57,114,58
BRDA:243,57,115,24572
BRDA:243,58,116,70
BRDA:243,58,117,16544
BRDA:243,59,118,52
BRDA:243,59,119,30103
BRDA:243,60,120,64
BRDA:243,60,121,14998
BRDA:243,61,122,70
BRDA:243,61,123,25000
BRDA:243,62,124,70
BRDA:243,62,125,17241
BRDA:243,63,126,46
BRDA:243,63,127,716294
BRDA:243,64,128,46
BRDA:243,64,129,394893
BRDA:243,65,130,62
BRDA:243,65,131,52471
BRDA:243,66,132,52
BRDA:243,66,133,84851
BRDA:243,67,134,52
BRDA:243,67,135,35786
BRDA:243,68,136,52
BRDA:243,68,137,8097
BRDA:243,69,138,58
BRDA:243,69,139,3859
BRDA:243,70,140,52
BRDA:243,70,141,7775
BRDA:243,71,142,52
BRDA:243,71,143,5905
BRDA:243,72,144,52
BRDA:243,72,145,2291
BRDA:243,73,146,52
BRDA:243,73,147,2721
BRDA:243,74,148,34
BRDA:243,74,149,57039
BRDA:243,75,150,20
BRDA:243,75,151,51087
BRDA:243,76,152,20
BRDA:243,76,153,1706
BRDA:243,77,154,26
BRDA:243,77,155,67812
BRDA:243,78,156,20
BRDA:243,78,157,75484
BRDA:243,79,158,99
BRDA:243,79,159,3467673
BRDA:243,80,160,97
BRDA:243,80,161,19325
BRDA:243,81,162,97
BRDA:243,81,163,9052
BRDA:243,82,164,521
BRDA:243,82,165,2820
BRDA:243,83,166,2896
BRDA:243,83,167,12964
BRDA:243,84,168,20
BRDA:243,84,169,125185
BRDA:243,85,170,38
BRDA:243,85,171,9758
BRDA:243,86,172,34
BRDA:243,86,173,23687
BRDA:243,87,174,40
BRDA:243,87,175,276017
BRDA:243,88,176,34
BRDA:243,88,177,24786
BRDA:243,89,178,26
BRDA:243,89,179,1830629
BRDA:243,90,180,34
BRDA:243,90,181,185057
BRDA:243,91,182,166
BRDA:243,91,183,127545
BRDA:243,92,184,34
BRDA:243,92,185,21731
BRDA:243,93,186,20
BRDA:243,93,187,2364
BRDA:243,94,188,1421483
BRDA:243,94,189,0
BRDA:243,95,190,370
BRDA:243,95,191,15891059
BRDA:243,96,192,38
BRDA:243,96,193,244343
BRDA:243,97,194,20
BRDA:243,97,195,3314316
BRDA:243,98,196,26
BRDA:243,98,197,46489
BRDA:243,99,198,26
BRDA:243,99,199,4063
BRDA:243,100,200,20
BRDA:243,100,201,158501
BRDA:243,101,202,20
BRDA:243,101,203,3604
BRDA:243,102,204,20
BRDA:243,102,205,2090
BRDA:243,103,206,60
BRDA:243,103,207,120179
BRDA:243,104,208,320
BRDA:243,104,209,37156
BRDA:243,105,210,26
BRDA:243,105,211,2614
BRDA:243,106,212,36
BRDA:243,106,213,2935890
BRDA:243,107,214,20
BRDA:243,107,215,403813
BRDA:243,108,216,20
BRDA:243,108,217,6602
BRDA:243,109,218,20
BRDA:243,109,219,6242
BRDA:243,110,220,26
BRDA:243,110,221,841606
BRDA:243,111,222,28
BRDA:243,111,223,5288594
BRDA:243,112,224,20
BRDA:243,112,225,24092004
BRDA:243,113,226,768
BRDA:243,113,227,8725050
BRDA:243,114,228,632
BRDA:243,114,229,158231
BRDA:243,115,230,47
BRDA:243,115,231,1026458
BRDA:243,116,232,288765
BRDA:243,116,233,4443745
BRDA:243,117,234,550
BRDA:243,117,235,5518818
BRDA:243,118,236,2658
BRDA:243,118,237,7130756
BRDA:243,119,238,90
BRDA:243,119,239,5688559
BRDA:243,120,240,34
BRDA:243,120,241,16691
BRDA:243,121,242,44
BRDA:243,121,243,16593066
BRDA:243,122,244,34
BRDA:243,122,245,13481
BRDA:243,123,246,768
BRDA:243,123,247,1890213
BRDA:243,124,248,906
BRDA:243,124,249,9079234
BRDA:243,125,250,984
BRDA:243,125,251,1029
BRDA:243,126,252,730
BRDA:243,126,253,1182025
BRDA:243,127,254,3763
BRDA:243,127,255,81215762
BRDA:243,128,256,174
BRDA:243,128,257,10060320
BRDA:243,129,258,66
BRDA:243,129,259,1335684
BRDA:243,130,260,60
BRDA:243,130,261,57808
BRDA:243,131,262,130
BRDA:243,131,263,4526016
BRDA:243,132,264,140
BRDA:243,132,265,23388
BRDA:243,133,266,584
BRDA:243,133,267,471127
BRDA:243,134,268,164
BRDA:243,134,269,13177
BRDA:243,135,270,104
BRDA:243,135,271,60700
BRDA:243,136,272,784
BRDA:243,136,273,8908
BRDA:243,137,274,174
BRDA:243,137,275,3380
BRDA:243,138,276,20
BRDA:243,138,277,69958
BRDA:243,139,278,34
BRDA:243,139,279,14993
BRDA:243,140,280,34
BRDA:243,140,281,151218
BRDA:243,141,282,34
BRDA:243,141,283,134891
BRDA:243,142,284,34
BRDA:243,142,285,13892
BRDA:243,143,286,34
BRDA:243,143,287,15315
BRDA:243,144,288,340
BRDA:243,144,289,436
BRDA:243,145,290,340
BRDA:243,145,291,1577
BRDA:243,146,292,504
BRDA:243,146,293,538
BRDA:243,147,294,750
BRDA:243,147,295,2864
BRDA:243,148,296,766
BRDA:243,148,297,12846
BRDA:243,149,298,692
BRDA:243,149,299,12296360
BRDA:255,0,0,174
BRDA:255,0,1,3380
BRDA:255,1,2,58
BRDA:255,1,3,1251666
BRDA:255,2,4,60
BRDA:255,2,5,30215
BRDA:255,3,6,60
BRDA:255,3,7,41033
BRDA:255,4,8,60
BRDA:255,4,9,42147
BRDA:255,5,10,60
BRDA:255,5,11,28787
BRDA:255,6,12,64
BRDA:255,6,13,34409
BRDA:255,7,14,60
BRDA:255,7,15,25033
BRDA:255,8,16,60
BRDA:255,8,17,91964
BRDA:255,9,18,60
BRDA:255,9,19,308928
BRDA:255,10,20,52
BRDA:255,10,21,5878398
BRDA:255,11,22,60
BRDA:255,11,23,31885
BRDA:255,12,24,52
BRDA:255,12,25,617421
BRDA:255,13,26,58
BRDA:255,13,27,283164
BRDA:255,14,28,76
BRDA:255,14,29,123428
BRDA:255,15,30,52
BRDA:255,15,31,63350
BRDA:255,16,32,58
BRDA:255,16,33,49035
BRDA:255,17,34,58
BRDA:255,17,35,443653
BRDA:255,18,36,70
BRDA:255,18,37,26606
BRDA:255,19,38,62
BRDA:255,19,39,52471
BRDA:255,20,40,60
BRDA:255,20,41,29109
BRDA:255,21,42,60
BRDA:255,21,43,111290
BRDA:255,22,44,60
BRDA:255,22,45,46705
BRDA:255,23,46,64
BRDA:255,23,47,47183
BRDA:255,24,48,60
BRDA:255,24,49,41953
BRDA:255,25,50,60
BRDA:255,25,51,34775
BRDA:255,26,52,60
BRDA:255,26,53,28897
BRDA:255,27,54,60
BRDA:255,27,55,40549
BRDA:255,28,56,60
BRDA:255,28,57,38860
BRDA:255,29,58,60
BRDA:255,29,59,34153
BRDA:255,30,60,58
BRDA:255,30,61,24572
BRDA:255,31,62,60
BRDA:255,31,63,48729
BRDA:255,32,64,60
BRDA:255,32,65,21325
BRDA:255,33,66,60
BRDA:255,33,67,66284
BRDA:255,34,68,60
BRDA:255,34,69,31693
BRDA:255,35,70,82
BRDA:255,35,71,2265798
BRDA:255,36,72,60
BRDA:255,36,73,45065
BRDA:255,37,74,60
BRDA:255,37,75,37427
BRDA:255,38,76,60
BRDA:255,38,77,38367
BRDA:255,39,78,900
BRDA:255,39,79,893315
BRDA:255,40,80,52
BRDA:255,40,81,3558
BRDA:255,41,82,46
BRDA:255,41,83,2403
BRDA:255,42,84,46
BRDA:255,42,85,2409
BRDA:255,43,86,361
BRDA:255,43,87,9362
BRDA:255,44,88,242
BRDA:255,44,89,8217
BRDA:255,45,90,222
BRDA:255,45,91,4708
BRDA:255,46,92,208
BRDA:255,46,93,6898
BRDA:255,47,94,226
BRDA:255,47,95,862
BRDA:255,48,96,2566
BRDA:255,48,97,22804
BRDA:255,49,98,50
BRDA:255,49,99,4233
BRDA:255,50,100,766
BRDA:255,50,101,82926
BRDA:255,51,102,535385
BRDA:255,51,103,0
BRDA:255,52,104,519
BRDA:255,52,105,101414
BRDA:255,53,106,2247
BRDA:255,53,107,25664
BRDA:255,54,108,565
BRDA:255,54,109,3063725
BRDA:255,55,110,25474
BRDA:255,55,111,0
BRDA:255,56,112,2033
BRDA:255,56,113,0
BRDA:255,57,114,421161
BRDA:255,57,115,0
BRDA:255,58,116,52
BRDA:255,58,117,84851
BRDA:255,59,118,70
BRDA:255,59,119,16544
BRDA:255,60,120,52
BRDA:255,60,121,30103
BRDA:255,61,122,64
BRDA:255,61,123,14998
BRDA:255,62,124,70
BRDA:255,62,125,25000
BRDA:255,63,126,70
BRDA:255,63,127,17241
BRDA:255,64,128,46
BRDA:255,64,129,716294
BRDA:255,65,130,46
BRDA:255,65,131,394893
BRDA:255,66,132,52
BRDA:255,66,133,268242
BRDA:255,67,134,370
BRDA:255,67,135,15891059
BRDA:255,68,136,52
BRDA:255,68,137,35786
BRDA:255,69,138,52
BRDA:255,69,139,8097
BRDA:255,70,140,58
BRDA:255,70,141,3859
BRDA:255,71,142,52
BRDA:255,71,143,7775
BRDA:255,72,144,52
BRDA:255,72,145,5905
BRDA:255,73,146,52
BRDA:255,73,147,2291
BRDA:255,74,148,52
BRDA:255,74,149,2721
BRDA:255,75,150,52
BRDA:255,75,151,6777
BRDA:255,76,152,34
BRDA:255,76,153,57039
BRDA:255,77,154,20
BRDA:255,77,155,51087
BRDA:255,78,156,20
BRDA:255,78,157,1706
BRDA:255,79,158,26
BRDA:255,79,159,67812
BRDA:255,80,160,20
BRDA:255,80,161,75484
BRDA:255,81,162,99
BRDA:255,81,163,3467673
BRDA:255,82,164,97
BRDA:255,82,165,19325
BRDA:255,83,166,97
BRDA:255,83,167,9052
BRDA:255,84,168,521
BRDA:255,84,169,2820
BRDA:255,85,170,2896
BRDA:255,85,171,12964
BRDA:255,86,172,20
BRDA:255,86,173,125185
BRDA:255,87,174,38
BRDA:255,87,175,9758
BRDA:255,88,176,34
BRDA:255,88,177,23687
BRDA:255,89,178,40
BRDA:255,89,179,276017
BRDA:255,90,180,34
BRDA:255,90,181,24786
BRDA:255,91,182,26
BRDA:255,91,183,1830629
BRDA:255,92,184,34
BRDA:255,92,185,185057
BRDA:255,93,186,166
BRDA:255,93,187,127545
BRDA:255,94,188,34
BRDA:255,94,189,21731
BRDA:255,95,190,20
BRDA:255,95,191,2364
BRDA:255,96,192,1421483
BRDA:255,96,193,0
BRDA:255,97,194,38
BRDA:255,97,195,244343
BRDA:255,98,196,20
BRDA:255,98,197,3314316
BRDA:255,99,198,26
BRDA:255,99,199,46489
BRDA:255,100,200,26
BRDA:255,100,201,4063
BRDA:255,101,202,20
BRDA:255,101,203,158501
BRDA:255,102,204,20
BRDA:255,102,205,3604
BRDA:255,103,206,20
BRDA:255,103,207,2090
BRDA:255,104,208,60
BRDA:255,104,209,120179
BRDA:255,105,210,320
BRDA:255,105,211,37156
BRDA:255,106,212,26
BRDA:255,106,213,2614
BRDA:255,107,214,36
BRDA:255,107,215,2935890
BRDA:255,108,216,20
BRDA:255,108,217,403813
BRDA:255,109,218,20
BRDA:255,109,219,6602
BRDA:255,110,220,20
BRDA:255,110,221,6242
BRDA:255,111,222,26
BRDA:255,111,223,841606
BRDA:255,112,224,28
BRDA:255,112,225,5288594
BRDA:255,113,226,20
BRDA:255,113,227,24092004
BRDA:255,114,228,768
BRDA:255,114,229,8725050
BRDA:255,115,230,632
BRDA:255,115,231,158231
BRDA:255,116,232,47
BRDA:255,116,233,1026458
BRDA:255,117,234,288765
BRDA:255,117,235,4443745
BRDA:255,118,236,550
BRDA:255,118,237,5518818
BRDA:255,119,238,2658
BRDA:255,119,239,7130756
BRDA:255,120,240,90
BRDA:255,120,241,5688559
BRDA:255,121,242,34
BRDA:255,121,243,16691
BRDA:255,122,244,44
BRDA:255,122,245,16593066
BRDA:255,123,246,34
BRDA:255,123,247,13481
BRDA:255,124,248,768
BRDA:255,124,249,1890213
BRDA:255,125,250,906
BRDA:255,125,251,9079234
BRDA:255,126,252,984
BRDA:255,126,253,1029
BRDA:255,127,254,730
BRDA:255,127,255,1182025
BRDA:255,128,256,3763
BRDA:255,128,257,81215762
BRDA:255,129,258,174
BRDA:255,129,259,10060320
BRDA:255,130,260,66
BRDA:255,130,261,1335684
BRDA:255,131,262,60
BRDA:255,131,263,57808
BRDA:255,132,264,130
BRDA:255,132,265,4526016
BRDA:255,133,266,140
BRDA:255,133,267,23388
BRDA:255,134,268,584
BRDA:255,134,269,471127
BRDA:255,135,270,164
BRDA:255,135,271,13177
BRDA:255,136,272,104
BRDA:255,136,273,60700
BRDA:255,137,274,784
BRDA:255,137,275,8908
BRDA:255,138,276,20
BRDA:255,138,277,69958
BRDA:255,139,278,34
BRDA:255,139,279,14993
BRDA:255,140,280,34
BRDA:255,140,281,151218
BRDA:255,141,282,34
BRDA:255,141,283,134891
BRDA:255,142,284,34
BRDA:255,142,285,13892
BRDA:255,143,286,34
BRDA:255,143,287,15315
BRDA:255,144,288,340
BRDA:255,144,289,436
BRDA:255,145,290,340
BRDA:255,145,291,1577
BRDA:255,146,292,504
BRDA:255,146,293,538
BRDA:255,147,294,750
BRDA:255,147,295,2864
BRDA:255,148,296,766
BRDA:255,148,297,12846
BRDA:255,149,298,692
BRDA:255,149,299,12296360
BRDA:280,0,0,0
BRDA:280,0,1,2785059
BRDA:288,0,0,2785059
BRDA:288,0,1,0
BRDA:295,0,0,1964212
BRDA:295,0,1,820847
BRDA:295,1,2,25295
BRDA:295,1,3,795552
BRDA:296,0,0,1964212
BRDA:296,0,1,820847
BRDA:300,0,0,462268
BRDA:300,0,1,2322791
BRDA:302,0,0,0
BRDA:302,0,1,2785059
BRF:929
BRH:316
LF:172
LH:125
end_of_record
SF:/home/user/sources/ethereum/evmone/lib/evmone/baseline_instruction_table.cpp
FN:32,_ZN6evmone8baseline23get_baseline_cost_tableE13evmc_revision
FNDA:2785059,_ZN6evmone8baseline23get_baseline_cost_tableE13evmc_revision
FNF:1
FNH:1
DA:32,2785059
DA:33,2785059
DA:34,2785059
BRF:0
BRH:0
LF:3
LH:3
end_of_record
SF:/home/user/sources/ethereum/evmone/lib/evmone/delegation.cpp
FN:11,_ZN6evmone20get_delegate_addressERKN4evmc13HostInterfaceERKNS0_7addressE
FNDA:2446763,_ZN6evmone20get_delegate_addressERKN4evmc13HostInterfaceERKNS0_7addressE
FNF:1
FNH:1
DA:11,2446763
DA:15,2446763
DA:16,2446763
DA:17,2446763
DA:19,2446763
DA:20,2441333
DA:23,5430
DA:26,5430
DA:27,5430
DA:28,2446763
BRDA:19,0,0,2441333
BRDA:19,0,1,5430
BRF:2
BRH:2
LF:10
LH:10
end_of_record
SF:/home/user/sources/ethereum/evmone/lib/evmone/delegation.hpp
FN:21,_ZN6evmone17is_code_delegatedESt17basic_string_viewIhN4evmc11byte_traitsIhEEE
FNDA:3046757,_ZN6evmone17is_code_delegatedESt17basic_string_viewIhN4evmc11byte_traitsIhEEE
FNF:1
FNH:1
DA:21,3046757
DA:22,3046757
DA:23,3046757
BRF:0
BRH:0
LF:3
LH:3
end_of_record
SF:/home/user/sources/ethereum/evmone/lib/evmone/execution_state.hpp
FN:50,_ZN6evmone10StackSpace6bottomEv
FN:65,_ZNK6evmone6Memory11FreeDeleterclEPh
FN:77,_ZN6evmone6Memory20handle_out_of_memoryEv
FN:80,_ZN6evmone6Memory17allocate_capacityEv
FN:88,_ZN6evmone6MemoryC2Ev
FN:90,_ZN6evmone6MemoryixEm
FN:92,_ZNK6evmone6Memory4sizeEv
FN:98,_ZN6evmone6Memory4growEm
FN:122,_ZN6evmone6Memory5clearEv
FN:176,_ZN6evmone14ExecutionStateC2ERK12evmc_message13evmc_revisionRK19evmc_host_interfaceP17evmc_host_contextSt17basic_string_viewIhN4evmc11byte_traitsIhEEE
FN:183,_ZN6evmone14ExecutionState5resetERK12evmc_message13evmc_revisionRK19evmc_host_interfaceP17evmc_host_contextSt17basic_string_viewIhN4evmc11byte_traitsIhEEE
FN:197,_ZNK6evmone14ExecutionState14in_static_modeEv
FN:200,_ZN6evmone14ExecutionState14get_tx_contextEv
FN:171,_ZN6evmone14ExecutionStateC2Ev
FNDA:2785059,_ZN6evmone10StackSpace6bottomEv
FNDA:2050,_ZNK6evmone6Memory11FreeDeleterclEPh
FNDA:0,_ZN6evmone6Memory20handle_out_of_memoryEv
FNDA:6764,_ZN6evmone6Memory17allocate_capacityEv
FNDA:2050,_ZN6evmone6MemoryC2Ev
FNDA:25122366,_ZN6evmone6MemoryixEm
FNDA:27469456,_ZNK6evmone6Memory4sizeEv
FNDA:1820651,_ZN6evmone6Memory4growEm
FNDA:2785059,_ZN6evmone6Memory5clearEv
FNDA:0,_ZN6evmone14ExecutionStateC2ERK12evmc_message13evmc_revisionRK19evmc_host_interfaceP17evmc_host_contextSt17basic_string_viewIhN4evmc11byte_traitsIhEEE
FNDA:2785059,_ZN6evmone14ExecutionState5resetERK12evmc_message13evmc_revisionRK19evmc_host_interfaceP17evmc_host_contextSt17basic_string_viewIhN4evmc11byte_traitsIhEEE
FNDA:13992071,_ZNK6evmone14ExecutionState14in_static_modeEv
FNDA:454119,_ZN6evmone14ExecutionState14get_tx_contextEv
FNDA:2050,_ZN6evmone14ExecutionStateC2Ev
FNF:14
FNH:12
DA:50,2785059
DA:65,2050
DA:77,0
DA:80,6764
DA:81,6764
DA:82,6764
DA:83,0
DA:84,6764
DA:88,2050
DA:90,25122366
DA:92,27469456
DA:98,1820651
DA:100,1820651
DA:103,1820651
DA:105,1820651
DA:106,4714
DA:107,4714
DA:109,4714
DA:110,1668
DA:112,1668
DA:113,1668
DA:115,4714
DA:116,4714
DA:117,1820651
DA:118,1820651
DA:119,1820651
DA:122,2785059
DA:171,2050
DA:176,0
DA:177,0
DA:183,2785059
DA:184,2785059
DA:185,2785059
DA:186,2785059
DA:187,2785059
DA:188,2785059
DA:189,2785059
DA:190,2785059
DA:191,2785059
DA:192,2785059
DA:193,2785059
DA:194,2785059
DA:195,2785059
DA:197,13992071
DA:200,454119
DA:201,454119
DA:202,173055
DA:203,454119
DA:204,454119
BRDA:82,0,0,0
BRDA:82,0,1,6764
BRDA:100,0,0,1820651
BRDA:100,0,1,0
BRDA:103,0,0,1820651
BRDA:103,0,1,0
BRDA:105,0,0,4714
BRDA:105,0,1,1815937
BRDA:109,0,0,1668
BRDA:109,0,1,3046
BRDA:201,0,0,173055
BRDA:201,0,1,281064
BRF:12
BRH:9
LF:49
LH:45
end_of_record
SF:/home/user/sources/ethereum/evmone/lib/evmone/instructions.hpp
FN:24,_ZN6evmone8StackTopC2EPN4intx4uintILj256EEE
FN:28,_ZN6evmone8StackTop3endEv
FN:33,_ZN6evmone8StackTopixEi
FN:36,_ZN6evmone8StackTop3topEv
FN:40,_ZN6evmone8StackTop3popEv
FN:43,_ZN6evmone8StackTop4pushERKN4intx4uintILj256EEE
FN:66,_ZN6evmone9num_wordsEm
FN:72,_ZN6evmone9copy_costEm
FN:86,_ZN6evmone11grow_memoryElRNS_6MemoryEm
FN:105,_ZN6evmone12check_memoryERlRNS_6MemoryERKN4intx4uintILj256EEEm
FN:122,_ZN6evmone12check_memoryERlRNS_6MemoryERKN4intx4uintILj256EEES7_
FN:146,_ZN6evmone5instr4core4noopENS_8StackTopE
FN:160,_ZN6evmone5instr4core3addENS_8StackTopE
FN:165,_ZN6evmone5instr4core3mulENS_8StackTopE
FN:170,_ZN6evmone5instr4core3subENS_8StackTopE
FN:175,_ZN6evmone5instr4core3divENS_8StackTopE
FN:181,_ZN6evmone5instr4core4sdivENS_8StackTopE
FN:187,_ZN6evmone5instr4core3modENS_8StackTopE
FN:193,_ZN6evmone5instr4core4smodENS_8StackTopE
FN:199,_ZN6evmone5instr4core6addmodENS_8StackTopE
FN:207,_ZN6evmone5instr4core6mulmodENS_8StackTopE
FN:215,_ZN6evmone5instr4core3expENS_8StackTopElRNS_14ExecutionStateE
FN:231,_ZN6evmone5instr4core10signextendENS_8StackTopE
FN:264,_ZN6evmone5instr4core2ltENS_8StackTopE
FN:270,_ZN6evmone5instr4core2gtENS_8StackTopE
FN:276,_ZN6evmone5instr4core3sltENS_8StackTopE
FN:282,_ZN6evmone5instr4core3sgtENS_8StackTopE
FN:288,_ZN6evmone5instr4core2eqENS_8StackTopE
FN:293,_ZN6evmone5instr4core6iszeroENS_8StackTopE
FN:298,_ZN6evmone5instr4core4and_ENS_8StackTopE
FN:303,_ZN6evmone5instr4core3or_ENS_8StackTopE
FN:308,_ZN6evmone5instr4core4xor_ENS_8StackTopE
FN:313,_ZN6evmone5instr4core4not_ENS_8StackTopE
FN:318,_ZN6evmone5instr4core4byteENS_8StackTopE
FN:333,_ZN6evmone5instr4core3shlENS_8StackTopE
FN:338,_ZN6evmone5instr4core3shrENS_8StackTopE
FN:343,_ZN6evmone5instr4core3sarENS_8StackTopE
FN:355,_ZN6evmone5instr4core3clzENS_8StackTopE
FN:360,_ZN6evmone5instr4core9keccak256ENS_8StackTopElRNS_14ExecutionStateE
FN:381,_ZN6evmone5instr4core7addressENS_8StackTopERNS_14ExecutionStateE
FN:386,_ZN6evmone5instr4core7balanceENS_8StackTopElRNS_14ExecutionStateE
FN:401,_ZN6evmone5instr4core6originENS_8StackTopERNS_14ExecutionStateE
FN:406,_ZN6evmone5instr4core6callerENS_8StackTopERNS_14ExecutionStateE
FN:411,_ZN6evmone5instr4core9callvalueENS_8StackTopERNS_14ExecutionStateE
FN:416,_ZN6evmone5instr4core12calldataloadENS_8StackTopERNS_14ExecutionStateE
FN:435,_ZN6evmone5instr4core12calldatasizeENS_8StackTopERNS_14ExecutionStateE
FN:440,_ZN6evmone5instr4core12calldatacopyENS_8StackTopElRNS_14ExecutionStateE
FN:467,_ZN6evmone5instr4core8codesizeENS_8StackTopERNS_14ExecutionStateE
FN:472,_ZN6evmone5instr4core8codecopyENS_8StackTopElRNS_14ExecutionStateE
FN:503,_ZN6evmone5instr4core8gaspriceENS_8StackTopERNS_14ExecutionStateE
FN:508,_ZN6evmone5instr4core7basefeeENS_8StackTopERNS_14ExecutionStateE
FN:513,_ZN6evmone5instr4core8blobhashENS_8StackTopERNS_14ExecutionStateE
FN:523,_ZN6evmone5instr4core11blobbasefeeENS_8StackTopERNS_14ExecutionStateE
FN:528,_ZN6evmone5instr4core11extcodesizeENS_8StackTopElRNS_14ExecutionStateE
FN:543,_ZN6evmone5instr4core11extcodecopyENS_8StackTopElRNS_14ExecutionStateE
FN:576,_ZN6evmone5instr4core14returndatasizeENS_8StackTopERNS_14ExecutionStateE
FN:581,_ZN6evmone5instr4core14returndatacopyENS_8StackTopElRNS_14ExecutionStateE
FN:609,_ZN6evmone5instr4core11extcodehashENS_8StackTopElRNS_14ExecutionStateE
FN:625,_ZN6evmone5instr4core9blockhashENS_8StackTopERNS_14ExecutionStateE
FN:637,_ZN6evmone5instr4core8coinbaseENS_8StackTopERNS_14ExecutionStateE
FN:642,_ZN6evmone5instr4core9timestampENS_8StackTopERNS_14ExecutionStateE
FN:648,_ZN6evmone5instr4core6numberENS_8StackTopERNS_14ExecutionStateE
FN:654,_ZN6evmone5instr4core10prevrandaoENS_8StackTopERNS_14ExecutionStateE
FN:659,_ZN6evmone5instr4core8gaslimitENS_8StackTopERNS_14ExecutionStateE
FN:664,_ZN6evmone5instr4core7chainidENS_8StackTopERNS_14ExecutionStateE
FN:669,_ZN6evmone5instr4core11selfbalanceENS_8StackTopERNS_14ExecutionStateE
FN:675,_ZN6evmone5instr4core5mloadENS_8StackTopElRNS_14ExecutionStateE
FN:686,_ZN6evmone5instr4core6mstoreENS_8StackTopElRNS_14ExecutionStateE
FN:698,_ZN6evmone5instr4core7mstore8ENS_8StackTopElRNS_14ExecutionStateE
FN:715,_ZN6evmone5instr4core9jump_implERNS_14ExecutionStateERKN4intx4uintILj256EEE
FN:728,_ZN6evmone5instr4core4jumpENS_8StackTopERNS_14ExecutionStateEPKh
FN:734,_ZN6evmone5instr4core5jumpiENS_8StackTopERNS_14ExecutionStateEPKh
FN:741,_ZN6evmone5instr4core2pcENS_8StackTopERNS_14ExecutionStateEPKh
FN:747,_ZN6evmone5instr4core5msizeENS_8StackTopERNS_14ExecutionStateE
FN:752,_ZN6evmone5instr4core3gasENS_8StackTopElRNS_14ExecutionStateE
FN:758,_ZN6evmone5instr4core5tloadENS_8StackTopERNS_14ExecutionStateE
FN:766,_ZN6evmone5instr4core6tstoreENS_8StackTopElRNS_14ExecutionStateE
FN:777,_ZN6evmone5instr4core5push0ENS_8StackTopE
FN:793,_ZN6evmone5instr4core22load_partial_push_dataILm1EEEmPKh
FN:799,_ZN6evmone5instr4core22load_partial_push_dataILm2EEEmPKh
FN:805,_ZN6evmone5instr4core22load_partial_push_dataILm3EEEmPKh
FN:812,_ZN6evmone5instr4core22load_partial_push_dataILm4EEEmPKh
FN:885,_ZN6evmone5instr4core5mcopyENS_8StackTopElRNS_14ExecutionStateE
FN:970,_ZN6evmone5instr4core12selfdestructENS_8StackTopElRNS_14ExecutionStateE
FN:153,_ZN6evmone5instr4core9stop_implIL16evmc_status_code0EEENS_10TermResultENS_8StackTopElRNS_14ExecutionStateE
FN:153,_ZN6evmone5instr4core9stop_implIL16evmc_status_code4EEENS_10TermResultENS_8StackTopElRNS_14ExecutionStateE
FN:954,_ZN6evmone5instr4core11return_implIL16evmc_status_code0EEENS_10TermResultENS_8StackTopElRNS_14ExecutionStateE
FN:954,_ZN6evmone5instr4core11return_implIL16evmc_status_code2EEENS_10TermResultENS_8StackTopElRNS_14ExecutionStateE
FN:822,_ZN6evmone5instr4core4pushILm1EEEPKhNS_8StackTopERNS_14ExecutionStateES4_
FN:822,_ZN6evmone5instr4core4pushILm2EEEPKhNS_8StackTopERNS_14ExecutionStateES4_
FN:822,_ZN6evmone5instr4core4pushILm3EEEPKhNS_8StackTopERNS_14ExecutionStateES4_
FN:822,_ZN6evmone5instr4core4pushILm4EEEPKhNS_8StackTopERNS_14ExecutionStateES4_
FN:822,_ZN6evmone5instr4core4pushILm5EEEPKhNS_8StackTopERNS_14ExecutionStateES4_
FN:784,_ZN6evmone5instr4core22load_partial_push_dataILm5EEEmPKh
FN:822,_ZN6evmone5instr4core4pushILm6EEEPKhNS_8StackTopERNS_14ExecutionStateES4_
FN:784,_ZN6evmone5instr4core22load_partial_push_dataILm6EEEmPKh
FN:822,_ZN6evmone5instr4core4pushILm7EEEPKhNS_8StackTopERNS_14ExecutionStateES4_
FN:784,_ZN6evmone5instr4core22load_partial_push_dataILm7EEEmPKh
FN:822,_ZN6evmone5instr4core4pushILm8EEEPKhNS_8StackTopERNS_14ExecutionStateES4_
FN:822,_ZN6evmone5instr4core4pushILm9EEEPKhNS_8StackTopERNS_14ExecutionStateES4_
FN:822,_ZN6evmone5instr4core4pushILm10EEEPKhNS_8StackTopERNS_14ExecutionStateES4_
FN:822,_ZN6evmone5instr4core4pushILm11EEEPKhNS_8StackTopERNS_14ExecutionStateES4_
FN:822,_ZN6evmone5instr4core4pushILm12EEEPKhNS_8StackTopERNS_14ExecutionStateES4_
FN:822,_ZN6evmone5instr4core4pushILm13EEEPKhNS_8StackTopERNS_14ExecutionStateES4_
FN:822,_ZN6evmone5instr4core4pushILm14EEEPKhNS_8StackTopERNS_14ExecutionStateES4_
FN:822,_ZN6evmone5instr4core4pushILm15EEEPKhNS_8StackTopERNS_14ExecutionStateES4_
FN:822,_ZN6evmone5instr4core4pushILm16EEEPKhNS_8StackTopERNS_14ExecutionStateES4_
FN:822,_ZN6evmone5instr4core4pushILm17EEEPKhNS_8StackTopERNS_14ExecutionStateES4_
FN:822,_ZN6evmone5instr4core4pushILm18EEEPKhNS_8StackTopERNS_14ExecutionStateES4_
FN:822,_ZN6evmone5instr4core4pushILm19EEEPKhNS_8StackTopERNS_14ExecutionStateES4_
FN:822,_ZN6evmone5instr4core4pushILm20EEEPKhNS_8StackTopERNS_14ExecutionStateES4_
FN:822,_ZN6evmone5instr4core4pushILm21EEEPKhNS_8StackTopERNS_14ExecutionStateES4_
FN:822,_ZN6evmone5instr4core4pushILm22EEEPKhNS_8StackTopERNS_14ExecutionStateES4_
FN:822,_ZN6evmone5instr4core4pushILm23EEEPKhNS_8StackTopERNS_14ExecutionStateES4_
FN:822,_ZN6evmone5instr4core4pushILm24EEEPKhNS_8StackTopERNS_14ExecutionStateES4_
FN:822,_ZN6evmone5instr4core4pushILm25EEEPKhNS_8StackTopERNS_14ExecutionStateES4_
FN:822,_ZN6evmone5instr4core4pushILm26EEEPKhNS_8StackTopERNS_14ExecutionStateES4_
FN:822,_ZN6evmone5instr4core4pushILm27EEEPKhNS_8StackTopERNS_14ExecutionStateES4_
FN:822,_ZN6evmone5instr4core4pushILm28EEEPKhNS_8StackTopERNS_14ExecutionStateES4_
FN:822,_ZN6evmone5instr4core4pushILm29EEEPKhNS_8StackTopERNS_14ExecutionStateES4_
FN:822,_ZN6evmone5instr4core4pushILm30EEEPKhNS_8StackTopERNS_14ExecutionStateES4_
FN:822,_ZN6evmone5instr4core4pushILm31EEEPKhNS_8StackTopERNS_14ExecutionStateES4_
FN:822,_ZN6evmone5instr4core4pushILm32EEEPKhNS_8StackTopERNS_14ExecutionStateES4_
FN:855,_ZN6evmone5instr4core3dupILi1EEEvNS_8StackTopE
FN:855,_ZN6evmone5instr4core3dupILi2EEEvNS_8StackTopE
FN:855,_ZN6evmone5instr4core3dupILi3EEEvNS_8StackTopE
FN:855,_ZN6evmone5instr4core3dupILi4EEEvNS_8StackTopE
FN:855,_ZN6evmone5instr4core3dupILi5EEEvNS_8StackTopE
FN:855,_ZN6evmone5instr4core3dupILi6EEEvNS_8StackTopE
FN:855,_ZN6evmone5instr4core3dupILi7EEEvNS_8StackTopE
FN:855,_ZN6evmone5instr4core3dupILi8EEEvNS_8StackTopE
FN:855,_ZN6evmone5instr4core3dupILi9EEEvNS_8StackTopE
FN:855,_ZN6evmone5instr4core3dupILi10EEEvNS_8StackTopE
FN:855,_ZN6evmone5instr4core3dupILi11EEEvNS_8StackTopE
FN:855,_ZN6evmone5instr4core3dupILi12EEEvNS_8StackTopE
FN:855,_ZN6evmone5instr4core3dupILi13EEEvNS_8StackTopE
FN:855,_ZN6evmone5instr4core3dupILi14EEEvNS_8StackTopE
FN:855,_ZN6evmone5instr4core3dupILi15EEEvNS_8StackTopE
FN:855,_ZN6evmone5instr4core3dupILi16EEEvNS_8StackTopE
FN:864,_ZN6evmone5instr4core4swapILi1EEEvNS_8StackTopE
FN:864,_ZN6evmone5instr4core4swapILi2EEEvNS_8StackTopE
FN:864,_ZN6evmone5instr4core4swapILi3EEEvNS_8StackTopE
FN:864,_ZN6evmone5instr4core4swapILi4EEEvNS_8StackTopE
FN:864,_ZN6evmone5instr4core4swapILi5EEEvNS_8StackTopE
FN:864,_ZN6evmone5instr4core4swapILi6EEEvNS_8StackTopE
FN:864,_ZN6evmone5instr4core4swapILi7EEEvNS_8StackTopE
FN:864,_ZN6evmone5instr4core4swapILi8EEEvNS_8StackTopE
FN:864,_ZN6evmone5instr4core4swapILi9EEEvNS_8StackTopE
FN:864,_ZN6evmone5instr4core4swapILi10EEEvNS_8StackTopE
FN:864,_ZN6evmone5instr4core4swapILi11EEEvNS_8StackTopE
FN:864,_ZN6evmone5instr4core4swapILi12EEEvNS_8StackTopE
FN:864,_ZN6evmone5instr4core4swapILi13EEEvNS_8StackTopE
FN:864,_ZN6evmone5instr4core4swapILi14EEEvNS_8StackTopE
FN:864,_ZN6evmone5instr4core4swapILi15EEEvNS_8StackTopE
FN:864,_ZN6evmone5instr4core4swapILi16EEEvNS_8StackTopE
FN:908,_ZN6evmone5instr4core3logILm0EEENS_6ResultENS_8StackTopElRNS_14ExecutionStateE
FN:908,_ZN6evmone5instr4core3logILm1EEENS_6ResultENS_8StackTopElRNS_14ExecutionStateE
FN:908,_ZN6evmone5instr4core3logILm2EEENS_6ResultENS_8StackTopElRNS_14ExecutionStateE
FN:908,_ZN6evmone5instr4core3logILm3EEENS_6ResultENS_8StackTopElRNS_14ExecutionStateE
FN:908,_ZN6evmone5instr4core3logILm4EEENS_6ResultENS_8StackTopElRNS_14ExecutionStateE
FNDA:252373986,_ZN6evmone8StackTopC2EPN4intx4uintILj256EEE
FNDA:0,_ZN6evmone8StackTop3endEv
FNDA:31201696,_ZN6evmone8StackTopixEi
FNDA:150432097,_ZN6evmone8StackTop3topEv
FNDA:114620889,_ZN6evmone8StackTop3popEv
FNDA:134030947,_ZN6evmone8StackTop4pushERKN4intx4uintILj256EEE
FNDA:2060780,_ZN6evmone9num_wordsEm
FNDA:174161,_ZN6evmone9copy_costEm
FNDA:1824527,_ZN6evmone11grow_memoryElRNS_6MemoryEm
FNDA:25629342,_ZN6evmone12check_memoryERlRNS_6MemoryERKN4intx4uintILj256EEEm
FNDA:9116280,_ZN6evmone12check_memoryERlRNS_6MemoryERKN4intx4uintILj256EEES7_
FNDA:28618020,_ZN6evmone5instr4core4noopENS_8StackTopE
FNDA:15891059,_ZN6evmone5instr4core3addENS_8StackTopE
FNDA:244343,_ZN6evmone5instr4core3mulENS_8StackTopE
FNDA:3314316,_ZN6evmone5instr4core3subENS_8StackTopE
FNDA:46489,_ZN6evmone5instr4core3divENS_8StackTopE
FNDA:4063,_ZN6evmone5instr4core4sdivENS_8StackTopE
FNDA:158501,_ZN6evmone5instr4core3modENS_8StackTopE
FNDA:3604,_ZN6evmone5instr4core4smodENS_8StackTopE
FNDA:2090,_ZN6evmone5instr4core6addmodENS_8StackTopE
FNDA:2364,_ZN6evmone5instr4core6mulmodENS_8StackTopE
FNDA:37408,_ZN6evmone5instr4core3expENS_8StackTopElRNS_14ExecutionStateE
FNDA:2614,_ZN6evmone5instr4core10signextendENS_8StackTopE
FNDA:2935890,_ZN6evmone5instr4core2ltENS_8StackTopE
FNDA:403813,_ZN6evmone5instr4core2gtENS_8StackTopE
FNDA:6602,_ZN6evmone5instr4core3sltENS_8StackTopE
FNDA:6242,_ZN6evmone5instr4core3sgtENS_8StackTopE
FNDA:841606,_ZN6evmone5instr4core2eqENS_8StackTopE
FNDA:5288594,_ZN6evmone5instr4core6iszeroENS_8StackTopE
FNDA:125185,_ZN6evmone5instr4core4and_ENS_8StackTopE
FNDA:51087,_ZN6evmone5instr4core3or_ENS_8StackTopE
FNDA:1706,_ZN6evmone5instr4core4xor_ENS_8StackTopE
FNDA:67812,_ZN6evmone5instr4core4not_ENS_8StackTopE
FNDA:75484,_ZN6evmone5instr4core4byteENS_8StackTopE
FNDA:3467673,_ZN6evmone5instr4core3shlENS_8StackTopE
FNDA:19325,_ZN6evmone5instr4core3shrENS_8StackTopE
FNDA:9052,_ZN6evmone5instr4core3sarENS_8StackTopE
FNDA:2820,_ZN6evmone5instr4core3clzENS_8StackTopE
FNDA:15828,_ZN6evmone5instr4core9keccak256ENS_8StackTopElRNS_14ExecutionStateE
FNDA:57039,_ZN6evmone5instr4core7addressENS_8StackTopERNS_14ExecutionStateE
FNDA:9770,_ZN6evmone5instr4core7balanceENS_8StackTopElRNS_14ExecutionStateE
FNDA:23687,_ZN6evmone5instr4core6originENS_8StackTopERNS_14ExecutionStateE
FNDA:276017,_ZN6evmone5instr4core6callerENS_8StackTopERNS_14ExecutionStateE
FNDA:24786,_ZN6evmone5instr4core9callvalueENS_8StackTopERNS_14ExecutionStateE
FNDA:1830629,_ZN6evmone5instr4core12calldataloadENS_8StackTopERNS_14ExecutionStateE
FNDA:185057,_ZN6evmone5instr4core12calldatasizeENS_8StackTopERNS_14ExecutionStateE
FNDA:127659,_ZN6evmone5instr4core12calldatacopyENS_8StackTopElRNS_14ExecutionStateE
FNDA:21731,_ZN6evmone5instr4core8codesizeENS_8StackTopERNS_14ExecutionStateE
FNDA:23502,_ZN6evmone5instr4core8codecopyENS_8StackTopElRNS_14ExecutionStateE
FNDA:13481,_ZN6evmone5instr4core8gaspriceENS_8StackTopERNS_14ExecutionStateE
FNDA:538,_ZN6evmone5instr4core7basefeeENS_8StackTopERNS_14ExecutionStateE
FNDA:2864,_ZN6evmone5instr4core8blobhashENS_8StackTopERNS_14ExecutionStateE
FNDA:12846,_ZN6evmone5instr4core11blobbasefeeENS_8StackTopERNS_14ExecutionStateE
FNDA:471283,_ZN6evmone5instr4core11extcodesizeENS_8StackTopElRNS_14ExecutionStateE
FNDA:13297,_ZN6evmone5instr4core11extcodecopyENS_8StackTopElRNS_14ExecutionStateE
FNDA:60700,_ZN6evmone5instr4core14returndatasizeENS_8StackTopERNS_14ExecutionStateE
FNDA:9604,_ZN6evmone5instr4core14returndatacopyENS_8StackTopElRNS_14ExecutionStateE
FNDA:3386,_ZN6evmone5instr4core11extcodehashENS_8StackTopElRNS_14ExecutionStateE
FNDA:69958,_ZN6evmone5instr4core9blockhashENS_8StackTopERNS_14ExecutionStateE
FNDA:14993,_ZN6evmone5instr4core8coinbaseENS_8StackTopERNS_14ExecutionStateE
FNDA:151218,_ZN6evmone5instr4core9timestampENS_8StackTopERNS_14ExecutionStateE
FNDA:134891,_ZN6evmone5instr4core6numberENS_8StackTopERNS_14ExecutionStateE
FNDA:13892,_ZN6evmone5instr4core10prevrandaoENS_8StackTopERNS_14ExecutionStateE
FNDA:15315,_ZN6evmone5instr4core8gaslimitENS_8StackTopERNS_14ExecutionStateE
FNDA:436,_ZN6evmone5instr4core7chainidENS_8StackTopERNS_14ExecutionStateE
FNDA:1577,_ZN6evmone5instr4core11selfbalanceENS_8StackTopERNS_14ExecutionStateE
FNDA:12297026,_ZN6evmone5instr4core5mloadENS_8StackTopElRNS_14ExecutionStateE
FNDA:8725748,_ZN6evmone5instr4core6mstoreENS_8StackTopElRNS_14ExecutionStateE
FNDA:158843,_ZN6evmone5instr4core7mstore8ENS_8StackTopElRNS_14ExecutionStateE
FNDA:7166568,_ZN6evmone5instr4core9jump_implERNS_14ExecutionStateERKN4intx4uintILj256EEE
FNDA:5519290,_ZN6evmone5instr4core4jumpENS_8StackTopERNS_14ExecutionStateEPKh
FNDA:7133394,_ZN6evmone5instr4core5jumpiENS_8StackTopERNS_14ExecutionStateEPKh
FNDA:5688559,_ZN6evmone5instr4core2pcENS_8StackTopERNS_14ExecutionStateEPKh
FNDA:16691,_ZN6evmone5instr4core5msizeENS_8StackTopERNS_14ExecutionStateE
FNDA:16593066,_ZN6evmone5instr4core3gasENS_8StackTopElRNS_14ExecutionStateE
FNDA:1890213,_ZN6evmone5instr4core5tloadENS_8StackTopERNS_14ExecutionStateE
FNDA:9079318,_ZN6evmone5instr4core6tstoreENS_8StackTopElRNS_14ExecutionStateE
FNDA:1182025,_ZN6evmone5instr4core5push0ENS_8StackTopE
FNDA:81309255,_ZN6evmone5instr4core22load_partial_push_dataILm1EEEmPKh
FNDA:10202412,_ZN6evmone5instr4core22load_partial_push_dataILm2EEEmPKh
FNDA:1438421,_ZN6evmone5instr4core22load_partial_push_dataILm3EEEmPKh
FNDA:2455313,_ZN6evmone5instr4core22load_partial_push_dataILm4EEEmPKh
FNDA:1209,_ZN6evmone5instr4core5mcopyENS_8StackTopElRNS_14ExecutionStateE
FNDA:7963,_ZN6evmone5instr4core12selfdestructENS_8StackTopElRNS_14ExecutionStateE
FNDA:1421483,_ZN6evmone5instr4core9stop_implIL16evmc_status_code0EEENS_10TermResultENS_8StackTopElRNS_14ExecutionStateE
FNDA:2033,_ZN6evmone5instr4core9stop_implIL16evmc_status_code4EEENS_10TermResultENS_8StackTopElRNS_14ExecutionStateE
FNDA:535367,_ZN6evmone5instr4core11return_implIL16evmc_status_code0EEENS_10TermResultENS_8StackTopElRNS_14ExecutionStateE
FNDA:25379,_ZN6evmone5instr4core11return_implIL16evmc_status_code2EEENS_10TermResultENS_8StackTopElRNS_14ExecutionStateE
FNDA:81215762,_ZN6evmone5instr4core4pushILm1EEEPKhNS_8StackTopERNS_14ExecutionStateES4_
FNDA:10060320,_ZN6evmone5instr4core4pushILm2EEEPKhNS_8StackTopERNS_14ExecutionStateES4_
FNDA:1335684,_ZN6evmone5instr4core4pushILm3EEEPKhNS_8StackTopERNS_14ExecutionStateES4_
FNDA:120179,_ZN6evmone5instr4core4pushILm4EEEPKhNS_8StackTopERNS_14ExecutionStateES4_
FNDA:57808,_ZN6evmone5instr4core4pushILm5EEEPKhNS_8StackTopERNS_14ExecutionStateES4_
FNDA:176142,_ZN6evmone5instr4core22load_partial_push_dataILm5EEEmPKh
FNDA:111290,_ZN6evmone5instr4core4pushILm6EEEPKhNS_8StackTopERNS_14ExecutionStateES4_
FNDA:207903,_ZN6evmone5instr4core22load_partial_push_dataILm6EEEmPKh
FNDA:46705,_ZN6evmone5instr4core4pushILm7EEEPKhNS_8StackTopERNS_14ExecutionStateES4_
FNDA:206145,_ZN6evmone5instr4core22load_partial_push_dataILm7EEEmPKh
FNDA:47183,_ZN6evmone5instr4core4pushILm8EEEPKhNS_8StackTopERNS_14ExecutionStateES4_
FNDA:41953,_ZN6evmone5instr4core4pushILm9EEEPKhNS_8StackTopERNS_14ExecutionStateES4_
FNDA:34775,_ZN6evmone5instr4core4pushILm10EEEPKhNS_8StackTopERNS_14ExecutionStateES4_
FNDA:28897,_ZN6evmone5instr4core4pushILm11EEEPKhNS_8StackTopERNS_14ExecutionStateES4_
FNDA:40549,_ZN6evmone5instr4core4pushILm12EEEPKhNS_8StackTopERNS_14ExecutionStateES4_
FNDA:38860,_ZN6evmone5instr4core4pushILm13EEEPKhNS_8StackTopERNS_14ExecutionStateES4_
FNDA:34153,_ZN6evmone5instr4core4pushILm14EEEPKhNS_8StackTopERNS_14ExecutionStateES4_
FNDA:29109,_ZN6evmone5instr4core4pushILm15EEEPKhNS_8StackTopERNS_14ExecutionStateES4_
FNDA:48729,_ZN6evmone5instr4core4pushILm16EEEPKhNS_8StackTopERNS_14ExecutionStateES4_
FNDA:21325,_ZN6evmone5instr4core4pushILm17EEEPKhNS_8StackTopERNS_14ExecutionStateES4_
FNDA:66284,_ZN6evmone5instr4core4pushILm18EEEPKhNS_8StackTopERNS_14ExecutionStateES4_
FNDA:31693,_ZN6evmone5instr4core4pushILm19EEEPKhNS_8StackTopERNS_14ExecutionStateES4_
FNDA:2265798,_ZN6evmone5instr4core4pushILm20EEEPKhNS_8StackTopERNS_14ExecutionStateES4_
FNDA:45065,_ZN6evmone5instr4core4pushILm21EEEPKhNS_8StackTopERNS_14ExecutionStateES4_
FNDA:37427,_ZN6evmone5instr4core4pushILm22EEEPKhNS_8StackTopERNS_14ExecutionStateES4_
FNDA:38367,_ZN6evmone5instr4core4pushILm23EEEPKhNS_8StackTopERNS_14ExecutionStateES4_
FNDA:31885,_ZN6evmone5instr4core4pushILm24EEEPKhNS_8StackTopERNS_14ExecutionStateES4_
FNDA:30215,_ZN6evmone5instr4core4pushILm25EEEPKhNS_8StackTopERNS_14ExecutionStateES4_
FNDA:41033,_ZN6evmone5instr4core4pushILm26EEEPKhNS_8StackTopERNS_14ExecutionStateES4_
FNDA:42147,_ZN6evmone5instr4core4pushILm27EEEPKhNS_8StackTopERNS_14ExecutionStateES4_
FNDA:28787,_ZN6evmone5instr4core4pushILm28EEEPKhNS_8StackTopERNS_14ExecutionStateES4_
FNDA:34409,_ZN6evmone5instr4core4pushILm29EEEPKhNS_8StackTopERNS_14ExecutionStateES4_
FNDA:25033,_ZN6evmone5instr4core4pushILm30EEEPKhNS_8StackTopERNS_14ExecutionStateES4_
FNDA:91964,_ZN6evmone5instr4core4pushILm31EEEPKhNS_8StackTopERNS_14ExecutionStateES4_
FNDA:308928,_ZN6evmone5instr4core4pushILm32EEEPKhNS_8StackTopERNS_14ExecutionStateES4_
FNDA:5878398,_ZN6evmone5instr4core3dupILi1EEEvNS_8StackTopE
FNDA:1251666,_ZN6evmone5instr4core3dupILi2EEEvNS_8StackTopE
FNDA:617421,_ZN6evmone5instr4core3dupILi3EEEvNS_8StackTopE
FNDA:283164,_ZN6evmone5instr4core3dupILi4EEEvNS_8StackTopE
FNDA:123428,_ZN6evmone5instr4core3dupILi5EEEvNS_8StackTopE
FNDA:63350,_ZN6evmone5instr4core3dupILi6EEEvNS_8StackTopE
FNDA:49035,_ZN6evmone5instr4core3dupILi7EEEvNS_8StackTopE
FNDA:443653,_ZN6evmone5instr4core3dupILi8EEEvNS_8StackTopE
FNDA:26606,_ZN6evmone5instr4core3dupILi9EEEvNS_8StackTopE
FNDA:52471,_ZN6evmone5instr4core3dupILi10EEEvNS_8StackTopE
FNDA:24572,_ZN6evmone5instr4core3dupILi11EEEvNS_8StackTopE
FNDA:16544,_ZN6evmone5instr4core3dupILi12EEEvNS_8StackTopE
FNDA:30103,_ZN6evmone5instr4core3dupILi13EEEvNS_8StackTopE
FNDA:14998,_ZN6evmone5instr4core3dupILi14EEEvNS_8StackTopE
FNDA:25000,_ZN6evmone5instr4core3dupILi15EEEvNS_8StackTopE
FNDA:17241,_ZN6evmone5instr4core3dupILi16EEEvNS_8StackTopE
FNDA:716294,_ZN6evmone5instr4core4swapILi1EEEvNS_8StackTopE
FNDA:394893,_ZN6evmone5instr4core4swapILi2EEEvNS_8StackTopE
FNDA:268242,_ZN6evmone5instr4core4swapILi3EEEvNS_8StackTopE
FNDA:84851,_ZN6evmone5instr4core4swapILi4EEEvNS_8StackTopE
FNDA:35786,_ZN6evmone5instr4core4swapILi5EEEvNS_8StackTopE
FNDA:8097,_ZN6evmone5instr4core4swapILi6EEEvNS_8StackTopE
FNDA:3859,_ZN6evmone5instr4core4swapILi7EEEvNS_8StackTopE
FNDA:7775,_ZN6evmone5instr4core4swapILi8EEEvNS_8StackTopE
FNDA:5905,_ZN6evmone5instr4core4swapILi9EEEvNS_8StackTopE
FNDA:2291,_ZN6evmone5instr4core4swapILi10EEEvNS_8StackTopE
FNDA:2721,_ZN6evmone5instr4core4swapILi11EEEvNS_8StackTopE
FNDA:6777,_ZN6evmone5instr4core4swapILi12EEEvNS_8StackTopE
FNDA:4233,_ZN6evmone5instr4core4swapILi13EEEvNS_8StackTopE
FNDA:3558,_ZN6evmone5instr4core4swapILi14EEEvNS_8StackTopE
FNDA:2403,_ZN6evmone5instr4core4swapILi15EEEvNS_8StackTopE
FNDA:2409,_ZN6evmone5instr4core4swapILi16EEEvNS_8StackTopE
FNDA:9685,_ZN6evmone5instr4core3logILm0EEENS_6ResultENS_8StackTopElRNS_14ExecutionStateE
FNDA:8425,_ZN6evmone5instr4core3logILm1EEENS_6ResultENS_8StackTopElRNS_14ExecutionStateE
FNDA:4884,_ZN6evmone5instr4core3logILm2EEENS_6ResultENS_8StackTopElRNS_14ExecutionStateE
FNDA:7072,_ZN6evmone5instr4core3logILm3EEENS_6ResultENS_8StackTopElRNS_14ExecutionStateE
FNDA:1036,_ZN6evmone5instr4core3logILm4EEENS_6ResultENS_8StackTopElRNS_14ExecutionStateE
FNF:91
FNH:90
DA:24,252373986
DA:25,252373986
DA:28,0
DA:33,31201696
DA:36,150432097
DA:40,114620889
DA:43,134030947
DA:66,2060780
DA:67,2060780
DA:68,2060780
DA:72,174161
DA:73,174161
DA:74,174161
DA:75,174161
DA:86,1824527
DA:90,1824527
DA:91,1824527
DA:92,1824527
DA:93,1824527
DA:94,1824527
DA:96,1824527
DA:97,1824527
DA:98,1820651
DA:99,1824527
DA:100,1824527
DA:105,25629342
DA:109,25629342
DA:110,1104
DA:112,25628238
DA:113,25628238
DA:114,1824527
DA:116,25628238
DA:117,25629342
DA:122,9116280
DA:123,9116280
DA:124,4666811
DA:129,4449469
DA:130,1744
DA:132,4447725
DA:133,4449469
DA:146,28618020
DA:153,1423516
DA:154,1423516
DA:155,1423516
DA:160,15891059
DA:161,15891059
DA:162,15891059
DA:165,244343
DA:166,244343
DA:167,244343
DA:170,3314316
DA:171,3314316
DA:172,3314316
DA:175,46489
DA:176,46489
DA:177,46489
DA:178,46489
DA:181,4063
DA:182,4063
DA:183,4063
DA:184,4063
DA:187,158501
DA:188,158501
DA:189,158501
DA:190,158501
DA:193,3604
DA:194,3604
DA:195,3604
DA:196,3604
DA:199,2090
DA:200,2090
DA:201,2090
DA:202,2090
DA:203,2090
DA:204,2090
DA:207,2364
DA:208,2364
DA:209,2364
DA:210,2364
DA:211,2364
DA:212,2364
DA:215,37408
DA:216,37408
DA:217,37408
DA:219,37408
DA:220,37408
DA:221,37408
DA:222,37408
DA:223,37408
DA:224,252
DA:226,37156
DA:227,37156
DA:228,37408
DA:231,2614
DA:232,2614
DA:233,2614
DA:235,2614
DA:236,1150
DA:237,1150
DA:238,1150
DA:239,1150
DA:240,1150
DA:241,1150
DA:243,1150
DA:244,1150
DA:247,1150
DA:248,1150
DA:250,1150
DA:251,1150
DA:252,1150
DA:256,1150
DA:258,4576
DA:259,3426
DA:260,1150
DA:261,2614
DA:264,2935890
DA:265,2935890
DA:266,2935890
DA:267,2935890
DA:270,403813
DA:271,403813
DA:272,403813
DA:273,403813
DA:276,6602
DA:277,6602
DA:278,6602
DA:279,6602
DA:282,6242
DA:283,6242
DA:284,6242
DA:285,6242
DA:288,841606
DA:289,841606
DA:290,841606
DA:293,5288594
DA:294,5288594
DA:295,5288594
DA:298,125185
DA:299,125185
DA:300,125185
DA:303,51087
DA:304,51087
DA:305,51087
DA:308,1706
DA:309,1706
DA:310,1706
DA:313,67812
DA:314,67812
DA:315,67812
DA:318,75484
DA:319,75484
DA:320,75484
DA:322,75484
DA:323,75484
DA:325,75484
DA:326,75484
DA:327,75484
DA:328,75484
DA:329,75484
DA:330,75484
DA:333,3467673
DA:334,3467673
DA:335,3467673
DA:338,19325
DA:339,19325
DA:340,19325
DA:343,9052
DA:344,9052
DA:345,9052
DA:347,9052
DA:348,9052
DA:350,9052
DA:351,9052
DA:352,9052
DA:355,2820
DA:356,2820
DA:357,2820
DA:360,15828
DA:361,15828
DA:362,15828
DA:364,15828
DA:365,2264
DA:367,13564
DA:368,13564
DA:369,13564
DA:370,13564
DA:371,13564
DA:372,600
DA:374,12964
DA:375,12964
DA:376,12964
DA:377,13564
DA:381,57039
DA:382,57039
DA:383,57039
DA:386,9770
DA:387,9770
DA:388,9770
DA:390,9770
DA:391,3430
DA:392,3430
DA:393,12
DA:394,3430
DA:396,9758
DA:397,9758
DA:398,9770
DA:401,23687
DA:402,23687
DA:403,23687
DA:406,276017
DA:407,276017
DA:408,276017
DA:411,24786
DA:412,24786
DA:413,24786
DA:416,1830629
DA:417,1830629
DA:419,1830629
DA:420,8086
DA:421,1822543
DA:422,1822543
DA:423,1822543
DA:424,1822543
DA:426,1822543
DA:427,50668705
DA:428,48846162
DA:430,1822543
DA:431,1822543
DA:432,1830629
DA:435,185057
DA:436,185057
DA:437,185057
DA:440,127659
DA:441,127659
DA:442,127659
DA:443,127659
DA:445,127659
DA:446,108
DA:448,127551
DA:449,127551
DA:450,127551
DA:451,127551
DA:452,127551
DA:454,127551
DA:455,6
DA:457,127545
DA:458,119581
DA:460,127545
DA:461,7309
DA:463,127545
DA:464,127551
DA:467,21731
DA:468,21731
DA:469,21731
DA:472,23502
DA:475,23502
DA:476,23502
DA:477,23502
DA:479,23502
DA:480,108
DA:482,23394
DA:483,23394
DA:484,23394
DA:485,23394
DA:486,23394
DA:488,23394
DA:489,6
DA:492,23388
DA:493,23058
DA:495,23388
DA:496,917
DA:498,23388
DA:499,23394
DA:503,13481
DA:504,13481
DA:505,13481
DA:508,538
DA:509,538
DA:510,538
DA:513,2864
DA:514,2864
DA:515,2864
DA:517,2864
DA:518,2079
DA:519,2864
DA:520,2864
DA:523,12846
DA:524,12846
DA:525,12846
DA:528,471283
DA:529,471283
DA:530,471283
DA:532,471283
DA:533,4783
DA:534,4783
DA:535,156
DA:536,4783
DA:538,471127
DA:539,471127
DA:540,471283
DA:543,13297
DA:544,13297
DA:545,13297
DA:546,13297
DA:547,13297
DA:549,13297
DA:550,96
DA:552,13201
DA:553,13201
DA:554,18
DA:556,13183
DA:557,1040
DA:558,1040
DA:559,6
DA:560,1040
DA:562,13177
DA:563,12983
DA:564,12983
DA:565,12983
DA:566,12983
DA:567,12983
DA:568,12983
DA:569,1480
DA:570,12983
DA:572,13177
DA:573,13183
DA:576,60700
DA:577,60700
DA:578,60700
DA:581,9604
DA:582,9604
DA:583,9604
DA:584,9604
DA:586,9604
DA:587,204
DA:589,9400
DA:590,9400
DA:592,9400
DA:593,252
DA:594,9148
DA:596,9148
DA:597,234
DA:599,8914
DA:600,6
DA:602,8908
DA:603,7171
DA:605,8908
DA:606,8914
DA:609,3386
DA:610,3386
DA:611,3386
DA:613,3386
DA:614,803
DA:615,803
DA:616,6
DA:617,803
DA:619,3380
DA:620,3380
DA:621,3386
DA:625,69958
DA:626,69958
DA:628,69958
DA:629,69958
DA:630,69958
DA:631,69958
DA:632,69958
DA:633,69958
DA:634,69958
DA:637,14993
DA:638,14993
DA:639,14993
DA:642,151218
DA:644,151218
DA:645,151218
DA:648,134891
DA:650,134891
DA:651,134891
DA:654,13892
DA:655,13892
DA:656,13892
DA:659,15315
DA:660,15315
DA:661,15315
DA:664,436
DA:665,436
DA:666,436
DA:669,1577
DA:671,1577
DA:672,1577
DA:675,12297026
DA:676,12297026
DA:678,12297026
DA:679,666
DA:681,12296360
DA:682,12296360
DA:683,12297026
DA:686,8725748
DA:687,8725748
DA:688,8725748
DA:690,8725748
DA:691,698
DA:693,8725050
DA:694,8725050
DA:695,8725748
DA:698,158843
DA:699,158843
DA:700,158843
DA:702,158843
DA:703,612
DA:705,158231
DA:706,158231
DA:707,158843
DA:715,7166568
DA:716,7166568
DA:717,7166568
DA:718,3110
DA:719,3110
DA:720,3110
DA:721,3110
DA:723,7163458
DA:724,7166568
DA:728,5519290
DA:729,5519290
DA:730,5519290
DA:734,7133394
DA:735,7133394
DA:736,7133394
DA:737,7133394
DA:738,7133394
DA:741,5688559
DA:742,5688559
DA:743,5688559
DA:744,5688559
DA:747,16691
DA:748,16691
DA:749,16691
DA:752,16593066
DA:753,16593066
DA:754,16593066
DA:755,16593066
DA:758,1890213
DA:759,1890213
DA:760,1890213
DA:761,1890213
DA:762,1890213
DA:763,1890213
DA:766,9079318
DA:767,9079318
DA:768,84
DA:770,9079234
DA:771,9079234
DA:772,9079234
DA:773,9079234
DA:774,9079318
DA:777,1182025
DA:778,1182025
DA:779,1182025
DA:784,590190
DA:785,590190
DA:788,590190
DA:789,590190
DA:793,81309255
DA:794,81309255
DA:795,81309255
DA:799,10202412
DA:800,10202412
DA:801,10202412
DA:805,1438421
DA:807,1438421
DA:808,1438421
DA:812,2455313
DA:813,2455313
DA:814,2455313
DA:822,96432316
DA:823,96432316
DA:824,96432316
DA:825,96432316
DA:827,96432316
DA:828,96432316
DA:829,96432316
DA:833,95995591
DA:834,95995591
DA:835,95995591
DA:836,95995591
DA:840,3484568
DA:841,11101554
DA:842,7616986
DA:843,7616986
DA:844,7616986
DA:845,7616986
DA:846,3484568
DA:848,96432316
DA:849,96432316
DA:855,8917650
DA:856,8917650
DA:857,8917650
DA:858,8917650
DA:864,1550094
DA:865,1550094
DA:871,1550094
DA:872,1550094
DA:873,1550094
DA:874,1550094
DA:875,1550094
DA:876,1550094
DA:877,1550094
DA:878,1550094
DA:879,1550094
DA:880,1550094
DA:881,1550094
DA:882,1550094
DA:885,1209
DA:886,1209
DA:887,1209
DA:888,1209
DA:890,1209
DA:891,108
DA:893,1101
DA:894,1101
DA:895,1101
DA:897,1101
DA:898,72
DA:900,1029
DA:901,891
DA:903,1029
DA:904,1101
DA:908,31102
DA:909,31102
DA:911,31102
DA:912,225
DA:914,30877
DA:915,30877
DA:917,30877
DA:918,536
DA:920,30341
DA:921,30341
DA:923,30341
DA:924,30341
DA:925,294
DA:927,30047
DA:929,20685
DA:930,20685
DA:931,41775
DA:932,20685
DA:934,30047
DA:935,30047
DA:936,30047
DA:937,30341
DA:954,560746
DA:955,560746
DA:956,560746
DA:958,560746
DA:959,198
DA:961,560548
DA:962,560548
DA:963,462268
DA:964,560548
DA:965,560746
DA:970,7963
DA:971,7963
DA:972,451
DA:974,7512
DA:976,7512
DA:977,2196
DA:978,2196
DA:979,12
DA:980,2196
DA:982,7500
DA:983,7433
DA:984,7433
DA:985,3622
DA:988,3622
DA:989,776
DA:990,776
DA:991,24
DA:992,776
DA:993,3622
DA:994,7433
DA:996,7476
DA:997,4334
DA:998,4334
DA:999,288
DA:1000,4334
DA:1001,7476
DA:1002,7500
DA:1020,667838452
BRDA:97,0,0,1820651
BRDA:97,0,1,3876
BRDA:109,0,0,468
BRDA:109,0,1,25628874
BRDA:109,1,2,636
BRDA:109,1,3,25628238
BRDA:113,0,0,1824527
BRDA:113,0,1,23803711
BRDA:123,0,0,4666811
BRDA:123,0,1,4449469
BRDA:129,0,0,604
BRDA:129,0,1,4448865
BRDA:129,1,2,1140
BRDA:129,1,3,4447725
BRDA:177,0,0,46417
BRDA:177,0,1,72
BRDA:183,0,0,3967
BRDA:183,0,1,96
BRDA:189,0,0,158429
BRDA:189,0,1,72
BRDA:195,0,0,3526
BRDA:195,0,1,78
BRDA:203,0,0,1832
BRDA:203,0,1,258
BRDA:211,0,0,2118
BRDA:211,0,1,246
BRDA:221,0,0,37322
BRDA:221,0,1,86
BRDA:223,0,0,252
BRDA:223,0,1,37156
BRDA:235,0,0,1150
BRDA:235,0,1,1464
BRDA:258,0,0,3426
BRDA:258,0,1,1150
BRDA:323,0,0,75404
BRDA:323,0,1,80
BRDA:348,0,0,2568
BRDA:348,0,1,6484
BRDA:350,0,0,3586
BRDA:350,0,1,5466
BRDA:364,0,0,2264
BRDA:364,0,1,13564
BRDA:371,0,0,600
BRDA:371,0,1,12964
BRDA:374,0,0,12113
BRDA:374,0,1,851
BRDA:390,0,0,9552
BRDA:390,0,1,218
BRDA:390,1,2,3430
BRDA:390,1,3,6122
BRDA:392,0,0,12
BRDA:392,0,1,3418
BRDA:419,0,0,8086
BRDA:419,0,1,1822543
BRDA:427,0,0,48846162
BRDA:427,0,1,1822543
BRDA:445,0,0,108
BRDA:445,0,1,127551
BRDA:449,0,0,240
BRDA:449,0,1,127311
BRDA:454,0,0,6
BRDA:454,0,1,127545
BRDA:457,0,0,119581
BRDA:457,0,1,7964
BRDA:460,0,0,7309
BRDA:460,0,1,120236
BRDA:479,0,0,108
BRDA:479,0,1,23394
BRDA:484,0,0,186
BRDA:484,0,1,23208
BRDA:488,0,0,6
BRDA:488,0,1,23388
BRDA:492,0,0,23058
BRDA:492,0,1,330
BRDA:495,0,0,917
BRDA:495,0,1,22471
BRDA:517,0,0,2079
BRDA:517,0,1,785
BRDA:532,0,0,468215
BRDA:532,0,1,3068
BRDA:532,1,2,4783
BRDA:532,1,3,463432
BRDA:534,0,0,156
BRDA:534,0,1,4627
BRDA:549,0,0,96
BRDA:549,0,1,13201
BRDA:553,0,0,18
BRDA:553,0,1,13183
BRDA:556,0,0,11261
BRDA:556,0,1,1922
BRDA:556,1,2,1040
BRDA:556,1,3,10221
BRDA:558,0,0,6
BRDA:558,0,1,1034
BRDA:562,0,0,12983
BRDA:562,0,1,194
BRDA:565,0,0,66
BRDA:565,0,1,12917
BRDA:568,0,0,1480
BRDA:568,0,1,11503
BRDA:586,0,0,204
BRDA:586,0,1,9400
BRDA:592,0,0,252
BRDA:592,0,1,9148
BRDA:596,0,0,234
BRDA:596,0,1,8914
BRDA:599,0,0,6
BRDA:599,0,1,8908
BRDA:602,0,0,7171
BRDA:602,0,1,1737
BRDA:613,0,0,3257
BRDA:613,0,1,129
BRDA:613,1,2,803
BRDA:613,1,3,2454
BRDA:615,0,0,6
BRDA:615,0,1,797
BRDA:632,0,0,69862
BRDA:632,0,1,96
BRDA:632,1,2,69780
BRDA:632,1,3,82
BRDA:678,0,0,666
BRDA:678,0,1,12296360
BRDA:690,0,0,698
BRDA:690,0,1,8725050
BRDA:702,0,0,612
BRDA:702,0,1,158231
BRDA:717,0,0,12
BRDA:717,0,1,7166556
BRDA:717,1,2,3098
BRDA:717,1,3,7163458
BRDA:737,0,0,1647278
BRDA:737,0,1,5486116
BRDA:767,0,0,84
BRDA:767,0,1,9079234
BRDA:841,0,0,34153
BRDA:841,0,1,34153
BRDA:841,1,2,38860
BRDA:841,1,3,38860
BRDA:841,2,4,40549
BRDA:841,2,5,40549
BRDA:841,3,6,28897
BRDA:841,3,7,28897
BRDA:841,4,8,34775
BRDA:841,4,9,34775
BRDA:841,5,10,41953
BRDA:841,5,11,41953
BRDA:841,6,12,47183
BRDA:841,6,13,47183
BRDA:841,7,14,29109
BRDA:841,7,15,29109
BRDA:841,8,16,97458
BRDA:841,8,17,48729
BRDA:841,9,18,42650
BRDA:841,9,19,21325
BRDA:841,10,20,132568
BRDA:841,10,21,66284
BRDA:841,11,22,63386
BRDA:841,11,23,31693
BRDA:841,12,24,4531596
BRDA:841,12,25,2265798
BRDA:841,13,26,90130
BRDA:841,13,27,45065
BRDA:841,14,28,74854
BRDA:841,14,29,37427
BRDA:841,15,30,76734
BRDA:841,15,31,38367
BRDA:841,16,32,95655
BRDA:841,16,33,31885
BRDA:841,17,34,90645
BRDA:841,17,35,30215
BRDA:841,18,36,123099
BRDA:841,18,37,41033
BRDA:841,19,38,126441
BRDA:841,19,39,42147
BRDA:841,20,40,86361
BRDA:841,20,41,28787
BRDA:841,21,42,103227
BRDA:841,21,43,34409
BRDA:841,22,44,75099
BRDA:841,22,45,25033
BRDA:841,23,46,275892
BRDA:841,23,47,91964
BRDA:841,24,48,1235712
BRDA:841,24,49,308928
BRDA:890,0,0,108
BRDA:890,0,1,1101
BRDA:897,0,0,72
BRDA:897,0,1,1029
BRDA:900,0,0,891
BRDA:900,0,1,138
BRDA:911,0,0,6
BRDA:911,0,1,4878
BRDA:911,1,2,6
BRDA:911,1,3,1030
BRDA:911,2,4,36
BRDA:911,2,5,8389
BRDA:911,3,6,171
BRDA:911,3,7,9514
BRDA:911,4,8,6
BRDA:911,4,9,7066
BRDA:917,0,0,108
BRDA:917,0,1,6958
BRDA:917,1,2,114
BRDA:917,1,3,4764
BRDA:917,2,4,90
BRDA:917,2,5,9424
BRDA:917,3,6,112
BRDA:917,3,7,918
BRDA:917,4,8,112
BRDA:917,4,9,8277
BRDA:924,0,0,60
BRDA:924,0,1,6898
BRDA:924,1,2,62
BRDA:924,1,3,9362
BRDA:924,2,4,56
BRDA:924,2,5,4708
BRDA:924,3,6,56
BRDA:924,3,7,862
BRDA:924,4,8,60
BRDA:924,4,9,8217
BRDA:930,0,0,8217
BRDA:930,0,1,8217
BRDA:930,1,2,9416
BRDA:930,1,3,4708
BRDA:930,2,4,20694
BRDA:930,2,5,6898
BRDA:930,3,6,3448
BRDA:930,3,7,862
BRDA:934,0,0,4576
BRDA:934,0,1,132
BRDA:934,1,2,8109
BRDA:934,1,3,108
BRDA:934,2,4,6792
BRDA:934,2,5,106
BRDA:934,3,6,766
BRDA:934,3,7,96
BRDA:934,4,8,9260
BRDA:934,4,9,102
BRDA:958,0,0,114
BRDA:958,0,1,535253
BRDA:958,1,2,84
BRDA:958,1,3,25295
BRDA:962,0,0,24346
BRDA:962,0,1,949
BRDA:962,1,2,437922
BRDA:962,1,3,97331
BRDA:971,0,0,451
BRDA:971,0,1,7512
BRDA:976,0,0,7247
BRDA:976,0,1,265
BRDA:976,1,2,2196
BRDA:976,1,3,5051
BRDA:978,0,0,12
BRDA:978,0,1,2184
BRDA:982,0,0,7433
BRDA:982,0,1,67
BRDA:984,0,0,3622
BRDA:984,0,1,3811
BRDA:984,1,2,0
BRDA:984,1,3,7433
BRDA:984,2,4,3622
BRDA:984,2,5,3811
BRDA:988,0,0,776
BRDA:988,0,1,2846
BRDA:990,0,0,24
BRDA:990,0,1,752
BRDA:996,0,0,4334
BRDA:996,0,1,3142
BRDA:998,0,0,288
BRDA:998,0,1,4046
BRF:180
BRH:179
LF:585
LH:584
end_of_record
SF:/home/user/sources/ethereum/evmone/lib/evmone/instructions_calls.cpp
FN:66,_ZN6evmone5instr4core9call_implILNS_6OpcodeE241EEENS_6ResultENS_8StackTopElRNS_14ExecutionStateE
FN:66,_ZN6evmone5instr4core9call_implILNS_6OpcodeE250EEENS_6ResultENS_8StackTopElRNS_14ExecutionStateE
FN:66,_ZN6evmone5instr4core9call_implILNS_6OpcodeE244EEENS_6ResultENS_8StackTopElRNS_14ExecutionStateE
FN:66,_ZN6evmone5instr4core9call_implILNS_6OpcodeE242EEENS_6ResultENS_8StackTopElRNS_14ExecutionStateE
FN:198,_ZN6evmone5instr4core11create_implILNS_6OpcodeE240EEENS_6ResultENS_8StackTopElRNS_14ExecutionStateE
FN:198,_ZN6evmone5instr4core11create_implILNS_6OpcodeE245EEENS_6ResultENS_8StackTopElRNS_14ExecutionStateE
FN:22,instructions_calls.cpp:_ZN6evmone5instr4core12_GLOBAL__N_118get_target_addressERKN4evmc7addressERlRNS_14ExecutionStateE
FNDA:894119,_ZN6evmone5instr4core9call_implILNS_6OpcodeE241EEENS_6ResultENS_8StackTopElRNS_14ExecutionStateE
FNDA:3064119,_ZN6evmone5instr4core9call_implILNS_6OpcodeE250EEENS_6ResultENS_8StackTopElRNS_14ExecutionStateE
FNDA:101806,_ZN6evmone5instr4core9call_implILNS_6OpcodeE244EEENS_6ResultENS_8StackTopElRNS_14ExecutionStateE
FNDA:83562,_ZN6evmone5instr4core9call_implILNS_6OpcodeE242EEENS_6ResultENS_8StackTopElRNS_14ExecutionStateE
FNDA:23044,_ZN6evmone5instr4core11create_implILNS_6OpcodeE240EEENS_6ResultENS_8StackTopElRNS_14ExecutionStateE
FNDA:25848,_ZN6evmone5instr4core11create_implILNS_6OpcodeE245EEENS_6ResultENS_8StackTopElRNS_14ExecutionStateE
FNDA:4142684,instructions_calls.cpp:_ZN6evmone5instr4core12_GLOBAL__N_118get_target_addressERKN4evmc7addressERlRNS_14ExecutionStateE
FNF:3
FNH:3
DA:22,4142684
DA:23,4142684
DA:24,1804087
DA:26,2338597
DA:27,2338597
DA:28,2333709
DA:30,4888
DA:31,4888
DA:32,330
DA:33,4888
DA:35,4888
DA:36,18
DA:38,4870
DA:39,4888
DA:66,4143606
DA:67,4143606
DA:68,4143606
DA:70,4143606
DA:72,4143606
DA:73,4143606
DA:74,4143606
DA:75,4143606
DA:76,4143606
DA:77,4143606
DA:78,4143606
DA:79,4143606
DA:81,4143606
DA:82,4143606
DA:84,4143606
DA:85,185815
DA:86,185815
DA:87,922
DA:88,185815
DA:90,4142684
DA:91,4142684
DA:92,18
DA:94,4142666
DA:96,4142666
DA:97,604
DA:99,4142062
DA:100,276
DA:102,4141786
DA:103,4141786
DA:104,4141786
DA:105,4141786
DA:107,4141786
DA:108,4141786
DA:109,4141786
DA:110,4846
DA:111,4136940
DA:112,4136940
DA:113,4141786
DA:114,4141786
DA:115,4141786
DA:116,4141786
DA:117,4141786
DA:118,4141786
DA:120,4141786
DA:121,3076176
DA:123,3076176
DA:124,3076176
DA:125,3076176
DA:128,976645
DA:129,976645
DA:132,893681
DA:133,893681
DA:134,180
DA:136,893501
DA:137,1235
DA:138,893501
DA:140,976645
DA:141,146
DA:142,976645
DA:144,976499
DA:145,4141786
DA:146,4135988
DA:149,3063725
DA:150,3063725
DA:153,1078061
DA:154,1078061
DA:155,1065946
DA:156,12115
DA:157,80
DA:158,1078061
DA:161,976645
DA:162,976645
DA:163,102594
DA:164,102594
DA:165,102594
DA:166,102594
DA:167,803
DA:168,102594
DA:169,976645
DA:171,4141786
DA:172,110
DA:174,4141676
DA:175,4141676
DA:176,4141676
DA:178,4141676
DA:179,140642
DA:181,4141676
DA:182,4141676
DA:183,4141676
DA:184,4141676
DA:185,4141786
DA:198,48892
DA:199,48892
DA:201,48892
DA:202,62
DA:204,48830
DA:205,48830
DA:206,48830
DA:207,48830
DA:209,48830
DA:210,48830
DA:212,48830
DA:213,246
DA:215,48584
DA:216,48584
DA:218,48584
DA:219,56
DA:221,48528
DA:222,48528
DA:223,48528
DA:224,60
DA:226,48468
DA:227,12
DA:229,48456
DA:230,48456
DA:231,76
DA:233,48380
DA:234,48380
DA:235,48380
DA:236,47098
DA:238,48380
DA:239,47742
DA:241,47742
DA:242,47742
DA:243,47742
DA:244,48380
DA:245,48380
DA:246,48380
DA:247,48380
DA:249,48380
DA:250,48380
DA:251,48380
DA:253,48380
DA:254,48380
DA:255,46304
DA:257,48380
DA:258,48456
BRDA:23,0,0,1804087
BRDA:23,0,1,2338597
BRDA:27,0,0,2333709
BRDA:27,0,1,4888
BRDA:31,0,0,330
BRDA:31,0,1,4558
BRDA:35,0,0,18
BRDA:35,0,1,4870
BRDA:70,0,0,894119
BRDA:70,0,1,0
BRDA:70,1,2,-
BRDA:70,1,3,-
BRDA:70,2,4,-
BRDA:70,2,5,-
BRDA:70,3,6,-
BRDA:70,3,7,-
BRDA:70,4,8,-
BRDA:70,4,9,-
BRDA:70,5,10,-
BRDA:70,5,11,-
BRDA:70,6,12,-
BRDA:70,6,13,-
BRDA:70,7,14,-
BRDA:70,7,15,-
BRDA:74,0,0,0
BRDA:74,0,1,83562
BRDA:74,1,2,0
BRDA:74,1,3,894119
BRDA:74,2,4,101806
BRDA:74,2,5,0
BRDA:74,3,6,3064119
BRDA:74,3,7,0
BRDA:84,0,0,838756
BRDA:84,0,1,55363
BRDA:84,1,2,80854
BRDA:84,1,3,2708
BRDA:84,2,4,3062625
BRDA:84,2,5,1494
BRDA:84,3,6,100030
BRDA:84,3,7,1776
BRDA:84,4,8,30992
BRDA:84,4,9,69038
BRDA:84,5,10,31488
BRDA:84,5,11,49366
BRDA:84,6,12,20056
BRDA:84,6,13,3042569
BRDA:84,7,14,103279
BRDA:84,7,15,735477
BRDA:86,0,0,182
BRDA:86,0,1,30810
BRDA:86,1,2,182
BRDA:86,1,3,19874
BRDA:86,2,4,360
BRDA:86,2,5,31128
BRDA:86,3,6,198
BRDA:86,3,7,103081
BRDA:91,0,0,6
BRDA:91,0,1,893915
BRDA:91,1,2,4
BRDA:91,1,3,3063933
BRDA:91,2,4,4
BRDA:91,2,5,83198
BRDA:91,3,6,4
BRDA:91,3,7,101620
BRDA:96,0,0,168
BRDA:96,0,1,83030
BRDA:96,1,2,132
BRDA:96,1,3,101488
BRDA:96,2,4,142
BRDA:96,2,5,3063791
BRDA:96,3,6,162
BRDA:96,3,7,893753
BRDA:99,0,0,72
BRDA:99,0,1,893681
BRDA:99,1,2,66
BRDA:99,1,3,82964
BRDA:99,2,4,72
BRDA:99,2,5,101416
BRDA:99,3,6,66
BRDA:99,3,7,3063725
BRDA:108,0,0,0
BRDA:108,0,1,893681
BRDA:108,1,2,0
BRDA:108,1,3,101416
BRDA:108,2,4,0
BRDA:108,2,5,82964
BRDA:108,3,6,3063725
BRDA:108,3,7,0
BRDA:109,0,0,102
BRDA:109,0,1,3063623
BRDA:109,1,2,110
BRDA:109,1,3,82854
BRDA:109,2,4,150
BRDA:109,2,5,101266
BRDA:109,3,6,4484
BRDA:109,3,7,889197
BRDA:114,0,0,0
BRDA:114,0,1,3063725
BRDA:114,1,2,0
BRDA:114,1,3,82964
BRDA:114,2,4,893681
BRDA:114,2,5,0
BRDA:114,3,6,0
BRDA:114,3,7,101416
BRDA:114,4,8,0
BRDA:114,4,9,101416
BRDA:114,5,10,3063725
BRDA:114,5,11,0
BRDA:114,6,12,0
BRDA:114,6,13,82964
BRDA:114,7,14,-
BRDA:114,7,15,-
BRDA:116,0,0,101416
BRDA:116,0,1,0
BRDA:116,1,2,0
BRDA:116,1,3,82964
BRDA:116,2,4,0
BRDA:116,2,5,893681
BRDA:116,3,6,0
BRDA:116,3,7,3063725
BRDA:118,0,0,0
BRDA:118,0,1,893681
BRDA:118,1,2,0
BRDA:118,1,3,82964
BRDA:118,2,4,0
BRDA:118,2,5,3063725
BRDA:118,3,6,101416
BRDA:118,3,7,0
BRDA:120,0,0,41790
BRDA:120,0,1,59626
BRDA:120,1,2,47918
BRDA:120,1,3,35046
BRDA:120,2,4,644931
BRDA:120,2,5,248750
BRDA:120,3,6,2341537
BRDA:120,3,7,722188
BRDA:129,0,0,10620
BRDA:129,0,1,72344
BRDA:129,1,2,92304
BRDA:129,1,3,801377
BRDA:133,0,0,92304
BRDA:133,0,1,801377
BRDA:133,1,2,180
BRDA:133,1,3,92124
BRDA:136,0,0,92124
BRDA:136,0,1,801377
BRDA:136,1,2,9795
BRDA:136,1,3,791582
BRDA:136,2,4,1235
BRDA:136,2,5,100684
BRDA:140,0,0,36
BRDA:140,0,1,82928
BRDA:140,1,2,110
BRDA:140,1,3,893571
BRDA:145,0,0,3060667
BRDA:145,0,1,3058
BRDA:145,1,2,82694
BRDA:145,1,3,270
BRDA:145,2,4,101290
BRDA:145,2,5,126
BRDA:145,3,6,891337
BRDA:145,3,7,2344
BRDA:154,0,0,82308
BRDA:154,0,1,656
BRDA:154,1,2,882500
BRDA:154,1,3,11181
BRDA:154,2,4,101138
BRDA:154,2,5,278
BRDA:156,0,0,76
BRDA:156,0,1,11105
BRDA:156,1,2,2
BRDA:156,1,3,654
BRDA:156,2,4,2
BRDA:156,2,5,276
BRDA:162,0,0,92012
BRDA:162,0,1,801669
BRDA:162,1,2,10582
BRDA:162,1,3,72382
BRDA:166,0,0,136
BRDA:166,0,1,10446
BRDA:166,1,2,667
BRDA:166,1,3,91345
BRDA:171,0,0,22
BRDA:171,0,1,893659
BRDA:171,1,2,56
BRDA:171,1,3,3063669
BRDA:171,2,4,28
BRDA:171,2,5,101388
BRDA:171,3,6,4
BRDA:171,3,7,82960
BRDA:178,0,0,9679
BRDA:178,0,1,73281
BRDA:178,1,2,22692
BRDA:178,1,3,3040977
BRDA:178,2,4,4485
BRDA:178,2,5,96903
BRDA:178,3,6,103786
BRDA:178,3,7,789873
BRDA:201,0,0,44
BRDA:201,0,1,23000
BRDA:201,1,2,18
BRDA:201,1,3,25830
BRDA:207,0,0,0
BRDA:207,0,1,23000
BRDA:207,1,2,25830
BRDA:207,1,3,0
BRDA:212,0,0,138
BRDA:212,0,1,22862
BRDA:212,1,2,108
BRDA:212,1,3,25722
BRDA:218,0,0,16288
BRDA:218,0,1,6574
BRDA:218,1,2,21372
BRDA:218,1,3,4350
BRDA:218,2,4,34
BRDA:218,2,5,16254
BRDA:218,3,6,22
BRDA:218,3,7,21350
BRDA:223,0,0,36
BRDA:223,0,1,25664
BRDA:223,1,2,24
BRDA:223,1,3,22804
BRDA:226,0,0,4
BRDA:226,0,1,22800
BRDA:226,1,2,8
BRDA:226,1,3,25656
BRDA:229,0,0,16
BRDA:229,0,1,25640
BRDA:229,1,2,2250
BRDA:229,1,3,23406
BRDA:229,2,4,2676
BRDA:229,2,5,20124
BRDA:229,3,6,60
BRDA:229,3,7,22740
BRDA:230,0,0,16
BRDA:230,0,1,2234
BRDA:230,1,2,60
BRDA:230,1,3,2616
BRDA:235,0,0,25640
BRDA:235,0,1,0
BRDA:235,1,2,21458
BRDA:235,1,3,1282
BRDA:238,0,0,22510
BRDA:238,0,1,230
BRDA:238,1,2,25232
BRDA:238,1,3,408
BRDA:254,0,0,21691
BRDA:254,0,1,1049
BRDA:254,1,2,24613
BRDA:254,1,3,1027
BRF:85
BRH:83
LF:149
LH:149
end_of_record
SF:/home/user/sources/ethereum/evmone/lib/evmone/instructions_storage.cpp
FN:98,_ZN6evmone5instr4core5sloadENS_8StackTopElRNS_14ExecutionStateE
FN:119,_ZN6evmone5instr4core6sstoreENS_8StackTopElRNS_14ExecutionStateE
FNDA:1026481,_ZN6evmone5instr4core5sloadENS_8StackTopElRNS_14ExecutionStateE
FNDA:4732492,_ZN6evmone5instr4core6sstoreENS_8StackTopElRNS_14ExecutionStateE
FNF:2
FNH:2
DA:98,1026481
DA:99,1026481
DA:100,1026481
DA:102,1026481
DA:103,1026481
DA:104,625553
DA:107,625553
DA:108,625553
DA:109,625553
DA:110,23
DA:111,625553
DA:113,1026458
DA:115,1026458
DA:116,1026481
DA:119,4732492
DA:120,4732492
DA:121,221363
DA:123,4511129
DA:124,33432
DA:126,4477697
DA:127,4477697
DA:129,4477697
DA:130,4477697
DA:131,4477697
DA:132,1463946
DA:133,4477697
DA:134,4477697
DA:136,4477697
DA:137,4477697
DA:138,4477697
DA:139,33952
DA:140,4443745
DA:141,4443745
DA:142,4477697
BRDA:102,0,0,625553
BRDA:102,0,1,400928
BRDA:102,1,2,1025821
BRDA:102,1,3,660
BRDA:103,0,0,625553
BRDA:103,0,1,400268
BRDA:109,0,0,23
BRDA:109,0,1,625530
BRDA:120,0,0,221363
BRDA:120,0,1,4511129
BRDA:123,0,0,4472313
BRDA:123,0,1,38816
BRDA:123,1,2,33432
BRDA:123,1,3,4438881
BRDA:130,0,0,4426536
BRDA:130,0,1,51161
BRDA:131,0,0,1463946
BRDA:131,0,1,2962590
BRDA:138,0,0,33952
BRDA:138,0,1,4443745
BRF:20
BRH:20
LF:34
LH:34
end_of_record
SF:/home/user/sources/ethereum/evmone/lib/evmone/instructions_xmacro.hpp
FNF:0
FNH:0
DA:7,670568379
DA:35,2785059
DA:36,18676118
DA:37,15891059
DA:38,6099375
DA:39,3314316
DA:40,2789122
DA:41,2943560
DA:42,2788663
DA:43,2787149
DA:44,2787423
DA:45,2822215
DA:46,2787673
DA:47,2785059
DA:48,2785059
DA:49,2785059
DA:50,2785059
DA:51,2614
DA:52,5720949
DA:53,3188872
DA:54,2791661
DA:55,2791301
DA:56,3626665
DA:57,8073653
DA:58,5288594
DA:59,2836146
DA:60,2786765
DA:61,2852871
DA:62,2860543
DA:63,6252732
DA:64,3467673
DA:65,2794111
DA:66,2787879
DA:67,2785059
DA:68,2820
DA:69,2798023
DA:70,2785059
DA:71,2785059
DA:72,2785059
DA:73,2785059
DA:74,2785059
DA:75,2785059
DA:76,2785059
DA:77,2785059
DA:78,2785059
DA:79,2785059
DA:80,2785059
DA:81,2785059
DA:82,2785059
DA:83,2785059
DA:84,2785059
DA:85,12964
DA:86,2842098
DA:87,2794817
DA:88,2808746
DA:89,3061076
DA:90,2809845
DA:91,4615688
DA:92,2970116
DA:93,2912604
DA:94,2806790
DA:95,2808447
DA:96,2798540
DA:97,3256186
DA:98,2798236
DA:99,2845759
DA:100,2793967
DA:101,2788439
DA:102,3380
DA:103,2855017
DA:104,2800052
DA:105,2936277
DA:106,2919950
DA:107,2798951
DA:108,2800374
DA:109,2785495
DA:110,2786636
DA:111,2785597
DA:112,2787923
DA:113,2797905
DA:114,2785059
DA:115,2785059
DA:116,2785059
DA:117,2785059
DA:118,2785059
DA:119,12846
DA:120,7311075
DA:121,15081419
DA:122,12296360
DA:123,8725050
DA:124,3811517
DA:125,7228804
DA:126,8303877
DA:127,9915815
DA:128,8473618
DA:129,5688559
DA:130,19378125
DA:131,26877063
DA:132,24092004
DA:133,11864293
DA:134,9079234
DA:135,3967084
DA:136,1182025
DA:137,84000821
DA:138,81215762
DA:139,10060320
DA:140,2905238
DA:141,2842867
DA:142,2896349
DA:143,2831764
DA:144,2832242
DA:145,2827012
DA:146,2819834
DA:147,2813956
DA:148,2825608
DA:149,2823919
DA:150,2819212
DA:151,2814168
DA:152,29109
DA:153,2833788
DA:154,2806384
DA:155,2851343
DA:156,2816752
DA:157,5050857
DA:158,2830124
DA:159,2822486
DA:160,2823426
DA:161,2816944
DA:162,2815274
DA:163,2826092
DA:164,2827206
DA:165,2813846
DA:166,2819468
DA:167,2810092
DA:168,2877023
DA:169,3093987
DA:170,308928
DA:171,8663457
DA:172,5878398
DA:173,3402480
DA:174,3068223
DA:175,2908487
DA:176,2848409
DA:177,2834094
DA:178,3228712
DA:179,2811665
DA:180,2837530
DA:181,2809631
DA:182,2801603
DA:183,2815162
DA:184,2800057
DA:185,2810059
DA:186,2802300
DA:187,17241
DA:188,3501353
DA:189,3179952
DA:190,3053301
DA:191,2869910
DA:192,2820845
DA:193,2793156
DA:194,2788918
DA:195,2792834
DA:196,2790964
DA:197,2787350
DA:198,2787780
DA:199,2791836
DA:200,2789292
DA:201,2788617
DA:202,2787462
DA:203,2787468
DA:204,2409
DA:205,2794421
DA:206,2793276
DA:207,2789767
DA:208,2791957
DA:209,2785921
DA:210,2785059
DA:211,2785059
DA:212,2785059
DA:213,2785059
DA:214,2785059
DA:215,2785059
DA:216,2785059
DA:217,2785059
DA:218,2785059
DA:219,2785059
DA:220,2785059
DA:221,862
DA:222,2785059
DA:223,2785059
DA:224,2785059
DA:225,2785059
DA:226,2785059
DA:227,2785059
DA:228,2785059
DA:229,2785059
DA:230,2785059
DA:231,2785059
DA:232,2785059
DA:233,2785059
DA:234,2785059
DA:235,2785059
DA:236,2785059
DA:237,2785059
DA:238,862
DA:239,2785059
DA:240,2785059
DA:241,2785059
DA:242,2785059
DA:243,2785059
DA:244,2785059
DA:245,2785059
DA:246,2785059
DA:247,2785059
DA:248,2785059
DA:249,2785059
DA:250,2785059
DA:251,2785059
DA:252,2785059
DA:253,2785059
DA:254,2785059
DA:255,862
DA:256,2785059
DA:257,2785059
DA:258,2785059
DA:259,2785059
DA:260,2785059
DA:261,2785059
DA:262,2785059
DA:263,2785059
DA:264,2785059
DA:265,2785059
DA:266,2785059
DA:267,2785059
DA:268,2785059
DA:269,2785059
DA:270,2785059
DA:271,2785059
DA:272,862
DA:273,2785059
DA:274,2785059
DA:275,2785059
DA:276,2785059
DA:277,2785059
DA:278,2785059
DA:279,2785059
DA:280,2785059
DA:281,2785059
DA:282,2785059
DA:283,2785059
DA:284,2785059
DA:285,2785059
DA:286,2785059
DA:287,2785059
DA:288,2785059
DA:289,862
DA:290,2807863
DA:291,3678374
DA:292,2867985
DA:293,2785059
DA:294,2886473
DA:295,2810723
DA:296,2785059
DA:297,2785059
DA:298,2785059
DA:299,2785059
DA:300,5848784
DA:301,3063725
DA:302,3063725
DA:303,3063725
DA:304,2785059
DA:305,2785059
BRF:0
BRH:0
LF:0
LH:0
end_of_record
SF:/home/user/sources/ethereum/evmone/lib/evmone_precompiles/blake2b.cpp
FN:40,_ZN6evmone6crypto16blake2b_compressEjPmPKmS3_b
FN:25,blake2b.cpp:_ZN6evmone6crypto12_GLOBAL__N_11gEPmmmmmmm
FN:14,blake2b.cpp:_ZN6evmone6crypto12_GLOBAL__N_14rotrEmj
FNDA:1024,_ZN6evmone6crypto16blake2b_compressEjPmPKmS3_b
FNDA:26164864,blake2b.cpp:_ZN6evmone6crypto12_GLOBAL__N_11gEPmmmmmmm
FNDA:104659456,blake2b.cpp:_ZN6evmone6crypto12_GLOBAL__N_14rotrEmj
FNF:3
FNH:3
DA:14,104659456
DA:15,104659456
DA:16,104659456
DA:25,26164864
DA:26,26164864
DA:27,26164864
DA:28,26164864
DA:29,26164864
DA:30,26164864
DA:31,26164864
DA:32,26164864
DA:33,26164864
DA:34,26164864
DA:40,1024
DA:43,1024
DA:44,1024
DA:45,1024
DA:46,1024
DA:47,1024
DA:48,1024
DA:49,1024
DA:50,1024
DA:51,1024
DA:52,1024
DA:53,1024
DA:54,1024
DA:58,1024
DA:59,1024
DA:60,1024
DA:61,1024
DA:62,1024
DA:63,1024
DA:64,1024
DA:67,3271632
DA:68,3270608
DA:70,3270608
DA:72,3270608
DA:73,3270608
DA:74,3270608
DA:75,3270608
DA:76,3270608
DA:77,3270608
DA:78,3270608
DA:79,3270608
DA:80,3270608
DA:82,9216
DA:83,8192
DA:84,1024
BRDA:67,0,0,3270608
BRDA:67,0,1,1024
BRDA:82,0,0,8192
BRDA:82,0,1,1024
BRF:4
BRH:4
LF:48
LH:48
end_of_record
SF:/home/user/sources/ethereum/evmone/lib/evmone_precompiles/bls.cpp
FN:96,_ZN6evmone6crypto3bls6g1_addEPhS2_PKhS4_S4_S4_
FN:119,_ZN6evmone6crypto3bls6g1_mulEPhS2_PKhS4_S4_
FN:146,_ZN6evmone6crypto3bls6g2_addEPhS2_PKhS4_S4_S4_
FN:169,_ZN6evmone6crypto3bls6g2_mulEPhS2_PKhS4_S4_
FN:196,_ZN6evmone6crypto3bls6g1_msmEPhS2_PKhm
FN:258,_ZN6evmone6crypto3bls6g2_msmEPhS2_PKhm
FN:319,_ZN6evmone6crypto3bls12map_fp_to_g1EPhS2_PKh
FN:337,_ZN6evmone6crypto3bls13map_fp2_to_g2EPhS2_PKh
FN:354,_ZN6evmone6crypto3bls13pairing_checkEPhPKhm
FN:30,bls.cpp:_ZN6evmone6crypto3bls12_GLOBAL__N_111validate_p1EPKhS4_
FN:80,bls.cpp:_ZN6evmone6crypto3bls12_GLOBAL__N_15storeEPhRK7blst_fp
FN:62,bls.cpp:_ZN6evmone6crypto3bls12_GLOBAL__N_111validate_p2EPKhS4_
FN:87,bls.cpp:_ZN6evmone6crypto3bls12_GLOBAL__N_15storeEPhRK8blst_fp2
FN:17,bls.cpp:_ZN6evmone6crypto3bls12_GLOBAL__N_111validate_fpEPKh
FN:47,bls.cpp:_ZN6evmone6crypto3bls12_GLOBAL__N_112validate_fp2EPKh
FNDA:326,_ZN6evmone6crypto3bls6g1_addEPhS2_PKhS4_S4_S4_
FNDA:364,_ZN6evmone6crypto3bls6g1_mulEPhS2_PKhS4_S4_
FNDA:350,_ZN6evmone6crypto3bls6g2_addEPhS2_PKhS4_S4_S4_
FNDA:376,_ZN6evmone6crypto3bls6g2_mulEPhS2_PKhS4_S4_
FNDA:1222,_ZN6evmone6crypto3bls6g1_msmEPhS2_PKhm
FNDA:1234,_ZN6evmone6crypto3bls6g2_msmEPhS2_PKhm
FNDA:118,_ZN6evmone6crypto3bls12map_fp_to_g1EPhS2_PKh
FNDA:106,_ZN6evmone6crypto3bls13map_fp2_to_g2EPhS2_PKh
FNDA:414,_ZN6evmone6crypto3bls13pairing_checkEPhPKhm
FNDA:95304,bls.cpp:_ZN6evmone6crypto3bls12_GLOBAL__N_111validate_p1EPKhS4_
FNDA:3012,bls.cpp:_ZN6evmone6crypto3bls12_GLOBAL__N_15storeEPhRK7blst_fp
FNDA:93796,bls.cpp:_ZN6evmone6crypto3bls12_GLOBAL__N_111validate_p2EPKhS4_
FNDA:980,bls.cpp:_ZN6evmone6crypto3bls12_GLOBAL__N_15storeEPhRK8blst_fp2
FNDA:565470,bls.cpp:_ZN6evmone6crypto3bls12_GLOBAL__N_111validate_fpEPKh
FNDA:187530,bls.cpp:_ZN6evmone6crypto3bls12_GLOBAL__N_112validate_fp2EPKh
FNF:15
FNH:15
DA:17,565470
DA:18,565470
DA:19,540
DA:21,564930
DA:22,564930
DA:23,564930
DA:24,565470
DA:30,95304
DA:31,95304
DA:32,95304
DA:33,124
DA:34,95180
DA:35,95180
DA:36,60
DA:38,95120
DA:39,95120
DA:40,172
DA:42,94948
DA:43,95120
DA:47,187530
DA:48,187530
DA:49,187530
DA:50,192
DA:51,187338
DA:52,187338
DA:53,128
DA:55,187210
DA:56,187338
DA:62,93796
DA:63,93796
DA:64,93796
DA:65,168
DA:67,93628
DA:68,93628
DA:69,96
DA:71,93532
DA:72,93532
DA:73,164
DA:75,93368
DA:76,93532
DA:80,3012
DA:81,3012
DA:82,3012
DA:83,3012
DA:87,980
DA:88,980
DA:89,980
DA:90,980
DA:96,326
DA:97,326
DA:98,326
DA:100,326
DA:101,144
DA:103,182
DA:104,182
DA:106,182
DA:107,182
DA:109,182
DA:110,182
DA:111,182
DA:112,182
DA:114,182
DA:115,326
DA:119,364
DA:120,364
DA:121,364
DA:123,364
DA:124,364
DA:125,108
DA:127,256
DA:128,256
DA:130,256
DA:131,64
DA:133,192
DA:134,192
DA:136,192
DA:137,192
DA:138,192
DA:139,192
DA:141,192
DA:142,256
DA:146,350
DA:147,350
DA:148,350
DA:150,350
DA:151,176
DA:153,174
DA:154,174
DA:156,174
DA:157,174
DA:159,174
DA:160,174
DA:161,174
DA:162,174
DA:164,174
DA:165,350
DA:169,376
DA:170,376
DA:171,376
DA:173,376
DA:174,376
DA:175,128
DA:177,248
DA:178,248
DA:180,248
DA:181,56
DA:183,192
DA:184,192
DA:186,192
DA:187,192
DA:188,192
DA:189,192
DA:191,192
DA:192,248
DA:196,1222
DA:197,1222
DA:198,1222
DA:199,1222
DA:201,1222
DA:202,1222
DA:203,1222
DA:204,1222
DA:206,1222
DA:207,1222
DA:208,1222
DA:209,1222
DA:211,1222
DA:212,82206
DA:213,81032
DA:214,81032
DA:215,81032
DA:216,28
DA:218,81004
DA:219,20
DA:222,80984
DA:223,78254
DA:225,2730
DA:226,2730
DA:228,2730
DA:229,2730
DA:230,2730
DA:231,2730
DA:232,2730
DA:234,1174
DA:235,1104
DA:236,1104
DA:237,1104
DA:238,1104
DA:239,1104
DA:241,70
DA:242,70
DA:243,70
DA:244,70
DA:245,70
DA:246,70
DA:248,70
DA:249,70
DA:250,70
DA:251,70
DA:253,70
DA:254,1174
DA:258,1234
DA:259,1234
DA:260,1234
DA:261,1234
DA:263,1234
DA:264,1234
DA:265,1234
DA:266,1234
DA:268,1234
DA:269,1234
DA:270,1234
DA:271,1234
DA:273,1234
DA:274,80714
DA:275,79536
DA:276,79536
DA:277,79536
DA:278,36
DA:280,79500
DA:281,20
DA:284,79480
DA:285,78274
DA:287,1206
DA:288,1206
DA:290,1206
DA:291,1206
DA:292,1206
DA:293,1206
DA:294,1206
DA:296,1178
DA:297,1104
DA:298,1104
DA:299,1104
DA:300,1104
DA:301,1104
DA:303,74
DA:304,74
DA:305,74
DA:306,74
DA:307,74
DA:308,74
DA:310,74
DA:311,74
DA:312,74
DA:313,74
DA:315,74
DA:316,1178
DA:319,118
DA:320,118
DA:321,118
DA:322,36
DA:324,82
DA:325,82
DA:327,82
DA:328,82
DA:329,82
DA:330,82
DA:332,82
DA:333,118
DA:337,106
DA:338,106
DA:339,106
DA:340,56
DA:342,50
DA:343,50
DA:345,50
DA:346,50
DA:347,50
DA:348,50
DA:350,50
DA:351,106
DA:354,414
DA:355,414
DA:356,414
DA:357,414
DA:358,414
DA:359,414
DA:360,414
DA:362,414
DA:363,414
DA:364,13466
DA:365,13256
DA:366,13256
DA:367,13256
DA:368,72
DA:370,13184
DA:371,13184
DA:372,84
DA:374,13100
DA:375,24
DA:377,13076
DA:378,24
DA:381,13052
DA:382,12912
DA:384,140
DA:385,140
DA:386,140
DA:387,140
DA:389,210
DA:390,210
DA:391,210
DA:392,210
DA:393,210
DA:394,414
BRDA:18,0,0,540
BRDA:18,0,1,564930
BRDA:32,0,0,124
BRDA:32,0,1,95180
BRDA:35,0,0,60
BRDA:35,0,1,95120
BRDA:39,0,0,172
BRDA:39,0,1,94948
BRDA:49,0,0,192
BRDA:49,0,1,187338
BRDA:52,0,0,128
BRDA:52,0,1,187210
BRDA:64,0,0,168
BRDA:64,0,1,93628
BRDA:68,0,0,96
BRDA:68,0,1,93532
BRDA:72,0,0,164
BRDA:72,0,1,93368
BRDA:100,0,0,92
BRDA:100,0,1,234
BRDA:100,1,2,52
BRDA:100,1,3,182
BRDA:124,0,0,108
BRDA:124,0,1,256
BRDA:130,0,0,64
BRDA:130,0,1,192
BRDA:150,0,0,108
BRDA:150,0,1,242
BRDA:150,1,2,68
BRDA:150,1,3,174
BRDA:174,0,0,128
BRDA:174,0,1,248
BRDA:180,0,0,56
BRDA:180,0,1,192
BRDA:212,0,0,81032
BRDA:212,0,1,1174
BRDA:215,0,0,28
BRDA:215,0,1,81004
BRDA:218,0,0,20
BRDA:218,0,1,80984
BRDA:222,0,0,78254
BRDA:222,0,1,2730
BRDA:234,0,0,1104
BRDA:234,0,1,70
BRDA:274,0,0,79536
BRDA:274,0,1,1178
BRDA:277,0,0,36
BRDA:277,0,1,79500
BRDA:280,0,0,20
BRDA:280,0,1,79480
BRDA:284,0,0,78274
BRDA:284,0,1,1206
BRDA:296,0,0,1104
BRDA:296,0,1,74
BRDA:321,0,0,36
BRDA:321,0,1,82
BRDA:339,0,0,56
BRDA:339,0,1,50
BRDA:364,0,0,13256
BRDA:364,0,1,210
BRDA:367,0,0,72
BRDA:367,0,1,13184
BRDA:371,0,0,84
BRDA:371,0,1,13100
BRDA:374,0,0,24
BRDA:374,0,1,13076
BRDA:377,0,0,24
BRDA:377,0,1,13052
BRDA:381,0,0,12894
BRDA:381,0,1,158
BRDA:381,1,2,18
BRDA:381,1,3,140
BRDA:392,0,0,170
BRDA:392,0,1,40
BRF:74
BRH:74
LF:265
LH:265
end_of_record
SF:/home/user/sources/ethereum/evmone/lib/evmone_precompiles/bn254.cpp
FN:12,_ZN6evmmax5bn2548validateERKNS_3ecc11AffinePointINS0_5CurveEEE
FN:20,_ZN6evmmax5bn2543mulERKNS_3ecc11AffinePointINS0_5CurveEEERKN4intx4uintILj256EEE
FNDA:12104,_ZN6evmmax5bn2548validateERKNS_3ecc11AffinePointINS0_5CurveEEE
FNDA:4626,_ZN6evmmax5bn2543mulERKNS_3ecc11AffinePointINS0_5CurveEEERKN4intx4uintILj256EEE
FNF:2
FNH:2
DA:12,12104
DA:13,12104
DA:14,12104
DA:15,12104
DA:16,12104
DA:17,12104
DA:20,4626
DA:21,4626
DA:22,4626
DA:23,4626
BRDA:16,0,0,5580
BRDA:16,0,1,6524
BRDA:16,1,2,4354
BRDA:16,1,3,2170
BRF:4
BRH:4
LF:10
LH:10
end_of_record
SF:/home/user/sources/ethereum/evmone/lib/evmone_precompiles/ecc.hpp
FN:135,_ZN6evmmax3ecc11AffinePointINS_5bn2545CurveEE10from_bytesESt4spanIKhLm64EE
FN:42,_ZN6evmmax3ecc12FieldElementINS_5bn2545CurveEE10from_bytesESt4spanIKhLm32EE
FN:37,_ZN6evmmax3ecc12FieldElementINS_5bn2545CurveEEC2EN4intx4uintILj256EEE
FN:120,_ZN6evmmax3ecc11AffinePointINS_5bn2545CurveEEC2ERKNS0_12FieldElementIS3_EES8_
FN:142,_ZNK6evmmax3ecc11AffinePointINS_5bn2545CurveEE8to_bytesESt4spanIhLm64EE
FN:48,_ZNK6evmmax3ecc12FieldElementINS_5bn2545CurveEE8to_bytesESt4spanIhLm32EE
FN:39,_ZNK6evmmax3ecc12FieldElementINS_5bn2545CurveEE5valueEv
FN:227,_ZN6evmmax3ecc3addINS_5bn2545CurveEEENS0_11AffinePointIT_EERKS6_S8_
FN:130,_ZN6evmmax3ecceqERKNS0_11AffinePointINS_5bn2545CurveEEENS0_8ConstantILi0EEE
FN:127,_ZN6evmmax3ecceqERKNS0_11AffinePointINS_5bn2545CurveEEES6_
FN:56,_ZN6evmmax3ecceqERKNS0_12FieldElementINS_5bn2545CurveEEES6_
FN:71,_ZN6evmmax3eccmiERKNS0_12FieldElementINS_5bn2545CurveEEES6_
FN:93,_ZN6evmmax3ecc12FieldElementINS_5bn2545CurveEE4wrapERKN4intx4uintILj256EEE
FN:35,_ZN6evmmax3ecc12FieldElementINS_5bn2545CurveEEC2Ev
FN:58,_ZN6evmmax3ecceqERKNS0_12FieldElementINS_5bn2545CurveEEENS0_8ConstantILi0EEE
FN:119,_ZN6evmmax3ecc11AffinePointINS_5bn2545CurveEEC2Ev
FN:61,_ZN6evmmax3eccmlERKNS0_12FieldElementINS_5bn2545CurveEEES6_
FN:66,_ZN6evmmax3eccplERKNS0_12FieldElementINS_5bn2545CurveEEES6_
FN:86,_ZN6evmmax3eccdvERKNS0_12FieldElementINS_5bn2545CurveEEES6_
FN:438,_ZN6evmmax3ecc3mulINS_5bn2545CurveEEENS0_9ProjPointIT_EERKNS0_11AffinePointIS5_EENS5_9uint_typeE
FN:159,_ZN6evmmax3ecc9ProjPointINS_5bn2545CurveEEC2Ev
FN:361,_ZN6evmmax3ecc3dblINS_5bn2545CurveEEENS0_9ProjPointIT_EERKS6_
FN:160,_ZN6evmmax3ecc9ProjPointINS_5bn2545CurveEEC2ERKNS0_12FieldElementIS3_EES8_S8_
FN:428,_ZN6evmmax3ecc8test_bitIN4intx4uintILj256EEEEEbRKT_m
FN:318,_ZN6evmmax3ecc3addINS_5bn2545CurveEEENS0_9ProjPointIT_EERKS6_RKNS0_11AffinePointIS5_EE
FN:163,_ZN6evmmax3ecceqERKNS0_9ProjPointINS_5bn2545CurveEEENS0_8ConstantILi0EEE
FN:161,_ZN6evmmax3ecc9ProjPointINS_5bn2545CurveEEC2ERKNS0_11AffinePointIS3_EE
FN:214,_ZN6evmmax3ecc9to_affineINS_5bn2545CurveEEENS0_11AffinePointIT_EERKNS0_9ProjPointIS5_EE
FN:81,_ZN6evmmax3eccdvENS0_8ConstantILi1EEERKNS0_12FieldElementINS_5bn2545CurveEEE
FN:203,_ZN6evmmax3ecc8JacPointINS0_12ExtFieldElemINS_5bn2549Fq2ConfigEEEE4fromERKNS0_5PointIS5_EE
FN:189,_ZN6evmmax3ecceqERKNS0_8JacPointINS0_12ExtFieldElemINS_5bn2549Fq2ConfigEEEEES8_
FN:107,_ZN6evmmax3eccngERKNS0_5PointINS0_12ExtFieldElemINS_5bn2549Fq2ConfigEEEEE
FN:142,_ZNK6evmmax3ecc11AffinePointINS_9secp256k15CurveEE8to_bytesESt4spanIhLm64EE
FN:48,_ZNK6evmmax3ecc12FieldElementINS_9secp256k15CurveEE8to_bytesESt4spanIhLm32EE
FN:39,_ZNK6evmmax3ecc12FieldElementINS_9secp256k15CurveEE5valueEv
FN:93,_ZN6evmmax3ecc12FieldElementINS_9secp256k15CurveEE4wrapERKN4intx4uintILj256EEE
FN:35,_ZN6evmmax3ecc12FieldElementINS_9secp256k15CurveEEC2Ev
FN:120,_ZN6evmmax3ecc11AffinePointINS_9secp256k15CurveEEC2ERKNS0_12FieldElementIS3_EES8_
FN:130,_ZN6evmmax3ecceqERKNS0_11AffinePointINS_9secp256k15CurveEEENS0_8ConstantILi0EEE
FN:127,_ZN6evmmax3ecceqERKNS0_11AffinePointINS_9secp256k15CurveEEES6_
FN:56,_ZN6evmmax3ecceqERKNS0_12FieldElementINS_9secp256k15CurveEEES6_
FN:119,_ZN6evmmax3ecc11AffinePointINS_9secp256k15CurveEEC2Ev
FN:438,_ZN6evmmax3ecc3mulINS_9secp256k15CurveEEENS0_9ProjPointIT_EERKNS0_11AffinePointIS5_EENS5_9uint_typeE
FN:159,_ZN6evmmax3ecc9ProjPointINS_9secp256k15CurveEEC2Ev
FN:37,_ZN6evmmax3ecc12FieldElementINS_9secp256k15CurveEEC2EN4intx4uintILj256EEE
FN:361,_ZN6evmmax3ecc3dblINS_9secp256k15CurveEEENS0_9ProjPointIT_EERKS6_
FN:61,_ZN6evmmax3eccmlERKNS0_12FieldElementINS_9secp256k15CurveEEES6_
FN:66,_ZN6evmmax3eccplERKNS0_12FieldElementINS_9secp256k15CurveEEES6_
FN:71,_ZN6evmmax3eccmiERKNS0_12FieldElementINS_9secp256k15CurveEEES6_
FN:160,_ZN6evmmax3ecc9ProjPointINS_9secp256k15CurveEEC2ERKNS0_12FieldElementIS3_EES8_S8_
FN:318,_ZN6evmmax3ecc3addINS_9secp256k15CurveEEENS0_9ProjPointIT_EERKS6_RKNS0_11AffinePointIS5_EE
FN:163,_ZN6evmmax3ecceqERKNS0_9ProjPointINS_9secp256k15CurveEEENS0_8ConstantILi0EEE
FN:58,_ZN6evmmax3ecceqERKNS0_12FieldElementINS_9secp256k15CurveEEENS0_8ConstantILi0EEE
FN:161,_ZN6evmmax3ecc9ProjPointINS_9secp256k15CurveEEC2ERKNS0_11AffinePointIS3_EE
FN:264,_ZN6evmmax3ecc3addINS_9secp256k15CurveEEENS0_9ProjPointIT_EERKS6_S8_
FN:166,_ZN6evmmax3ecceqERKNS0_9ProjPointINS_9secp256k15CurveEEES6_
FN:214,_ZN6evmmax3ecc9to_affineINS_9secp256k15CurveEEENS0_11AffinePointIT_EERKNS0_9ProjPointIS5_EE
FN:81,_ZN6evmmax3eccdvENS0_8ConstantILi1EEERKNS0_12FieldElementINS_9secp256k15CurveEEE
FN:37,_ZN6evmmax3ecc12FieldElementINS_9secp256r15CurveEEC2EN4intx4uintILj256EEE
FN:120,_ZN6evmmax3ecc11AffinePointINS_9secp256r15CurveEEC2ERKNS0_12FieldElementIS3_EES8_
FN:130,_ZN6evmmax3ecceqERKNS0_11AffinePointINS_9secp256r15CurveEEENS0_8ConstantILi0EEE
FN:127,_ZN6evmmax3ecceqERKNS0_11AffinePointINS_9secp256r15CurveEEES6_
FN:56,_ZN6evmmax3ecceqERKNS0_12FieldElementINS_9secp256r15CurveEEES6_
FN:119,_ZN6evmmax3ecc11AffinePointINS_9secp256r15CurveEEC2Ev
FN:35,_ZN6evmmax3ecc12FieldElementINS_9secp256r15CurveEEC2Ev
FN:61,_ZN6evmmax3eccmlERKNS0_12FieldElementINS_9secp256r15CurveEEES6_
FN:93,_ZN6evmmax3ecc12FieldElementINS_9secp256r15CurveEE4wrapERKN4intx4uintILj256EEE
FN:66,_ZN6evmmax3eccplERKNS0_12FieldElementINS_9secp256r15CurveEEES6_
FN:39,_ZNK6evmmax3ecc12FieldElementINS_9secp256r15CurveEE5valueEv
FN:438,_ZN6evmmax3ecc3mulINS_9secp256r15CurveEEENS0_9ProjPointIT_EERKNS0_11AffinePointIS5_EENS5_9uint_typeE
FN:159,_ZN6evmmax3ecc9ProjPointINS_9secp256r15CurveEEC2Ev
FN:361,_ZN6evmmax3ecc3dblINS_9secp256r15CurveEEENS0_9ProjPointIT_EERKS6_
FN:71,_ZN6evmmax3eccmiERKNS0_12FieldElementINS_9secp256r15CurveEEES6_
FN:160,_ZN6evmmax3ecc9ProjPointINS_9secp256r15CurveEEC2ERKNS0_12FieldElementIS3_EES8_S8_
FN:318,_ZN6evmmax3ecc3addINS_9secp256r15CurveEEENS0_9ProjPointIT_EERKS6_RKNS0_11AffinePointIS5_EE
FN:163,_ZN6evmmax3ecceqERKNS0_9ProjPointINS_9secp256r15CurveEEENS0_8ConstantILi0EEE
FN:58,_ZN6evmmax3ecceqERKNS0_12FieldElementINS_9secp256r15CurveEEENS0_8ConstantILi0EEE
FN:161,_ZN6evmmax3ecc9ProjPointINS_9secp256r15CurveEEC2ERKNS0_11AffinePointIS3_EE
FN:264,_ZN6evmmax3ecc3addINS_9secp256r15CurveEEENS0_9ProjPointIT_EERKS6_S8_
FN:166,_ZN6evmmax3ecceqERKNS0_9ProjPointINS_9secp256r15CurveEEES6_
FN:214,_ZN6evmmax3ecc9to_affineINS_9secp256r15CurveEEENS0_11AffinePointIT_EERKNS0_9ProjPointIS5_EE
FN:81,_ZN6evmmax3eccdvENS0_8ConstantILi1EEERKNS0_12FieldElementINS_9secp256r15CurveEEE
FNDA:12364,_ZN6evmmax3ecc11AffinePointINS_5bn2545CurveEE10from_bytesESt4spanIKhLm64EE
FNDA:24728,_ZN6evmmax3ecc12FieldElementINS_5bn2545CurveEE10from_bytesESt4spanIKhLm32EE
FNDA:31406,_ZN6evmmax3ecc12FieldElementINS_5bn2545CurveEEC2EN4intx4uintILj256EEE
FNDA:17878,_ZN6evmmax3ecc11AffinePointINS_5bn2545CurveEEC2ERKNS0_12FieldElementIS3_EES8_
FNDA:7244,_ZNK6evmmax3ecc11AffinePointINS_5bn2545CurveEE8to_bytesESt4spanIhLm64EE
FNDA:14488,_ZNK6evmmax3ecc12FieldElementINS_5bn2545CurveEE8to_bytesESt4spanIhLm32EE
FNDA:14488,_ZNK6evmmax3ecc12FieldElementINS_5bn2545CurveEE5valueEv
FNDA:2618,_ZN6evmmax3ecc3addINS_5bn2545CurveEEENS0_11AffinePointIT_EERKS6_S8_
FNDA:138820,_ZN6evmmax3ecceqERKNS0_11AffinePointINS_5bn2545CurveEEENS0_8ConstantILi0EEE
FNDA:231142,_ZN6evmmax3ecceqERKNS0_11AffinePointINS_5bn2545CurveEEES6_
FNDA:197562,_ZN6evmmax3ecceqERKNS0_12FieldElementINS_5bn2545CurveEEES6_
FNDA:2100138,_ZN6evmmax3eccmiERKNS0_12FieldElementINS_5bn2545CurveEEES6_
FNDA:9864212,_ZN6evmmax3ecc12FieldElementINS_5bn2545CurveEE4wrapERKN4intx4uintILj256EEE
FNDA:10151392,_ZN6evmmax3ecc12FieldElementINS_5bn2545CurveEEC2Ev
FNDA:90048,_ZN6evmmax3ecceqERKNS0_12FieldElementINS_5bn2545CurveEEENS0_8ConstantILi0EEE
FNDA:138964,_ZN6evmmax3ecc11AffinePointINS_5bn2545CurveEEC2Ev
FNDA:3213810,_ZN6evmmax3eccmlERKNS0_12FieldElementINS_5bn2545CurveEEES6_
FNDA:4544750,_ZN6evmmax3eccplERKNS0_12FieldElementINS_5bn2545CurveEEES6_
FNDA:888,_ZN6evmmax3eccdvERKNS0_12FieldElementINS_5bn2545CurveEEES6_
FNDA:4626,_ZN6evmmax3ecc3mulINS_5bn2545CurveEEENS0_9ProjPointIT_EERKNS0_11AffinePointIS5_EENS5_9uint_typeE
FNDA:4626,_ZN6evmmax3ecc9ProjPointINS_5bn2545CurveEEC2Ev
FNDA:315354,_ZN6evmmax3ecc3dblINS_5bn2545CurveEEENS0_9ProjPointIT_EERKS6_
FNDA:401646,_ZN6evmmax3ecc9ProjPointINS_5bn2545CurveEEC2ERKNS0_12FieldElementIS3_EES8_S8_
FNDA:930078,_ZN6evmmax3ecc8test_bitIN4intx4uintILj256EEEEEbRKT_m
FNDA:128088,_ZN6evmmax3ecc3addINS_5bn2545CurveEEENS0_9ProjPointIT_EERKS6_RKNS0_11AffinePointIS5_EE
FNDA:88344,_ZN6evmmax3ecceqERKNS0_9ProjPointINS_5bn2545CurveEEENS0_8ConstantILi0EEE
FNDA:2052,_ZN6evmmax3ecc9ProjPointINS_5bn2545CurveEEC2ERKNS0_11AffinePointIS3_EE
FNDA:4626,_ZN6evmmax3ecc9to_affineINS_5bn2545CurveEEENS0_11AffinePointIT_EERKNS0_9ProjPointIS5_EE
FNDA:4626,_ZN6evmmax3eccdvENS0_8ConstantILi1EEERKNS0_12FieldElementINS_5bn2545CurveEEE
FNDA:2520,_ZN6evmmax3ecc8JacPointINS0_12ExtFieldElemINS_5bn2549Fq2ConfigEEEE4fromERKNS0_5PointIS5_EE
FNDA:1518,_ZN6evmmax3ecceqERKNS0_8JacPointINS0_12ExtFieldElemINS_5bn2549Fq2ConfigEEEEES8_
FNDA:2004,_ZN6evmmax3eccngERKNS0_5PointINS0_12ExtFieldElemINS_5bn2549Fq2ConfigEEEEE
FNDA:832,_ZNK6evmmax3ecc11AffinePointINS_9secp256k15CurveEE8to_bytesESt4spanIhLm64EE
FNDA:1664,_ZNK6evmmax3ecc12FieldElementINS_9secp256k15CurveEE8to_bytesESt4spanIhLm32EE
FNDA:1664,_ZNK6evmmax3ecc12FieldElementINS_9secp256k15CurveEE5valueEv
FNDA:12400894,_ZN6evmmax3ecc12FieldElementINS_9secp256k15CurveEE4wrapERKN4intx4uintILj256EEE
FNDA:12739230,_ZN6evmmax3ecc12FieldElementINS_9secp256k15CurveEEC2Ev
FNDA:1780,_ZN6evmmax3ecc11AffinePointINS_9secp256k15CurveEEC2ERKNS0_12FieldElementIS3_EES8_
FNDA:167388,_ZN6evmmax3ecceqERKNS0_11AffinePointINS_9secp256k15CurveEEENS0_8ConstantILi0EEE
FNDA:167504,_ZN6evmmax3ecceqERKNS0_11AffinePointINS_9secp256k15CurveEEES6_
FNDA:168062,_ZN6evmmax3ecceqERKNS0_12FieldElementINS_9secp256k15CurveEEES6_
FNDA:167388,_ZN6evmmax3ecc11AffinePointINS_9secp256k15CurveEEC2Ev
FNDA:1780,_ZN6evmmax3ecc3mulINS_9secp256k15CurveEEENS0_9ProjPointIT_EERKNS0_11AffinePointIS5_EENS5_9uint_typeE
FNDA:1780,_ZN6evmmax3ecc9ProjPointINS_9secp256k15CurveEEC2Ev
FNDA:3150,_ZN6evmmax3ecc12FieldElementINS_9secp256k15CurveEEC2EN4intx4uintILj256EEE
FNDA:349978,_ZN6evmmax3ecc3dblINS_9secp256k15CurveEEENS0_9ProjPointIT_EERKS6_
FNDA:4279398,_ZN6evmmax3eccmlERKNS0_12FieldElementINS_9secp256k15CurveEEES6_
FNDA:5375756,_ZN6evmmax3eccplERKNS0_12FieldElementINS_9secp256k15CurveEEES6_
FNDA:2743070,_ZN6evmmax3eccmiERKNS0_12FieldElementINS_9secp256k15CurveEEES6_
FNDA:515508,_ZN6evmmax3ecc9ProjPointINS_9secp256k15CurveEEC2ERKNS0_12FieldElementIS3_EES8_S8_
FNDA:166498,_ZN6evmmax3ecc3addINS_9secp256k15CurveEEENS0_9ProjPointIT_EERKS6_RKNS0_11AffinePointIS5_EE
FNDA:167868,_ZN6evmmax3ecceqERKNS0_9ProjPointINS_9secp256k15CurveEEENS0_8ConstantILi0EEE
FNDA:167868,_ZN6evmmax3ecceqERKNS0_12FieldElementINS_9secp256k15CurveEEENS0_8ConstantILi0EEE
FNDA:1370,_ZN6evmmax3ecc9ProjPointINS_9secp256k15CurveEEC2ERKNS0_11AffinePointIS3_EE
FNDA:890,_ZN6evmmax3ecc3addINS_9secp256k15CurveEEENS0_9ProjPointIT_EERKS6_S8_
FNDA:480,_ZN6evmmax3ecceqERKNS0_9ProjPointINS_9secp256k15CurveEEES6_
FNDA:890,_ZN6evmmax3ecc9to_affineINS_9secp256k15CurveEEENS0_11AffinePointIT_EERKNS0_9ProjPointIS5_EE
FNDA:890,_ZN6evmmax3eccdvENS0_8ConstantILi1EEERKNS0_12FieldElementINS_9secp256k15CurveEEE
FNDA:3428,_ZN6evmmax3ecc12FieldElementINS_9secp256r15CurveEEC2EN4intx4uintILj256EEE
FNDA:1164,_ZN6evmmax3ecc11AffinePointINS_9secp256r15CurveEEC2ERKNS0_12FieldElementIS3_EES8_
FNDA:137136,_ZN6evmmax3ecceqERKNS0_11AffinePointINS_9secp256r15CurveEEENS0_8ConstantILi0EEE
FNDA:137552,_ZN6evmmax3ecceqERKNS0_11AffinePointINS_9secp256r15CurveEEES6_
FNDA:138734,_ZN6evmmax3ecceqERKNS0_12FieldElementINS_9secp256r15CurveEEES6_
FNDA:137136,_ZN6evmmax3ecc11AffinePointINS_9secp256r15CurveEEC2Ev
FNDA:12547172,_ZN6evmmax3ecc12FieldElementINS_9secp256r15CurveEEC2Ev
FNDA:3624886,_ZN6evmmax3eccmlERKNS0_12FieldElementINS_9secp256r15CurveEEES6_
FNDA:12270684,_ZN6evmmax3ecc12FieldElementINS_9secp256r15CurveEE4wrapERKN4intx4uintILj256EEE
FNDA:6240468,_ZN6evmmax3eccplERKNS0_12FieldElementINS_9secp256r15CurveEEES6_
FNDA:554,_ZNK6evmmax3ecc12FieldElementINS_9secp256r15CurveEE5valueEv
FNDA:1108,_ZN6evmmax3ecc3mulINS_9secp256r15CurveEEENS0_9ProjPointIT_EERKNS0_11AffinePointIS5_EENS5_9uint_typeE
FNDA:1108,_ZN6evmmax3ecc9ProjPointINS_9secp256r15CurveEEC2Ev
FNDA:264838,_ZN6evmmax3ecc3dblINS_9secp256r15CurveEEENS0_9ProjPointIT_EERKS6_
FNDA:2404776,_ZN6evmmax3eccmiERKNS0_12FieldElementINS_9secp256r15CurveEEES6_
FNDA:400796,_ZN6evmmax3ecc9ProjPointINS_9secp256r15CurveEEC2ERKNS0_12FieldElementIS3_EES8_S8_
FNDA:136526,_ZN6evmmax3ecc3addINS_9secp256r15CurveEEENS0_9ProjPointIT_EERKS6_RKNS0_11AffinePointIS5_EE
FNDA:137626,_ZN6evmmax3ecceqERKNS0_9ProjPointINS_9secp256r15CurveEEENS0_8ConstantILi0EEE
FNDA:137626,_ZN6evmmax3ecceqERKNS0_12FieldElementINS_9secp256r15CurveEEENS0_8ConstantILi0EEE
FNDA:1100,_ZN6evmmax3ecc9ProjPointINS_9secp256r15CurveEEC2ERKNS0_11AffinePointIS3_EE
FNDA:554,_ZN6evmmax3ecc3addINS_9secp256r15CurveEEENS0_9ProjPointIT_EERKS6_S8_
FNDA:546,_ZN6evmmax3ecceqERKNS0_9ProjPointINS_9secp256r15CurveEEES6_
FNDA:554,_ZN6evmmax3ecc9to_affineINS_9secp256r15CurveEEENS0_11AffinePointIT_EERKNS0_9ProjPointIS5_EE
FNDA:554,_ZN6evmmax3eccdvENS0_8ConstantILi1EEERKNS0_12FieldElementINS_9secp256r15CurveEEE
FNF:34
FNH:34
DA:35,35437794
DA:37,37984
DA:39,16706
DA:42,24728
DA:44,24728
DA:45,24728
DA:48,16152
DA:50,16152
DA:51,16152
DA:56,504358
DA:58,395542
DA:61,11118094
DA:62,11118094
DA:63,11118094
DA:66,16160974
DA:67,16160974
DA:68,16160974
DA:71,7247984
DA:72,7247984
DA:73,7247984
DA:81,6070
DA:82,6070
DA:83,6070
DA:86,888
DA:87,888
DA:88,888
DA:93,34535790
DA:94,34535790
DA:95,34535790
DA:96,34535790
DA:97,34535790
DA:107,2004
DA:119,443488
DA:120,20822
DA:127,1608594
DA:130,443344
DA:131,443344
DA:132,443344
DA:135,12364
DA:136,12364
DA:137,12364
DA:138,12364
DA:139,12364
DA:142,8076
DA:143,8076
DA:144,8076
DA:145,8076
DA:159,7514
DA:160,1317950
DA:161,4522
DA:163,393838
DA:166,1026
DA:167,1026
DA:168,1026
DA:169,1026
DA:170,1026
DA:171,1026
DA:172,1026
DA:173,1026
DA:174,1026
DA:189,1518
DA:190,1518
DA:191,1518
DA:193,1518
DA:194,1518
DA:196,1518
DA:197,1518
DA:203,2520
DA:204,2520
DA:205,2520
DA:214,6070
DA:216,6070
DA:217,6070
DA:218,6070
DA:219,6070
DA:220,6070
DA:227,2618
DA:228,2618
DA:229,1028
DA:230,1590
DA:231,558
DA:233,1032
DA:234,1032
DA:239,1032
DA:240,1032
DA:241,1032
DA:242,672
DA:243,672
DA:244,144
DA:247,528
DA:248,528
DA:249,528
DA:250,528
DA:251,888
DA:253,888
DA:254,888
DA:255,888
DA:256,1032
DA:264,1444
DA:265,1444
DA:266,418
DA:267,1026
DA:269,0
DA:271,1026
DA:272,92
DA:281,934
DA:282,934
DA:284,934
DA:285,934
DA:286,934
DA:287,934
DA:288,934
DA:289,934
DA:290,934
DA:291,934
DA:292,934
DA:293,934
DA:294,934
DA:295,934
DA:296,934
DA:297,934
DA:298,934
DA:299,934
DA:300,934
DA:301,934
DA:302,934
DA:303,934
DA:304,934
DA:305,934
DA:306,934
DA:307,934
DA:309,934
DA:310,1026
DA:318,431112
DA:319,431112
DA:321,431112
DA:323,39744
DA:324,391368
DA:325,4522
DA:330,386846
DA:331,386846
DA:333,386846
DA:334,386846
DA:335,386846
DA:336,386846
DA:337,386846
DA:338,386846
DA:339,386846
DA:340,386846
DA:341,386846
DA:342,386846
DA:343,386846
DA:344,386846
DA:345,386846
DA:346,386846
DA:347,386846
DA:348,386846
DA:349,386846
DA:350,386846
DA:351,386846
DA:352,386846
DA:353,386846
DA:354,386846
DA:356,386846
DA:357,391368
DA:361,930170
DA:362,930170
DA:365,665332
DA:369,665332
DA:370,665332
DA:371,665332
DA:372,665332
DA:373,665332
DA:374,665332
DA:375,665332
DA:376,665332
DA:377,665332
DA:378,665332
DA:379,665332
DA:380,665332
DA:381,665332
DA:382,665332
DA:383,665332
DA:384,665332
DA:385,665332
DA:386,665332
DA:387,665332
DA:390,264838
DA:394,264838
DA:395,264838
DA:396,264838
DA:397,264838
DA:398,264838
DA:399,264838
DA:400,264838
DA:401,264838
DA:402,264838
DA:403,264838
DA:404,264838
DA:405,264838
DA:406,264838
DA:407,264838
DA:408,264838
DA:409,264838
DA:410,264838
DA:411,264838
DA:412,264838
DA:413,264838
DA:414,264838
DA:421,930170
DA:428,930078
DA:429,930078
DA:430,930078
DA:431,930078
DA:432,930078
DA:433,930078
DA:434,930078
DA:438,7514
DA:439,7514
DA:443,10100
DA:444,10100
DA:445,10100
DA:446,10100
DA:447,7514
DA:449,2586
DA:450,2586
DA:452,7514
DA:453,7514
DA:454,937592
DA:455,930078
DA:456,930078
DA:457,930078
DA:458,431112
DA:459,930078
DA:460,7514
DA:461,7514
BRDA:127,0,0,231142
BRDA:127,0,1,0
BRDA:127,1,2,231142
BRDA:127,1,3,0
BRDA:127,2,4,137552
BRDA:127,2,5,0
BRDA:127,3,6,137552
BRDA:127,3,7,0
BRDA:127,4,8,167504
BRDA:127,4,9,0
BRDA:127,5,10,167504
BRDA:127,5,11,0
BRDA:173,0,0,38
BRDA:173,0,1,508
BRDA:173,1,2,136
BRDA:173,1,3,344
BRDA:173,2,4,14
BRDA:173,2,5,24
BRDA:173,3,6,78
BRDA:173,3,7,58
BRDA:196,0,0,1044
BRDA:196,0,1,474
BRDA:196,1,2,1044
BRDA:196,1,3,0
BRDA:228,0,0,1028
BRDA:228,0,1,1590
BRDA:230,0,0,558
BRDA:230,0,1,1032
BRDA:241,0,0,672
BRDA:241,0,1,360
BRDA:243,0,0,144
BRDA:243,0,1,528
BRDA:265,0,0,8
BRDA:265,0,1,546
BRDA:265,1,2,410
BRDA:265,1,3,480
BRDA:267,0,0,0
BRDA:267,0,1,546
BRDA:267,1,2,0
BRDA:267,1,3,480
BRDA:271,0,0,14
BRDA:271,0,1,532
BRDA:271,1,2,78
BRDA:271,1,3,402
BRDA:321,0,0,39744
BRDA:321,0,1,88344
BRDA:321,1,2,0
BRDA:321,1,3,136526
BRDA:321,2,4,0
BRDA:321,2,5,166498
BRDA:324,0,0,1370
BRDA:324,0,1,165128
BRDA:324,1,2,1100
BRDA:324,1,3,135426
BRDA:324,2,4,2052
BRDA:324,2,5,86292
BRDA:443,0,0,7212
BRDA:443,0,1,0
BRDA:443,1,2,1108
BRDA:443,1,3,0
BRDA:443,2,4,1780
BRDA:443,2,5,0
BRDA:446,0,0,4626
BRDA:446,0,1,2586
BRDA:446,1,2,1108
BRDA:446,1,3,0
BRDA:446,2,4,1780
BRDA:446,2,5,0
BRDA:454,0,0,315354
BRDA:454,0,1,4626
BRDA:454,1,2,264824
BRDA:454,1,3,1108
BRDA:454,2,4,349900
BRDA:454,2,5,1780
BRDA:457,0,0,128088
BRDA:457,0,1,187266
BRDA:457,1,2,136526
BRDA:457,1,3,128298
BRDA:457,2,4,166498
BRDA:457,2,5,183402
BRF:35
BRH:33
LF:216
LH:215
end_of_record
SF:/home/user/sources/ethereum/evmone/lib/evmone_precompiles/keccak.c
FN:306,keccak.c:select_keccakf1600_implementation
FN:375,ethash_keccak256
FN:301,keccak.c:keccakf1600_bmi
FN:77,keccak.c:keccakf1600_implementation
FN:53,keccak.c:rol
FN:290,keccak.c:keccakf1600_generic
FN:321,keccak.c:keccak
FN:39,keccak.c:load_le
FNDA:4,keccak.c:select_keccakf1600_implementation
FNDA:44029873,ethash_keccak256
FNDA:64391490,keccak.c:keccakf1600_bmi
FNDA:64391490,keccak.c:keccakf1600_implementation
FNDA:44816477040,keccak.c:rol
FNDA:0,keccak.c:keccakf1600_generic
FNDA:44029873,keccak.c:keccak
FNDA:612789653,keccak.c:load_le
FNF:8
FNH:7
DA:34,832939018
DA:39,612789653
DA:45,612789653
DA:46,612789653
DA:47,612789653
DA:48,612789653
DA:53,44816477040
DA:54,44816477040
DA:55,44816477040
DA:77,64391490
DA:78,64391490
DA:79,64391490
DA:80,64391490
DA:81,64391490
DA:82,64391490
DA:84,64391490
DA:85,64391490
DA:86,64391490
DA:87,64391490
DA:88,64391490
DA:90,64391490
DA:92,64391490
DA:94,64391490
DA:95,64391490
DA:96,64391490
DA:97,64391490
DA:98,64391490
DA:99,64391490
DA:100,64391490
DA:101,64391490
DA:102,64391490
DA:103,64391490
DA:104,64391490
DA:105,64391490
DA:106,64391490
DA:107,64391490
DA:108,64391490
DA:109,64391490
DA:110,64391490
DA:111,64391490
DA:112,64391490
DA:113,64391490
DA:114,64391490
DA:115,64391490
DA:116,64391490
DA:117,64391490
DA:118,64391490
DA:120,837089370
DA:121,772697880
DA:124,772697880
DA:125,772697880
DA:126,772697880
DA:127,772697880
DA:128,772697880
DA:130,772697880
DA:131,772697880
DA:132,772697880
DA:133,772697880
DA:134,772697880
DA:136,772697880
DA:137,772697880
DA:138,772697880
DA:139,772697880
DA:140,772697880
DA:141,772697880
DA:142,772697880
DA:143,772697880
DA:144,772697880
DA:145,772697880
DA:147,772697880
DA:148,772697880
DA:149,772697880
DA:150,772697880
DA:151,772697880
DA:152,772697880
DA:153,772697880
DA:154,772697880
DA:155,772697880
DA:156,772697880
DA:158,772697880
DA:159,772697880
DA:160,772697880
DA:161,772697880
DA:162,772697880
DA:163,772697880
DA:164,772697880
DA:165,772697880
DA:166,772697880
DA:167,772697880
DA:169,772697880
DA:170,772697880
DA:171,772697880
DA:172,772697880
DA:173,772697880
DA:174,772697880
DA:175,772697880
DA:176,772697880
DA:177,772697880
DA:178,772697880
DA:180,772697880
DA:181,772697880
DA:182,772697880
DA:183,772697880
DA:184,772697880
DA:185,772697880
DA:186,772697880
DA:187,772697880
DA:188,772697880
DA:189,772697880
DA:194,772697880
DA:195,772697880
DA:196,772697880
DA:197,772697880
DA:198,772697880
DA:200,772697880
DA:201,772697880
DA:202,772697880
DA:203,772697880
DA:204,772697880
DA:206,772697880
DA:207,772697880
DA:208,772697880
DA:209,772697880
DA:210,772697880
DA:211,772697880
DA:212,772697880
DA:213,772697880
DA:214,772697880
DA:215,772697880
DA:217,772697880
DA:218,772697880
DA:219,772697880
DA:220,772697880
DA:221,772697880
DA:222,772697880
DA:223,772697880
DA:224,772697880
DA:225,772697880
DA:226,772697880
DA:228,772697880
DA:229,772697880
DA:230,772697880
DA:231,772697880
DA:232,772697880
DA:233,772697880
DA:234,772697880
DA:235,772697880
DA:236,772697880
DA:237,772697880
DA:239,772697880
DA:240,772697880
DA:241,772697880
DA:242,772697880
DA:243,772697880
DA:244,772697880
DA:245,772697880
DA:246,772697880
DA:247,772697880
DA:248,772697880
DA:250,772697880
DA:251,772697880
DA:252,772697880
DA:253,772697880
DA:254,772697880
DA:255,772697880
DA:256,772697880
DA:257,772697880
DA:258,772697880
DA:259,772697880
DA:260,772697880
DA:262,64391490
DA:263,64391490
DA:264,64391490
DA:265,64391490
DA:266,64391490
DA:267,64391490
DA:268,64391490
DA:269,64391490
DA:270,64391490
DA:271,64391490
DA:272,64391490
DA:273,64391490
DA:274,64391490
DA:275,64391490
DA:276,64391490
DA:277,64391490
DA:278,64391490
DA:279,64391490
DA:280,64391490
DA:281,64391490
DA:282,64391490
DA:283,64391490
DA:284,64391490
DA:285,64391490
DA:286,64391490
DA:287,64391490
DA:290,0
DA:291,0
DA:292,0
DA:301,64391490
DA:302,64391490
DA:303,64391490
DA:306,4
DA:309,4
DA:313,4
DA:314,4
DA:315,4
DA:321,44029873
DA:322,44029873
DA:323,44029873
DA:324,44029873
DA:326,44029873
DA:327,44029873
DA:328,44029873
DA:329,44029873
DA:331,44029873
DA:333,64391490
DA:334,20361617
DA:335,366509106
DA:336,346147489
DA:337,346147489
DA:338,346147489
DA:339,346147489
DA:341,20361617
DA:343,20361617
DA:344,20361617
DA:346,44029873
DA:348,310672037
DA:349,266642164
DA:350,266642164
DA:351,266642164
DA:352,266642164
DA:353,266642164
DA:354,266642164
DA:356,157452985
DA:357,113423112
DA:358,113423112
DA:359,113423112
DA:360,113423112
DA:361,113423112
DA:362,113423112
DA:363,44029873
DA:364,44029873
DA:366,44029873
DA:368,44029873
DA:370,220149365
DA:371,176119492
DA:372,44029873
DA:375,44029873
DA:376,44029873
DA:377,44029873
DA:378,44029873
DA:379,44029873
BRDA:120,0,0,772697880
BRDA:120,0,1,64391490
BRDA:313,0,0,4
BRDA:313,0,1,0
BRDA:313,1,2,4
BRDA:313,1,3,0
BRDA:333,0,0,20361617
BRDA:333,0,1,44029873
BRDA:335,0,0,346147489
BRDA:335,0,1,20361617
BRDA:348,0,0,266642164
BRDA:348,0,1,44029873
BRDA:356,0,0,113423112
BRDA:356,0,1,44029873
BRDA:370,0,0,176119492
BRDA:370,0,1,44029873
BRF:16
BRH:14
LF:252
LH:249
end_of_record
SF:/home/user/sources/ethereum/evmone/lib/evmone_precompiles/keccak.hpp
FN:12,_ZN6ethash9keccak256EPKhm
FNDA:44029873,_ZN6ethash9keccak256EPKhm
FNF:1
FNH:1
DA:12,44029873
DA:13,44029873
DA:14,44029873
BRF:0
BRH:0
LF:3
LH:3
end_of_record
SF:/home/user/sources/ethereum/evmone/lib/evmone_precompiles/kzg.cpp
FN:126,_ZN6evmone6crypto16kzg_verify_proofEPKSt4byteS3_S3_S3_S3_
FN:57,kzg.cpp:_ZN6evmone6crypto12_GLOBAL__N_115validate_scalarESt4spanIKSt4byteLm32EE
FN:65,kzg.cpp:_ZN6evmone6crypto12_GLOBAL__N_111validate_G1ESt4spanIKSt4byteLm48EE
FN:89,kzg.cpp:_ZN6evmone6crypto12_GLOBAL__N_14multERK7blst_p1RK11blst_scalar
FN:80,kzg.cpp:_ZN6evmone6crypto12_GLOBAL__N_113add_or_doubleERK14blst_p1_affineRK7blst_p1
FN:107,kzg.cpp:_ZN6evmone6crypto12_GLOBAL__N_14multERK7blst_p2RK11blst_scalar
FN:98,kzg.cpp:_ZN6evmone6crypto12_GLOBAL__N_113add_or_doubleERK14blst_p2_affineRK7blst_p2
FN:115,kzg.cpp:_ZN6evmone6crypto12_GLOBAL__N_115pairings_verifyERK14blst_p1_affineS4_RK14blst_p2_affine
FNDA:906,_ZN6evmone6crypto16kzg_verify_proofEPKSt4byteS3_S3_S3_S3_
FNDA:1734,kzg.cpp:_ZN6evmone6crypto12_GLOBAL__N_115validate_scalarESt4spanIKSt4byteLm32EE
FNDA:1626,kzg.cpp:_ZN6evmone6crypto12_GLOBAL__N_111validate_G1ESt4spanIKSt4byteLm48EE
FNDA:792,kzg.cpp:_ZN6evmone6crypto12_GLOBAL__N_14multERK7blst_p1RK11blst_scalar
FNDA:792,kzg.cpp:_ZN6evmone6crypto12_GLOBAL__N_113add_or_doubleERK14blst_p1_affineRK7blst_p1
FNDA:792,kzg.cpp:_ZN6evmone6crypto12_GLOBAL__N_14multERK7blst_p2RK11blst_scalar
FNDA:792,kzg.cpp:_ZN6evmone6crypto12_GLOBAL__N_113add_or_doubleERK14blst_p2_affineRK7blst_p2
FNDA:792,kzg.cpp:_ZN6evmone6crypto12_GLOBAL__N_115pairings_verifyERK14blst_p1_affineS4_RK14blst_p2_affine
FNF:8
FNH:8
DA:57,1734
DA:58,1734
DA:59,1734
DA:60,1734
DA:61,1734
DA:65,1626
DA:66,1626
DA:67,1626
DA:68,18
DA:72,1608
DA:73,12
DA:74,1596
DA:75,1608
DA:80,792
DA:81,792
DA:82,792
DA:83,792
DA:84,792
DA:85,792
DA:86,792
DA:89,792
DA:90,792
DA:91,792
DA:92,792
DA:93,792
DA:98,792
DA:99,792
DA:100,792
DA:101,792
DA:102,792
DA:103,792
DA:104,792
DA:107,792
DA:108,792
DA:109,792
DA:110,792
DA:111,792
DA:115,792
DA:116,792
DA:117,792
DA:118,792
DA:119,792
DA:120,792
DA:121,792
DA:126,906
DA:127,906
DA:128,906
DA:129,906
DA:130,906
DA:131,24
DA:135,882
DA:136,882
DA:137,30
DA:138,852
DA:139,852
DA:140,30
DA:146,822
DA:147,822
DA:148,18
DA:149,804
DA:150,804
DA:151,12
DA:154,792
DA:157,792
DA:160,792
DA:163,792
DA:166,792
DA:167,804
BRDA:60,0,0,1674
BRDA:60,0,1,60
BRDA:67,0,0,18
BRDA:67,0,1,1608
BRDA:72,0,0,12
BRDA:72,0,1,1596
BRDA:130,0,0,24
BRDA:130,0,1,882
BRDA:136,0,0,30
BRDA:136,0,1,852
BRDA:139,0,0,30
BRDA:139,0,1,822
BRDA:147,0,0,18
BRDA:147,0,1,804
BRDA:150,0,0,12
BRDA:150,0,1,792
BRF:16
BRH:16
LF:68
LH:68
end_of_record
SF:/home/user/sources/ethereum/evmone/lib/evmone_precompiles/modexp.cpp
FN:140,_ZN6evmone6crypto6modexpESt4spanIKhLm18446744073709551615EES3_S3_Ph
FN:145,modexp.cpp:_ZZN6evmone6crypto6modexpESt4spanIKhLm18446744073709551615EES3_S3_PhENK3$_0clIhEEDaT_
FN:107,modexp.cpp:_ZN12_GLOBAL__N_111modexp_implILm16EEEvSt4spanIKhLm18446744073709551615EES3_S3_Ph
FN:96,modexp.cpp:_ZN12_GLOBAL__N_14loadIN4intx4uintILj128EEEEET_St4spanIKhLm18446744073709551615EE
FN:23,modexp.cpp:_ZN12_GLOBAL__N_13ctzILj128EEEjRKN4intx4uintIXT_EEE
FN:39,modexp.cpp:_ZN12_GLOBAL__N_110modexp_oddIN4intx4uintILj128EEEEET_RKS4_St4spanIKhLm18446744073709551615EES6_
FN:60,modexp.cpp:_ZN12_GLOBAL__N_111modexp_pow2IN4intx4uintILj128EEEEET_RKS4_St4spanIKhLm18446744073709551615EEj
FN:82,modexp.cpp:_ZN12_GLOBAL__N_111modinv_pow2IN4intx4uintILj128EEEEET_RKS4_j
FN:15,modexp.cpp:_ZN12_GLOBAL__N_15truncILj128EEEvSt4spanIhLm18446744073709551615EERKN4intx4uintIXT_EEE
FN:107,modexp.cpp:_ZN12_GLOBAL__N_111modexp_implILm32EEEvSt4spanIKhLm18446744073709551615EES3_S3_Ph
FN:96,modexp.cpp:_ZN12_GLOBAL__N_14loadIN4intx4uintILj256EEEEET_St4spanIKhLm18446744073709551615EE
FN:23,modexp.cpp:_ZN12_GLOBAL__N_13ctzILj256EEEjRKN4intx4uintIXT_EEE
FN:39,modexp.cpp:_ZN12_GLOBAL__N_110modexp_oddIN4intx4uintILj256EEEEET_RKS4_St4spanIKhLm18446744073709551615EES6_
FN:60,modexp.cpp:_ZN12_GLOBAL__N_111modexp_pow2IN4intx4uintILj256EEEEET_RKS4_St4spanIKhLm18446744073709551615EEj
FN:82,modexp.cpp:_ZN12_GLOBAL__N_111modinv_pow2IN4intx4uintILj256EEEEET_RKS4_j
FN:15,modexp.cpp:_ZN12_GLOBAL__N_15truncILj256EEEvSt4spanIhLm18446744073709551615EERKN4intx4uintIXT_EEE
FN:107,modexp.cpp:_ZN12_GLOBAL__N_111modexp_implILm64EEEvSt4spanIKhLm18446744073709551615EES3_S3_Ph
FN:96,modexp.cpp:_ZN12_GLOBAL__N_14loadIN4intx4uintILj512EEEEET_St4spanIKhLm18446744073709551615EE
FN:23,modexp.cpp:_ZN12_GLOBAL__N_13ctzILj512EEEjRKN4intx4uintIXT_EEE
FN:39,modexp.cpp:_ZN12_GLOBAL__N_110modexp_oddIN4intx4uintILj512EEEEET_RKS4_St4spanIKhLm18446744073709551615EES6_
FN:60,modexp.cpp:_ZN12_GLOBAL__N_111modexp_pow2IN4intx4uintILj512EEEEET_RKS4_St4spanIKhLm18446744073709551615EEj
FN:82,modexp.cpp:_ZN12_GLOBAL__N_111modinv_pow2IN4intx4uintILj512EEEEET_RKS4_j
FN:15,modexp.cpp:_ZN12_GLOBAL__N_15truncILj512EEEvSt4spanIhLm18446744073709551615EERKN4intx4uintIXT_EEE
FN:107,modexp.cpp:_ZN12_GLOBAL__N_111modexp_implILm128EEEvSt4spanIKhLm18446744073709551615EES3_S3_Ph
FN:96,modexp.cpp:_ZN12_GLOBAL__N_14loadIN4intx4uintILj1024EEEEET_St4spanIKhLm18446744073709551615EE
FN:23,modexp.cpp:_ZN12_GLOBAL__N_13ctzILj1024EEEjRKN4intx4uintIXT_EEE
FN:39,modexp.cpp:_ZN12_GLOBAL__N_110modexp_oddIN4intx4uintILj1024EEEEET_RKS4_St4spanIKhLm18446744073709551615EES6_
FN:60,modexp.cpp:_ZN12_GLOBAL__N_111modexp_pow2IN4intx4uintILj1024EEEEET_RKS4_St4spanIKhLm18446744073709551615EEj
FN:82,modexp.cpp:_ZN12_GLOBAL__N_111modinv_pow2IN4intx4uintILj1024EEEEET_RKS4_j
FN:15,modexp.cpp:_ZN12_GLOBAL__N_15truncILj1024EEEvSt4spanIhLm18446744073709551615EERKN4intx4uintIXT_EEE
FN:107,modexp.cpp:_ZN12_GLOBAL__N_111modexp_implILm256EEEvSt4spanIKhLm18446744073709551615EES3_S3_Ph
FN:96,modexp.cpp:_ZN12_GLOBAL__N_14loadIN4intx4uintILj2048EEEEET_St4spanIKhLm18446744073709551615EE
FN:23,modexp.cpp:_ZN12_GLOBAL__N_13ctzILj2048EEEjRKN4intx4uintIXT_EEE
FN:39,modexp.cpp:_ZN12_GLOBAL__N_110modexp_oddIN4intx4uintILj2048EEEEET_RKS4_St4spanIKhLm18446744073709551615EES6_
FN:60,modexp.cpp:_ZN12_GLOBAL__N_111modexp_pow2IN4intx4uintILj2048EEEEET_RKS4_St4spanIKhLm18446744073709551615EEj
FN:82,modexp.cpp:_ZN12_GLOBAL__N_111modinv_pow2IN4intx4uintILj2048EEEEET_RKS4_j
FN:15,modexp.cpp:_ZN12_GLOBAL__N_15truncILj2048EEEvSt4spanIhLm18446744073709551615EERKN4intx4uintIXT_EEE
FN:107,modexp.cpp:_ZN12_GLOBAL__N_111modexp_implILm1024EEEvSt4spanIKhLm18446744073709551615EES3_S3_Ph
FN:96,modexp.cpp:_ZN12_GLOBAL__N_14loadIN4intx4uintILj8192EEEEET_St4spanIKhLm18446744073709551615EE
FN:23,modexp.cpp:_ZN12_GLOBAL__N_13ctzILj8192EEEjRKN4intx4uintIXT_EEE
FN:39,modexp.cpp:_ZN12_GLOBAL__N_110modexp_oddIN4intx4uintILj8192EEEEET_RKS4_St4spanIKhLm18446744073709551615EES6_
FN:60,modexp.cpp:_ZN12_GLOBAL__N_111modexp_pow2IN4intx4uintILj8192EEEEET_RKS4_St4spanIKhLm18446744073709551615EEj
FN:82,modexp.cpp:_ZN12_GLOBAL__N_111modinv_pow2IN4intx4uintILj8192EEEEET_RKS4_j
FN:15,modexp.cpp:_ZN12_GLOBAL__N_15truncILj8192EEEvSt4spanIhLm18446744073709551615EERKN4intx4uintIXT_EEE
FNDA:3111,_ZN6evmone6crypto6modexpESt4spanIKhLm18446744073709551615EES3_S3_Ph
FNDA:66889,modexp.cpp:_ZZN6evmone6crypto6modexpESt4spanIKhLm18446744073709551615EES3_S3_PhENK3$_0clIhEEDaT_
FNDA:874,modexp.cpp:_ZN12_GLOBAL__N_111modexp_implILm16EEEvSt4spanIKhLm18446744073709551615EES3_S3_Ph
FNDA:1748,modexp.cpp:_ZN12_GLOBAL__N_14loadIN4intx4uintILj128EEEEET_St4spanIKhLm18446744073709551615EE
FNDA:874,modexp.cpp:_ZN12_GLOBAL__N_13ctzILj128EEEjRKN4intx4uintIXT_EEE
FNDA:598,modexp.cpp:_ZN12_GLOBAL__N_110modexp_oddIN4intx4uintILj128EEEEET_RKS4_St4spanIKhLm18446744073709551615EES6_
FNDA:620,modexp.cpp:_ZN12_GLOBAL__N_111modexp_pow2IN4intx4uintILj128EEEEET_RKS4_St4spanIKhLm18446744073709551615EEj
FNDA:344,modexp.cpp:_ZN12_GLOBAL__N_111modinv_pow2IN4intx4uintILj128EEEEET_RKS4_j
FNDA:874,modexp.cpp:_ZN12_GLOBAL__N_15truncILj128EEEvSt4spanIhLm18446744073709551615EERKN4intx4uintIXT_EEE
FNDA:1198,modexp.cpp:_ZN12_GLOBAL__N_111modexp_implILm32EEEvSt4spanIKhLm18446744073709551615EES3_S3_Ph
FNDA:2396,modexp.cpp:_ZN12_GLOBAL__N_14loadIN4intx4uintILj256EEEEET_St4spanIKhLm18446744073709551615EE
FNDA:1198,modexp.cpp:_ZN12_GLOBAL__N_13ctzILj256EEEjRKN4intx4uintIXT_EEE
FNDA:846,modexp.cpp:_ZN12_GLOBAL__N_110modexp_oddIN4intx4uintILj256EEEEET_RKS4_St4spanIKhLm18446744073709551615EES6_
FNDA:606,modexp.cpp:_ZN12_GLOBAL__N_111modexp_pow2IN4intx4uintILj256EEEEET_RKS4_St4spanIKhLm18446744073709551615EEj
FNDA:254,modexp.cpp:_ZN12_GLOBAL__N_111modinv_pow2IN4intx4uintILj256EEEEET_RKS4_j
FNDA:1198,modexp.cpp:_ZN12_GLOBAL__N_15truncILj256EEEvSt4spanIhLm18446744073709551615EERKN4intx4uintIXT_EEE
FNDA:637,modexp.cpp:_ZN12_GLOBAL__N_111modexp_implILm64EEEvSt4spanIKhLm18446744073709551615EES3_S3_Ph
FNDA:1274,modexp.cpp:_ZN12_GLOBAL__N_14loadIN4intx4uintILj512EEEEET_St4spanIKhLm18446744073709551615EE
FNDA:637,modexp.cpp:_ZN12_GLOBAL__N_13ctzILj512EEEjRKN4intx4uintIXT_EEE
FNDA:573,modexp.cpp:_ZN12_GLOBAL__N_110modexp_oddIN4intx4uintILj512EEEEET_RKS4_St4spanIKhLm18446744073709551615EES6_
FNDA:254,modexp.cpp:_ZN12_GLOBAL__N_111modexp_pow2IN4intx4uintILj512EEEEET_RKS4_St4spanIKhLm18446744073709551615EEj
FNDA:190,modexp.cpp:_ZN12_GLOBAL__N_111modinv_pow2IN4intx4uintILj512EEEEET_RKS4_j
FNDA:637,modexp.cpp:_ZN12_GLOBAL__N_15truncILj512EEEvSt4spanIhLm18446744073709551615EERKN4intx4uintIXT_EEE
FNDA:86,modexp.cpp:_ZN12_GLOBAL__N_111modexp_implILm128EEEvSt4spanIKhLm18446744073709551615EES3_S3_Ph
FNDA:172,modexp.cpp:_ZN12_GLOBAL__N_14loadIN4intx4uintILj1024EEEEET_St4spanIKhLm18446744073709551615EE
FNDA:86,modexp.cpp:_ZN12_GLOBAL__N_13ctzILj1024EEEjRKN4intx4uintIXT_EEE
FNDA:64,modexp.cpp:_ZN12_GLOBAL__N_110modexp_oddIN4intx4uintILj1024EEEEET_RKS4_St4spanIKhLm18446744073709551615EES6_
FNDA:44,modexp.cpp:_ZN12_GLOBAL__N_111modexp_pow2IN4intx4uintILj1024EEEEET_RKS4_St4spanIKhLm18446744073709551615EEj
FNDA:22,modexp.cpp:_ZN12_GLOBAL__N_111modinv_pow2IN4intx4uintILj1024EEEEET_RKS4_j
FNDA:86,modexp.cpp:_ZN12_GLOBAL__N_15truncILj1024EEEvSt4spanIhLm18446744073709551615EERKN4intx4uintIXT_EEE
FNDA:114,modexp.cpp:_ZN12_GLOBAL__N_111modexp_implILm256EEEvSt4spanIKhLm18446744073709551615EES3_S3_Ph
FNDA:228,modexp.cpp:_ZN12_GLOBAL__N_14loadIN4intx4uintILj2048EEEEET_St4spanIKhLm18446744073709551615EE
FNDA:114,modexp.cpp:_ZN12_GLOBAL__N_13ctzILj2048EEEjRKN4intx4uintIXT_EEE
FNDA:92,modexp.cpp:_ZN12_GLOBAL__N_110modexp_oddIN4intx4uintILj2048EEEEET_RKS4_St4spanIKhLm18446744073709551615EES6_
FNDA:58,modexp.cpp:_ZN12_GLOBAL__N_111modexp_pow2IN4intx4uintILj2048EEEEET_RKS4_St4spanIKhLm18446744073709551615EEj
FNDA:36,modexp.cpp:_ZN12_GLOBAL__N_111modinv_pow2IN4intx4uintILj2048EEEEET_RKS4_j
FNDA:114,modexp.cpp:_ZN12_GLOBAL__N_15truncILj2048EEEvSt4spanIhLm18446744073709551615EERKN4intx4uintIXT_EEE
FNDA:202,modexp.cpp:_ZN12_GLOBAL__N_111modexp_implILm1024EEEvSt4spanIKhLm18446744073709551615EES3_S3_Ph
FNDA:404,modexp.cpp:_ZN12_GLOBAL__N_14loadIN4intx4uintILj8192EEEEET_St4spanIKhLm18446744073709551615EE
FNDA:202,modexp.cpp:_ZN12_GLOBAL__N_13ctzILj8192EEEjRKN4intx4uintIXT_EEE
FNDA:178,modexp.cpp:_ZN12_GLOBAL__N_110modexp_oddIN4intx4uintILj8192EEEEET_RKS4_St4spanIKhLm18446744073709551615EES6_
FNDA:64,modexp.cpp:_ZN12_GLOBAL__N_111modexp_pow2IN4intx4uintILj8192EEEEET_RKS4_St4spanIKhLm18446744073709551615EEj
FNDA:40,modexp.cpp:_ZN12_GLOBAL__N_111modinv_pow2IN4intx4uintILj8192EEEEET_RKS4_j
FNDA:202,modexp.cpp:_ZN12_GLOBAL__N_15truncILj8192EEEvSt4spanIhLm18446744073709551615EERKN4intx4uintIXT_EEE
FNF:9
FNH:9
DA:15,3111
DA:16,3111
DA:17,3111
DA:18,3111
DA:19,3111
DA:23,3111
DA:24,3111
DA:25,9539
DA:26,9539
DA:27,9539
DA:28,3111
DA:29,3111
DA:30,3111
DA:31,3111
DA:32,6428
DA:33,6428
DA:34,3111
DA:35,3111
DA:39,2351
DA:40,2351
DA:41,2351
DA:43,2351
DA:44,2351
DA:45,40686
DA:46,366174
DA:47,325488
DA:48,325488
DA:49,325488
DA:50,325488
DA:51,230399
DA:52,325488
DA:53,40686
DA:55,2351
DA:56,2351
DA:60,1646
DA:61,1646
DA:62,1646
DA:63,1646
DA:64,23594
DA:65,212346
DA:66,188752
DA:67,188752
DA:68,188752
DA:69,188752
DA:70,120162
DA:71,188752
DA:72,23594
DA:74,1646
DA:75,1646
DA:76,1646
DA:77,1646
DA:82,886
DA:83,886
DA:84,886
DA:85,225022
DA:86,224136
DA:87,224136
DA:88,224136
DA:89,224136
DA:90,224136
DA:91,886
DA:92,886
DA:96,6222
DA:97,6222
DA:98,6222
DA:99,6222
DA:100,6222
DA:101,6222
DA:102,6222
DA:107,3111
DA:108,3111
DA:109,3111
DA:110,3111
DA:112,3111
DA:113,3111
DA:114,1465
DA:115,1465
DA:116,1465
DA:117,1646
DA:118,760
DA:119,760
DA:120,760
DA:121,886
DA:122,886
DA:123,886
DA:124,886
DA:126,886
DA:128,886
DA:129,886
DA:130,886
DA:132,3111
DA:133,3111
DA:140,3111
DA:141,3111
DA:142,3111
DA:143,3111
DA:145,66889
DA:146,3111
DA:148,3111
DA:149,874
DA:150,2237
DA:151,1198
DA:152,1039
DA:153,637
DA:154,402
DA:155,86
DA:156,316
DA:157,114
DA:158,202
DA:159,202
DA:160,3111
BRDA:25,0,0,1478
BRDA:25,0,1,0
BRDA:25,1,2,746
BRDA:25,1,3,0
BRDA:25,2,4,1696
BRDA:25,2,5,0
BRDA:25,3,6,945
BRDA:25,3,7,0
BRDA:25,4,8,888
BRDA:25,4,9,0
BRDA:25,5,10,3786
BRDA:25,5,11,0
BRDA:27,0,0,1198
BRDA:27,0,1,498
BRDA:27,1,2,86
BRDA:27,1,3,660
BRDA:27,2,4,874
BRDA:27,2,5,14
BRDA:27,3,6,202
BRDA:27,3,7,3584
BRDA:27,4,8,114
BRDA:27,4,9,1364
BRDA:27,5,10,637
BRDA:27,5,11,308
BRDA:44,0,0,12852
BRDA:44,0,1,846
BRDA:44,1,2,5268
BRDA:44,1,3,573
BRDA:44,2,4,18514
BRDA:44,2,5,598
BRDA:44,3,6,226
BRDA:44,3,7,178
BRDA:44,4,8,3712
BRDA:44,4,9,92
BRDA:44,5,10,114
BRDA:44,5,11,64
BRDA:46,0,0,42144
BRDA:46,0,1,5268
BRDA:46,1,2,29696
BRDA:46,1,3,3712
BRDA:46,2,4,912
BRDA:46,2,5,114
BRDA:46,3,6,102816
BRDA:46,3,7,12852
BRDA:46,4,8,1808
BRDA:46,4,9,226
BRDA:46,5,10,148112
BRDA:46,5,11,18514
BRDA:50,0,0,74140
BRDA:50,0,1,28676
BRDA:50,1,2,284
BRDA:50,1,3,1524
BRDA:50,2,4,14998
BRDA:50,2,5,14698
BRDA:50,3,6,158
BRDA:50,3,7,754
BRDA:50,4,8,30923
BRDA:50,4,9,11221
BRDA:50,5,10,109896
BRDA:50,5,11,38216
BRDA:63,0,0,15640
BRDA:63,0,1,620
BRDA:63,1,2,3672
BRDA:63,1,3,58
BRDA:63,2,4,1096
BRDA:63,2,5,254
BRDA:63,3,6,88
BRDA:63,3,7,44
BRDA:63,4,8,2996
BRDA:63,4,9,606
BRDA:63,5,10,102
BRDA:63,5,11,64
BRDA:65,0,0,125120
BRDA:65,0,1,15640
BRDA:65,1,2,8768
BRDA:65,1,3,1096
BRDA:65,2,4,29376
BRDA:65,2,5,3672
BRDA:65,3,6,704
BRDA:65,3,7,88
BRDA:65,4,8,23968
BRDA:65,4,9,2996
BRDA:65,5,10,816
BRDA:65,5,11,102
BRDA:69,0,0,176
BRDA:69,0,1,528
BRDA:69,1,2,11060
BRDA:69,1,3,12908
BRDA:69,2,4,5552
BRDA:69,2,5,3216
BRDA:69,3,6,14988
BRDA:69,3,7,14388
BRDA:69,4,8,88196
BRDA:69,4,9,36924
BRDA:69,5,10,190
BRDA:69,5,11,626
BRDA:85,0,0,142268
BRDA:85,0,1,40
BRDA:85,1,2,44834
BRDA:85,1,3,36
BRDA:85,2,4,22264
BRDA:85,2,5,22
BRDA:85,3,6,2502
BRDA:85,3,7,344
BRDA:85,4,8,11196
BRDA:85,4,9,190
BRDA:85,5,10,1072
BRDA:85,5,11,254
BRDA:113,0,0,56
BRDA:113,0,1,58
BRDA:113,1,2,254
BRDA:113,1,3,620
BRDA:113,2,4,592
BRDA:113,2,5,606
BRDA:113,3,6,138
BRDA:113,3,7,64
BRDA:113,4,8,383
BRDA:113,4,9,254
BRDA:113,5,10,42
BRDA:113,5,11,44
BRDA:117,0,0,352
BRDA:117,0,1,254
BRDA:117,1,2,64
BRDA:117,1,3,190
BRDA:117,2,4,24
BRDA:117,2,5,40
BRDA:117,3,6,22
BRDA:117,3,7,22
BRDA:117,4,8,276
BRDA:117,4,9,344
BRDA:117,5,10,22
BRDA:117,5,11,36
BRDA:148,0,0,874
BRDA:148,0,1,2237
BRDA:150,0,0,1198
BRDA:150,0,1,1039
BRDA:152,0,0,637
BRDA:152,0,1,402
BRDA:154,0,0,86
BRDA:154,0,1,316
BRDA:156,0,0,114
BRDA:156,0,1,202
BRF:32
BRH:31
LF:110
LH:110
end_of_record
SF:/home/user/sources/ethereum/evmone/lib/evmone_precompiles/pairing/bn254/fields.hpp
FN:64,_ZN6evmmax5bn2548multiplyERKNS_3ecc12ExtFieldElemINS0_9Fq2ConfigEEES6_
FN:96,_ZN6evmmax5bn2548multiplyERKNS_3ecc12ExtFieldElemINS0_10Fq12ConfigEEES6_
FN:73,_ZN6evmmax5bn2548multiplyERKNS_3ecc12ExtFieldElemINS0_9Fq6ConfigEEES6_
FN:165,_ZN6evmmax5bn2547inverseERKNS_3ecc12ExtFieldElemINS0_10Fq12ConfigEEE
FN:138,_ZN6evmmax5bn2547inverseERKNS_3ecc12ExtFieldElemINS0_9Fq6ConfigEEE
FN:121,_ZN6evmmax5bn2547inverseERKNS_3ecc12ExtFieldElemINS0_9Fq2ConfigEEE
FN:115,_ZN6evmmax5bn2547inverseERKNS_3ecc13BaseFieldElemINS0_15BaseFieldConfigEEE
FNDA:7542774,_ZN6evmmax5bn2548multiplyERKNS_3ecc12ExtFieldElemINS0_9Fq2ConfigEEES6_
FNDA:35058,_ZN6evmmax5bn2548multiplyERKNS_3ecc12ExtFieldElemINS0_10Fq12ConfigEEES6_
FNDA:235494,_ZN6evmmax5bn2548multiplyERKNS_3ecc12ExtFieldElemINS0_9Fq6ConfigEEES6_
FNDA:516,_ZN6evmmax5bn2547inverseERKNS_3ecc12ExtFieldElemINS0_10Fq12ConfigEEE
FNDA:516,_ZN6evmmax5bn2547inverseERKNS_3ecc12ExtFieldElemINS0_9Fq6ConfigEEE
FNDA:516,_ZN6evmmax5bn2547inverseERKNS_3ecc12ExtFieldElemINS0_9Fq2ConfigEEE
FNDA:516,_ZN6evmmax5bn2547inverseERKNS_3ecc13BaseFieldElemINS0_15BaseFieldConfigEEE
FNF:7
FNH:7
DA:64,7542774
DA:65,7542774
DA:66,7542774
DA:67,7542774
DA:68,7542774
DA:69,7542774
DA:73,235494
DA:74,235494
DA:75,235494
DA:76,235494
DA:77,235494
DA:78,235494
DA:79,235494
DA:81,235494
DA:83,235494
DA:84,235494
DA:85,235494
DA:87,235494
DA:88,235494
DA:89,235494
DA:91,235494
DA:92,235494
DA:96,35058
DA:97,35058
DA:98,35058
DA:99,35058
DA:100,35058
DA:102,35058
DA:103,35058
DA:105,35058
DA:107,35058
DA:108,35058
DA:110,35058
DA:111,35058
DA:115,516
DA:116,516
DA:117,516
DA:121,516
DA:122,516
DA:123,516
DA:124,516
DA:125,516
DA:127,516
DA:128,516
DA:130,516
DA:131,516
DA:133,516
DA:134,516
DA:138,516
DA:139,516
DA:140,516
DA:141,516
DA:143,516
DA:145,516
DA:146,516
DA:147,516
DA:149,516
DA:150,516
DA:151,516
DA:153,516
DA:154,516
DA:155,516
DA:157,516
DA:158,516
DA:160,516
DA:161,516
DA:165,516
DA:166,516
DA:167,516
DA:169,516
DA:170,516
DA:172,516
DA:174,516
DA:175,516
DA:177,516
DA:178,516
DA:180,516
DA:181,516
BRF:0
BRH:0
LF:78
LH:78
end_of_record
SF:/home/user/sources/ethereum/evmone/lib/evmone_precompiles/pairing/bn254/pairing.cpp
FN:132,_ZN6evmmax5bn25413pairing_checkESt4spanIKSt4pairINS_3ecc5PointIN4intx4uintILj256EEEEENS4_IS2_IS7_S7_EEEELm18446744073709551615EE
FN:49,pairing.cpp:_ZN6evmmax5bn25412_GLOBAL__N_111miller_loopERKNS_3ecc5PointINS2_12ExtFieldElemINS0_9Fq2ConfigEEEEERKNS3_INS2_13BaseFieldElemINS0_15BaseFieldConfigEEEEE
FN:18,pairing.cpp:_ZN6evmmax5bn25412_GLOBAL__N_126multiply_by_lin_func_valueERNS_3ecc12ExtFieldElemINS0_10Fq12ConfigEEESt5arrayINS3_INS0_9Fq2ConfigEEELm3EERKNS2_13BaseFieldElemINS0_15BaseFieldConfigEEESF_
FN:96,pairing.cpp:_ZN6evmmax5bn25412_GLOBAL__N_19final_expERKNS_3ecc12ExtFieldElemINS0_10Fq12ConfigEEE
FNDA:1620,_ZN6evmmax5bn25413pairing_checkESt4spanIKSt4pairINS_3ecc5PointIN4intx4uintILj256EEEEENS4_IS2_IS7_S7_EEEELm18446744073709551615EE
FNDA:1002,pairing.cpp:_ZN6evmmax5bn25412_GLOBAL__N_111miller_loopERKNS_3ecc5PointINS2_12ExtFieldElemINS0_9Fq2ConfigEEEEERKNS3_INS2_13BaseFieldElemINS0_15BaseFieldConfigEEEEE
FNDA:87174,pairing.cpp:_ZN6evmmax5bn25412_GLOBAL__N_126multiply_by_lin_func_valueERNS_3ecc12ExtFieldElemINS0_10Fq12ConfigEEESt5arrayINS3_INS0_9Fq2ConfigEEELm3EERKNS2_13BaseFieldElemINS0_15BaseFieldConfigEEESF_
FNDA:516,pairing.cpp:_ZN6evmmax5bn25412_GLOBAL__N_19final_expERKNS_3ecc12ExtFieldElemINS0_10Fq12ConfigEEE
FNF:4
FNH:4
DA:18,87174
DA:19,87174
DA:20,87174
DA:22,87174
DA:23,87174
DA:24,87174
DA:26,87174
DA:27,87174
DA:28,87174
DA:29,87174
DA:30,87174
DA:31,87174
DA:32,87174
DA:33,87174
DA:34,87174
DA:35,87174
DA:36,87174
DA:37,87174
DA:38,87174
DA:49,1002
DA:50,1002
DA:51,1002
DA:52,1002
DA:53,1002
DA:54,1002
DA:55,1002
DA:57,65130
DA:58,64128
DA:59,64128
DA:60,64128
DA:61,64128
DA:63,64128
DA:64,9018
DA:65,9018
DA:66,9018
DA:67,9018
DA:68,55110
DA:69,12024
DA:70,12024
DA:71,12024
DA:72,12024
DA:73,64128
DA:74,64128
DA:78,1002
DA:82,1002
DA:84,1002
DA:85,1002
DA:87,1002
DA:88,1002
DA:90,1002
DA:91,1002
DA:96,516
DA:97,516
DA:98,516
DA:100,516
DA:101,516
DA:103,516
DA:105,516
DA:106,516
DA:107,516
DA:108,516
DA:109,516
DA:110,516
DA:111,516
DA:112,516
DA:113,516
DA:114,516
DA:115,516
DA:116,516
DA:117,516
DA:119,516
DA:120,516
DA:121,516
DA:122,516
DA:123,516
DA:124,516
DA:125,516
DA:126,516
DA:127,516
DA:128,516
DA:132,1620
DA:133,1620
DA:134,306
DA:136,1314
DA:138,1314
DA:139,2052
DA:140,2052
DA:141,2052
DA:142,2052
DA:143,132
DA:144,132
DA:145,132
DA:148,1920
DA:149,1920
DA:150,1920
DA:152,1920
DA:153,1920
DA:156,1920
DA:157,108
DA:161,1812
DA:162,558
DA:165,1254
DA:166,1002
DA:167,1254
DA:170,516
DA:171,1314
BRDA:57,0,0,64128
BRDA:57,0,1,1002
BRDA:63,0,0,9018
BRDA:63,0,1,55110
BRDA:68,0,0,12024
BRDA:68,0,1,43086
BRDA:133,0,0,306
BRDA:133,0,1,1314
BRDA:138,0,0,2052
BRDA:138,0,1,516
BRDA:140,0,0,36
BRDA:140,0,1,2016
BRDA:140,1,2,6
BRDA:140,1,3,2010
BRDA:140,2,4,30
BRDA:140,2,5,1980
BRDA:141,0,0,6
BRDA:141,0,1,1974
BRDA:141,1,2,30
BRDA:141,1,3,1944
BRDA:142,0,0,24
BRDA:142,0,1,1920
BRDA:156,0,0,1584
BRDA:156,0,1,336
BRDA:156,1,2,108
BRDA:156,1,3,1476
BRDA:161,0,0,1602
BRDA:161,0,1,210
BRDA:161,1,2,84
BRDA:161,1,3,1518
BRDA:161,2,4,474
BRDA:161,2,5,1044
BRDA:165,0,0,1146
BRDA:165,0,1,108
BRDA:165,1,2,1002
BRDA:165,1,3,144
BRF:36
BRH:36
LF:106
LH:106
end_of_record
SF:/home/user/sources/ethereum/evmone/lib/evmone_precompiles/pairing/bn254/utils.hpp
FN:72,_ZN6evmmax5bn25416is_field_elementERKN4intx4uintILj256EEE
FN:98,_ZN6evmmax5bn25411is_infinityERKNS_3ecc5PointINS1_13BaseFieldElemINS0_15BaseFieldConfigEEEEE
FN:104,_ZN6evmmax5bn25414g2_is_infinityERKNS_3ecc5PointINS1_12ExtFieldElemINS0_9Fq2ConfigEEEEE
FN:78,_ZN6evmmax5bn25411is_on_curveERKNS_3ecc5PointINS1_13BaseFieldElemINS0_15BaseFieldConfigEEEEE
FN:89,_ZN6evmmax5bn25419is_on_twisted_curveERKNS_3ecc5PointINS1_12ExtFieldElemINS0_9Fq2ConfigEEEEE
FN:326,_ZN6evmmax5bn25417g2_subgroup_checkERKNS_3ecc5PointINS1_12ExtFieldElemINS0_9Fq2ConfigEEEEE
FN:288,_ZN6evmmax5bn2548mul_by_XERKNS_3ecc8JacPointINS1_12ExtFieldElemINS0_9Fq2ConfigEEEEE
FN:277,_ZN6evmmax5bn2545n_dblILi6EEENS_3ecc8JacPointINS2_12ExtFieldElemINS0_9Fq2ConfigEEEEERKS7_
FN:277,_ZN6evmmax5bn2545n_dblILi7EEENS_3ecc8JacPointINS2_12ExtFieldElemINS0_9Fq2ConfigEEEEERKS7_
FN:277,_ZN6evmmax5bn2545n_dblILi8EEENS_3ecc8JacPointINS2_12ExtFieldElemINS0_9Fq2ConfigEEEEERKS7_
FN:277,_ZN6evmmax5bn2545n_dblILi10EEENS_3ecc8JacPointINS2_12ExtFieldElemINS0_9Fq2ConfigEEEEERKS7_
FN:212,_ZN6evmmax5bn2543addERKNS_3ecc8JacPointINS1_12ExtFieldElemINS0_9Fq2ConfigEEEEES8_
FN:249,_ZN6evmmax5bn2543dblERKNS_3ecc8JacPointINS1_12ExtFieldElemINS0_9Fq2ConfigEEEEE
FN:120,_ZN6evmmax5bn25412endomorphismILi1EEENS_3ecc8JacPointINS2_12ExtFieldElemINS0_9Fq2ConfigEEEEERKS7_QooeqT_Li1EeqT_Li3E
FN:134,_ZN6evmmax5bn25412endomorphismILi2EEENS_3ecc8JacPointINS2_12ExtFieldElemINS0_9Fq2ConfigEEEEERKS7_QeqT_Li2E
FN:348,_ZN6evmmax5bn25416lin_func_and_dblERKNS_3ecc8JacPointINS1_12ExtFieldElemINS0_9Fq2ConfigEEEEERSt5arrayIS5_Lm3EE
FN:441,_ZN6evmmax5bn2546squareERKNS_3ecc12ExtFieldElemINS0_10Fq12ConfigEEE
FN:382,_ZN6evmmax5bn25416lin_func_and_addERKNS_3ecc8JacPointINS1_12ExtFieldElemINS0_9Fq2ConfigEEEEERKNS1_5PointIS5_EERSt5arrayIS5_Lm3EE
FN:148,_ZN6evmmax5bn25412endomorphismILi1EEENS_3ecc5PointINS2_12ExtFieldElemINS0_9Fq2ConfigEEEEERKS7_QooeqT_Li1EeqT_Li3E
FN:161,_ZN6evmmax5bn25412endomorphismILi2EEENS_3ecc5PointINS2_12ExtFieldElemINS0_9Fq2ConfigEEEEERKS7_QeqT_Li2E
FN:420,_ZN6evmmax5bn2548lin_funcERKNS_3ecc8JacPointINS1_12ExtFieldElemINS0_9Fq2ConfigEEEEERKNS1_5PointIS5_EERSt5arrayIS5_Lm3EE
FN:193,_ZN6evmmax5bn25412endomorphismILi2EEENS_3ecc12ExtFieldElemINS0_10Fq12ConfigEEERKS5_QeqT_Li2E
FN:520,_ZN6evmmax5bn25419cyclotomic_pow_to_XERKNS_3ecc12ExtFieldElemINS0_10Fq12ConfigEEE
FN:509,_ZN6evmmax5bn25419n_cyclotomic_squareILi6EEENS_3ecc12ExtFieldElemINS0_10Fq12ConfigEEERKS5_
FN:509,_ZN6evmmax5bn25419n_cyclotomic_squareILi7EEENS_3ecc12ExtFieldElemINS0_10Fq12ConfigEEERKS5_
FN:509,_ZN6evmmax5bn25419n_cyclotomic_squareILi8EEENS_3ecc12ExtFieldElemINS0_10Fq12ConfigEEERKS5_
FN:509,_ZN6evmmax5bn25419n_cyclotomic_squareILi10EEENS_3ecc12ExtFieldElemINS0_10Fq12ConfigEEERKS5_
FN:173,_ZN6evmmax5bn25412endomorphismILi1EEENS_3ecc12ExtFieldElemINS0_10Fq12ConfigEEERKS5_QooeqT_Li1EeqT_Li3E
FN:173,_ZN6evmmax5bn25412endomorphismILi3EEENS_3ecc12ExtFieldElemINS0_10Fq12ConfigEEERKS5_QooeqT_Li1EeqT_Li3E
FN:477,_ZN6evmmax5bn25417cyclotomic_squareERKNS_3ecc12ExtFieldElemINS0_10Fq12ConfigEEE
FN:460,_ZN6evmmax5bn25410fq4_squareERKSt4pairINS_3ecc12ExtFieldElemINS0_9Fq2ConfigEEES5_E
FNDA:11976,_ZN6evmmax5bn25416is_field_elementERKN4intx4uintILj256EEE
FNDA:1920,_ZN6evmmax5bn25411is_infinityERKNS_3ecc5PointINS1_13BaseFieldElemINS0_15BaseFieldConfigEEEEE
FNDA:1920,_ZN6evmmax5bn25414g2_is_infinityERKNS_3ecc5PointINS1_12ExtFieldElemINS0_9Fq2ConfigEEEEE
FNDA:1584,_ZN6evmmax5bn25411is_on_curveERKNS_3ecc5PointINS1_13BaseFieldElemINS0_15BaseFieldConfigEEEEE
FNDA:1602,_ZN6evmmax5bn25419is_on_twisted_curveERKNS_3ecc5PointINS1_12ExtFieldElemINS0_9Fq2ConfigEEEEE
FNDA:1518,_ZN6evmmax5bn25417g2_subgroup_checkERKNS_3ecc5PointINS1_12ExtFieldElemINS0_9Fq2ConfigEEEEE
FNDA:1518,_ZN6evmmax5bn2548mul_by_XERKNS_3ecc8JacPointINS1_12ExtFieldElemINS0_9Fq2ConfigEEEEE
FNDA:6072,_ZN6evmmax5bn2545n_dblILi6EEENS_3ecc8JacPointINS2_12ExtFieldElemINS0_9Fq2ConfigEEEEERKS7_
FNDA:1518,_ZN6evmmax5bn2545n_dblILi7EEENS_3ecc8JacPointINS2_12ExtFieldElemINS0_9Fq2ConfigEEEEERKS7_
FNDA:3036,_ZN6evmmax5bn2545n_dblILi8EEENS_3ecc8JacPointINS2_12ExtFieldElemINS0_9Fq2ConfigEEEEERKS7_
FNDA:1518,_ZN6evmmax5bn2545n_dblILi10EEENS_3ecc8JacPointINS2_12ExtFieldElemINS0_9Fq2ConfigEEEEERKS7_
FNDA:30360,_ZN6evmmax5bn2543addERKNS_3ecc8JacPointINS1_12ExtFieldElemINS0_9Fq2ConfigEEEEES8_
FNDA:95634,_ZN6evmmax5bn2543dblERKNS_3ecc8JacPointINS1_12ExtFieldElemINS0_9Fq2ConfigEEEEE
FNDA:4554,_ZN6evmmax5bn25412endomorphismILi1EEENS_3ecc8JacPointINS2_12ExtFieldElemINS0_9Fq2ConfigEEEEERKS7_QooeqT_Li1EeqT_Li3E
FNDA:1518,_ZN6evmmax5bn25412endomorphismILi2EEENS_3ecc8JacPointINS2_12ExtFieldElemINS0_9Fq2ConfigEEEEERKS7_QeqT_Li2E
FNDA:64128,_ZN6evmmax5bn25416lin_func_and_dblERKNS_3ecc8JacPointINS1_12ExtFieldElemINS0_9Fq2ConfigEEEEERSt5arrayIS5_Lm3EE
FNDA:64128,_ZN6evmmax5bn2546squareERKNS_3ecc12ExtFieldElemINS0_10Fq12ConfigEEE
FNDA:22044,_ZN6evmmax5bn25416lin_func_and_addERKNS_3ecc8JacPointINS1_12ExtFieldElemINS0_9Fq2ConfigEEEEERKNS1_5PointIS5_EERSt5arrayIS5_Lm3EE
FNDA:1002,_ZN6evmmax5bn25412endomorphismILi1EEENS_3ecc5PointINS2_12ExtFieldElemINS0_9Fq2ConfigEEEEERKS7_QooeqT_Li1EeqT_Li3E
FNDA:1002,_ZN6evmmax5bn25412endomorphismILi2EEENS_3ecc5PointINS2_12ExtFieldElemINS0_9Fq2ConfigEEEEERKS7_QeqT_Li2E
FNDA:1002,_ZN6evmmax5bn2548lin_funcERKNS_3ecc8JacPointINS1_12ExtFieldElemINS0_9Fq2ConfigEEEEERKNS1_5PointIS5_EERSt5arrayIS5_Lm3EE
FNDA:1548,_ZN6evmmax5bn25412endomorphismILi2EEENS_3ecc12ExtFieldElemINS0_10Fq12ConfigEEERKS5_QeqT_Li2E
FNDA:1548,_ZN6evmmax5bn25419cyclotomic_pow_to_XERKNS_3ecc12ExtFieldElemINS0_10Fq12ConfigEEE
FNDA:6192,_ZN6evmmax5bn25419n_cyclotomic_squareILi6EEENS_3ecc12ExtFieldElemINS0_10Fq12ConfigEEERKS5_
FNDA:1548,_ZN6evmmax5bn25419n_cyclotomic_squareILi7EEENS_3ecc12ExtFieldElemINS0_10Fq12ConfigEEERKS5_
FNDA:3096,_ZN6evmmax5bn25419n_cyclotomic_squareILi8EEENS_3ecc12ExtFieldElemINS0_10Fq12ConfigEEERKS5_
FNDA:1548,_ZN6evmmax5bn25419n_cyclotomic_squareILi10EEENS_3ecc12ExtFieldElemINS0_10Fq12ConfigEEERKS5_
FNDA:2064,_ZN6evmmax5bn25412endomorphismILi1EEENS_3ecc12ExtFieldElemINS0_10Fq12ConfigEEERKS5_QooeqT_Li1EeqT_Li3E
FNDA:516,_ZN6evmmax5bn25412endomorphismILi3EEENS_3ecc12ExtFieldElemINS0_10Fq12ConfigEEERKS5_QooeqT_Li1EeqT_Li3E
FNDA:98040,_ZN6evmmax5bn25417cyclotomic_squareERKNS_3ecc12ExtFieldElemINS0_10Fq12ConfigEEE
FNDA:294120,_ZN6evmmax5bn25410fq4_squareERKSt4pairINS_3ecc12ExtFieldElemINS0_9Fq2ConfigEEES5_E
FNF:24
FNH:24
DA:72,11976
DA:73,11976
DA:74,11976
DA:78,1584
DA:80,1584
DA:82,1584
DA:83,1584
DA:84,1584
DA:85,1584
DA:89,1602
DA:90,1602
DA:91,1602
DA:93,1602
DA:94,1602
DA:98,1920
DA:99,1920
DA:100,1920
DA:104,1920
DA:105,1920
DA:106,1920
DA:120,4554
DA:121,4554
DA:122,4554
DA:123,4554
DA:124,4554
DA:125,4554
DA:126,4554
DA:134,1518
DA:135,1518
DA:136,1518
DA:137,1518
DA:138,1518
DA:139,1518
DA:140,1518
DA:148,1002
DA:149,1002
DA:150,1002
DA:151,1002
DA:152,1002
DA:153,1002
DA:161,1002
DA:162,1002
DA:163,1002
DA:164,1002
DA:165,1002
DA:166,1002
DA:173,2580
DA:174,2580
DA:175,2580
DA:176,2580
DA:177,2580
DA:178,2580
DA:179,2580
DA:180,2580
DA:181,2580
DA:182,2580
DA:183,2580
DA:184,2580
DA:185,2580
DA:186,2580
DA:193,1548
DA:194,1548
DA:195,1548
DA:196,1548
DA:197,1548
DA:198,1548
DA:199,1548
DA:200,1548
DA:201,1548
DA:202,1548
DA:203,1548
DA:204,1548
DA:205,1548
DA:206,1548
DA:212,30360
DA:213,30360
DA:214,30360
DA:215,30360
DA:217,30360
DA:218,30360
DA:219,30360
DA:221,30360
DA:222,30360
DA:224,30360
DA:225,30360
DA:227,30360
DA:228,30360
DA:229,30360
DA:230,30360
DA:231,30360
DA:232,30360
DA:234,30360
DA:235,30360
DA:236,30360
DA:238,30360
DA:240,30360
DA:241,30360
DA:242,30360
DA:244,30360
DA:245,30360
DA:249,95634
DA:250,95634
DA:251,95634
DA:252,95634
DA:254,95634
DA:255,95634
DA:256,95634
DA:257,95634
DA:258,95634
DA:260,95634
DA:261,95634
DA:262,95634
DA:263,95634
DA:265,95634
DA:267,95634
DA:268,95634
DA:269,95634
DA:271,95634
DA:272,95634
DA:277,12144
DA:278,12144
DA:279,86526
DA:280,74382
DA:282,12144
DA:283,12144
DA:288,1518
DA:289,1518
DA:290,1518
DA:291,1518
DA:292,1518
DA:293,1518
DA:294,1518
DA:295,1518
DA:296,1518
DA:297,1518
DA:298,1518
DA:299,1518
DA:300,1518
DA:301,1518
DA:302,1518
DA:303,1518
DA:304,1518
DA:305,1518
DA:306,1518
DA:307,1518
DA:308,1518
DA:309,1518
DA:310,1518
DA:311,1518
DA:312,1518
DA:313,1518
DA:314,1518
DA:315,1518
DA:316,1518
DA:317,1518
DA:318,1518
DA:320,1518
DA:321,1518
DA:326,1518
DA:327,1518
DA:329,1518
DA:330,1518
DA:331,1518
DA:333,1518
DA:334,1518
DA:335,1518
DA:337,1518
DA:339,1518
DA:340,1518
DA:348,64128
DA:349,64128
DA:350,64128
DA:351,64128
DA:353,64128
DA:354,64128
DA:355,64128
DA:356,64128
DA:357,64128
DA:359,64128
DA:360,64128
DA:361,64128
DA:362,64128
DA:364,64128
DA:366,64128
DA:367,64128
DA:368,64128
DA:370,64128
DA:371,64128
DA:372,64128
DA:374,64128
DA:375,64128
DA:382,22044
DA:383,22044
DA:384,22044
DA:385,22044
DA:387,22044
DA:388,22044
DA:390,22044
DA:391,22044
DA:393,22044
DA:394,22044
DA:395,22044
DA:396,22044
DA:398,22044
DA:399,22044
DA:400,22044
DA:402,22044
DA:404,22044
DA:405,22044
DA:406,22044
DA:408,22044
DA:409,22044
DA:410,22044
DA:412,22044
DA:413,22044
DA:420,1002
DA:421,1002
DA:422,1002
DA:423,1002
DA:425,1002
DA:426,1002
DA:428,1002
DA:429,1002
DA:431,1002
DA:432,1002
DA:434,1002
DA:435,1002
DA:436,1002
DA:437,1002
DA:441,64128
DA:442,64128
DA:444,64128
DA:445,64128
DA:446,64128
DA:447,64128
DA:448,64128
DA:449,64128
DA:450,64128
DA:451,64128
DA:452,64128
DA:454,64128
DA:455,64128
DA:460,294120
DA:461,294120
DA:462,294120
DA:464,294120
DA:465,294120
DA:467,294120
DA:468,294120
DA:469,294120
DA:471,294120
DA:472,294120
DA:477,98040
DA:478,98040
DA:479,98040
DA:481,98040
DA:482,98040
DA:483,98040
DA:485,98040
DA:486,98040
DA:487,98040
DA:489,98040
DA:490,98040
DA:491,98040
DA:493,98040
DA:495,98040
DA:496,98040
DA:497,98040
DA:499,98040
DA:500,98040
DA:501,98040
DA:503,98040
DA:504,98040
DA:509,12384
DA:510,12384
DA:511,100620
DA:512,88236
DA:514,12384
DA:515,12384
DA:520,1548
DA:521,1548
DA:522,1548
DA:523,1548
DA:524,1548
DA:525,1548
DA:526,1548
DA:527,1548
DA:528,1548
DA:529,1548
DA:530,1548
DA:531,1548
DA:532,1548
DA:533,1548
DA:534,1548
DA:535,1548
DA:536,1548
DA:537,1548
DA:538,1548
DA:539,1548
DA:540,1548
DA:541,1548
DA:542,1548
DA:543,1548
DA:544,1548
DA:545,1548
DA:546,1548
DA:547,1548
DA:548,1548
DA:549,1548
DA:550,1548
DA:552,1548
DA:553,1548
BRDA:99,0,0,360
BRDA:99,0,1,1560
BRDA:99,1,2,336
BRDA:99,1,3,24
BRDA:105,0,0,276
BRDA:105,0,1,1644
BRDA:105,1,2,264
BRDA:105,1,3,12
BRDA:279,0,0,30360
BRDA:279,0,1,6072
BRDA:279,1,2,9108
BRDA:279,1,3,1518
BRDA:279,2,4,21252
BRDA:279,2,5,3036
BRDA:279,3,6,13662
BRDA:279,3,7,1518
BRDA:511,0,0,37152
BRDA:511,0,1,6192
BRDA:511,1,2,10836
BRDA:511,1,3,1548
BRDA:511,2,4,24768
BRDA:511,2,5,3096
BRDA:511,3,6,15480
BRDA:511,3,7,1548
BRF:12
BRH:12
LF:312
LH:312
end_of_record
SF:/home/user/sources/ethereum/evmone/lib/evmone_precompiles/pairing/field_template.hpp
FN:97,_ZN6evmmax3ecc12ExtFieldElemINS_5bn25410Fq12ConfigEE3oneEv
FN:82,_ZN6evmmax3ecc12ExtFieldElemINS_5bn25410Fq12ConfigEEC2Ev
FN:82,_ZN6evmmax3ecc12ExtFieldElemINS_5bn2549Fq6ConfigEEC2Ev
FN:82,_ZN6evmmax3ecc12ExtFieldElemINS_5bn2549Fq2ConfigEEC2Ev
FN:23,_ZN6evmmax3ecc13BaseFieldElemINS_5bn25415BaseFieldConfigEEC2Ev
FN:97,_ZN6evmmax3ecc12ExtFieldElemINS_5bn2549Fq6ConfigEE3oneEv
FN:97,_ZN6evmmax3ecc12ExtFieldElemINS_5bn2549Fq2ConfigEE3oneEv
FN:38,_ZN6evmmax3ecc13BaseFieldElemINS_5bn25415BaseFieldConfigEE3oneEv
FN:25,_ZN6evmmax3ecc13BaseFieldElemINS_5bn25415BaseFieldConfigEEC2ERKN4intx4uintILj256EEE
FN:28,_ZN6evmmax3ecc13BaseFieldElemINS_5bn25415BaseFieldConfigEE8from_intERKN4intx4uintILj256EEE
FN:86,_ZN6evmmax3ecc12ExtFieldElemINS_5bn2549Fq2ConfigEEC2ERKSt5arrayINS0_13BaseFieldElemINS2_15BaseFieldConfigEEELm2EE
FN:36,_ZNK6evmmax3ecc13BaseFieldElemINS_5bn25415BaseFieldConfigEE7is_zeroEv
FN:137,_ZN6evmmax3ecceqERKNS0_12ExtFieldElemINS_5bn2549Fq2ConfigEEES6_
FN:66,_ZN6evmmax3ecceqERKNS0_13BaseFieldElemINS_5bn25415BaseFieldConfigEEES6_
FN:103,_ZN6evmmax3ecc12ExtFieldElemINS_5bn2549Fq2ConfigEE4zeroEv
FN:56,_ZN6evmmax3eccmlERKNS0_13BaseFieldElemINS_5bn25415BaseFieldConfigEEES6_
FN:44,_ZN6evmmax3eccplERKNS0_13BaseFieldElemINS_5bn25415BaseFieldConfigEEES6_
FN:132,_ZN6evmmax3eccmlERKNS0_12ExtFieldElemINS_5bn2549Fq2ConfigEEES6_
FN:50,_ZN6evmmax3eccmiERKNS0_13BaseFieldElemINS_5bn25415BaseFieldConfigEEES6_
FN:108,_ZN6evmmax3eccplERKNS0_12ExtFieldElemINS_5bn2549Fq2ConfigEEES6_
FN:116,_ZN6evmmax3eccmiERKNS0_12ExtFieldElemINS_5bn2549Fq2ConfigEEES6_
FN:89,_ZNK6evmmax3ecc12ExtFieldElemINS_5bn2549Fq2ConfigEE9conjugateEv
FN:61,_ZN6evmmax3eccngERKNS0_13BaseFieldElemINS_5bn25415BaseFieldConfigEEE
FN:132,_ZN6evmmax3eccmlERKNS0_12ExtFieldElemINS_5bn25410Fq12ConfigEEES6_
FN:132,_ZN6evmmax3eccmlERKNS0_12ExtFieldElemINS_5bn2549Fq6ConfigEEES6_
FN:108,_ZN6evmmax3eccplERKNS0_12ExtFieldElemINS_5bn2549Fq6ConfigEEES6_
FN:86,_ZN6evmmax3ecc12ExtFieldElemINS_5bn2549Fq6ConfigEEC2ERKSt5arrayINS1_INS2_9Fq2ConfigEEELm3EE
FN:116,_ZN6evmmax3eccmiERKNS0_12ExtFieldElemINS_5bn2549Fq6ConfigEEES6_
FN:86,_ZN6evmmax3ecc12ExtFieldElemINS_5bn25410Fq12ConfigEEC2ERKSt5arrayINS1_INS2_9Fq6ConfigEEELm2EE
FN:124,_ZN6evmmax3eccngERKNS0_12ExtFieldElemINS_5bn2549Fq2ConfigEEE
FN:140,_ZN6evmmax3eccmlERKNS0_12ExtFieldElemINS_5bn2549Fq2ConfigEEERKNS0_13BaseFieldElemINS2_15BaseFieldConfigEEE
FN:137,_ZN6evmmax3ecceqERKNS0_12ExtFieldElemINS_5bn25410Fq12ConfigEEES6_
FN:137,_ZN6evmmax3ecceqERKNS0_12ExtFieldElemINS_5bn2549Fq6ConfigEEES6_
FN:89,_ZNK6evmmax3ecc12ExtFieldElemINS_5bn25410Fq12ConfigEE9conjugateEv
FN:124,_ZN6evmmax3eccngERKNS0_12ExtFieldElemINS_5bn2549Fq6ConfigEEE
FN:105,_ZNK6evmmax3ecc12ExtFieldElemINS_5bn25410Fq12ConfigEE3invEv
FN:105,_ZNK6evmmax3ecc12ExtFieldElemINS_5bn2549Fq6ConfigEE3invEv
FN:105,_ZNK6evmmax3ecc12ExtFieldElemINS_5bn2549Fq2ConfigEE3invEv
FN:34,_ZNK6evmmax3ecc13BaseFieldElemINS_5bn25415BaseFieldConfigEE3invEv
FN:32,_ZNK6evmmax3ecc13BaseFieldElemINS_5bn25415BaseFieldConfigEE5valueEv
FNDA:2832,_ZN6evmmax3ecc12ExtFieldElemINS_5bn25410Fq12ConfigEE3oneEv
FNDA:2832,_ZN6evmmax3ecc12ExtFieldElemINS_5bn25410Fq12ConfigEEC2Ev
FNDA:8496,_ZN6evmmax3ecc12ExtFieldElemINS_5bn2549Fq6ConfigEEC2Ev
FNDA:46878,_ZN6evmmax3ecc12ExtFieldElemINS_5bn2549Fq2ConfigEEC2Ev
FNDA:119436,_ZN6evmmax3ecc13BaseFieldElemINS_5bn25415BaseFieldConfigEEC2Ev
FNDA:2832,_ZN6evmmax3ecc12ExtFieldElemINS_5bn2549Fq6ConfigEE3oneEv
FNDA:5352,_ZN6evmmax3ecc12ExtFieldElemINS_5bn2549Fq2ConfigEE3oneEv
FNDA:5352,_ZN6evmmax3ecc13BaseFieldElemINS_5bn25415BaseFieldConfigEE3oneEv
FNDA:71325000,_ZN6evmmax3ecc13BaseFieldElemINS_5bn25415BaseFieldConfigEEC2ERKN4intx4uintILj256EEE
FNDA:11520,_ZN6evmmax3ecc13BaseFieldElemINS_5bn25415BaseFieldConfigEE8from_intERKN4intx4uintILj256EEE
FNDA:20408622,_ZN6evmmax3ecc12ExtFieldElemINS_5bn2549Fq2ConfigEEC2ERKSt5arrayINS0_13BaseFieldElemINS2_15BaseFieldConfigEEELm2EE
FNDA:2280,_ZNK6evmmax3ecc13BaseFieldElemINS_5bn25415BaseFieldConfigEE7is_zeroEv
FNDA:9066,_ZN6evmmax3ecceqERKNS0_12ExtFieldElemINS_5bn2549Fq2ConfigEEES6_
FNDA:17544,_ZN6evmmax3ecceqERKNS0_13BaseFieldElemINS_5bn25415BaseFieldConfigEEES6_
FNDA:2196,_ZN6evmmax3ecc12ExtFieldElemINS_5bn2549Fq2ConfigEE4zeroEv
FNDA:30526608,_ZN6evmmax3eccmlERKNS0_13BaseFieldElemINS_5bn25415BaseFieldConfigEEES6_
FNDA:24260766,_ZN6evmmax3eccplERKNS0_13BaseFieldElemINS_5bn25415BaseFieldConfigEEES6_
FNDA:7542774,_ZN6evmmax3eccmlERKNS0_12ExtFieldElemINS_5bn2549Fq2ConfigEEES6_
FNDA:16461894,_ZN6evmmax3eccmiERKNS0_13BaseFieldElemINS_5bn25415BaseFieldConfigEEES6_
FNDA:8357946,_ZN6evmmax3eccplERKNS0_12ExtFieldElemINS_5bn2549Fq2ConfigEEES6_
FNDA:4459560,_ZN6evmmax3eccmiERKNS0_12ExtFieldElemINS_5bn2549Fq2ConfigEEES6_
FNDA:31146,_ZNK6evmmax3ecc12ExtFieldElemINS_5bn2549Fq2ConfigEE9conjugateEv
FNDA:58344,_ZN6evmmax3eccngERKNS0_13BaseFieldElemINS_5bn25415BaseFieldConfigEEE
FNDA:35058,_ZN6evmmax3eccmlERKNS0_12ExtFieldElemINS_5bn25410Fq12ConfigEEES6_
FNDA:235494,_ZN6evmmax3eccmlERKNS0_12ExtFieldElemINS_5bn2549Fq6ConfigEEES6_
FNDA:297558,_ZN6evmmax3eccplERKNS0_12ExtFieldElemINS_5bn2549Fq6ConfigEEES6_
FNDA:1104234,_ZN6evmmax3ecc12ExtFieldElemINS_5bn2549Fq6ConfigEEC2ERKSt5arrayINS1_INS2_9Fq2ConfigEEELm3EE
FNDA:198888,_ZN6evmmax3eccmiERKNS0_12ExtFieldElemINS_5bn2549Fq6ConfigEEES6_
FNDA:204966,_ZN6evmmax3ecc12ExtFieldElemINS_5bn25410Fq12ConfigEEC2ERKSt5arrayINS1_INS2_9Fq6ConfigEEELm2EE
FNDA:12840,_ZN6evmmax3eccngERKNS0_12ExtFieldElemINS_5bn2549Fq2ConfigEEE
FNDA:174348,_ZN6evmmax3eccmlERKNS0_12ExtFieldElemINS_5bn2549Fq2ConfigEEERKNS0_13BaseFieldElemINS2_15BaseFieldConfigEEE
FNDA:516,_ZN6evmmax3ecceqERKNS0_12ExtFieldElemINS_5bn25410Fq12ConfigEEES6_
FNDA:954,_ZN6evmmax3ecceqERKNS0_12ExtFieldElemINS_5bn2549Fq6ConfigEEES6_
FNDA:3096,_ZNK6evmmax3ecc12ExtFieldElemINS_5bn25410Fq12ConfigEE9conjugateEv
FNDA:3612,_ZN6evmmax3eccngERKNS0_12ExtFieldElemINS_5bn2549Fq6ConfigEEE
FNDA:516,_ZNK6evmmax3ecc12ExtFieldElemINS_5bn25410Fq12ConfigEE3invEv
FNDA:516,_ZNK6evmmax3ecc12ExtFieldElemINS_5bn2549Fq6ConfigEE3invEv
FNDA:516,_ZNK6evmmax3ecc12ExtFieldElemINS_5bn2549Fq2ConfigEE3invEv
FNDA:516,_ZNK6evmmax3ecc13BaseFieldElemINS_5bn25415BaseFieldConfigEE3invEv
FNDA:516,_ZNK6evmmax3ecc13BaseFieldElemINS_5bn25415BaseFieldConfigEE5valueEv
FNF:24
FNH:24
DA:23,119436
DA:25,71325000
DA:28,11520
DA:29,11520
DA:30,11520
DA:32,516
DA:34,516
DA:36,2280
DA:38,5352
DA:44,24260766
DA:45,24260766
DA:46,24260766
DA:50,16461894
DA:51,16461894
DA:52,16461894
DA:56,30526608
DA:57,30526608
DA:58,30526608
DA:61,58344
DA:62,58344
DA:63,58344
DA:66,17544
DA:82,58206
DA:86,21717822
DA:89,34242
DA:90,34242
DA:91,68484
DA:92,34242
DA:93,34242
DA:94,34242
DA:97,11016
DA:98,11016
DA:99,11016
DA:100,11016
DA:101,11016
DA:103,2196
DA:105,1548
DA:108,8655504
DA:109,8655504
DA:110,26264070
DA:111,17608566
DA:112,8655504
DA:113,8655504
DA:116,4658448
DA:117,4658448
DA:118,14174232
DA:119,9515784
DA:120,4658448
DA:121,4658448
DA:124,16452
DA:125,16452
DA:126,52968
DA:127,36516
DA:128,16452
DA:129,16452
DA:132,7813326
DA:133,7813326
DA:134,7813326
DA:137,10536
DA:140,174348
DA:141,174348
DA:142,174348
DA:143,348696
DA:144,174348
DA:145,174348
BRDA:91,0,0,31146
BRDA:91,0,1,31146
BRDA:91,1,2,3096
BRDA:91,1,3,3096
BRDA:110,0,0,16715892
BRDA:110,0,1,8357946
BRDA:110,1,2,892674
BRDA:110,1,3,297558
BRDA:118,0,0,8919120
BRDA:118,0,1,4459560
BRDA:118,1,2,596664
BRDA:118,1,3,198888
BRDA:126,0,0,25680
BRDA:126,0,1,12840
BRDA:126,1,2,10836
BRDA:126,1,3,3612
BRDA:142,0,0,348696
BRDA:142,0,1,174348
BRF:10
BRH:10
LF:65
LH:65
end_of_record
SF:/home/user/sources/ethereum/evmone/lib/evmone_precompiles/ripemd160.cpp
FN:193,_ZN6evmone6crypto9ripemd160EPSt4bytePKS1_m
FN:181,ripemd160.cpp:_ZN6evmone6crypto12_GLOBAL__N_18compressERSt5arrayIjLm5EEPKSt4byte
FN:176,ripemd160.cpp:_ZN6evmone6crypto12_GLOBAL__N_15stepsIJLm0ELm1ELm2ELm3ELm4ELm5ELm6ELm7ELm8ELm9ELm10ELm11ELm12ELm13ELm14ELm15ELm16ELm17ELm18ELm19ELm20ELm21ELm22ELm23ELm24ELm25ELm26ELm27ELm28ELm29ELm30ELm31ELm32ELm33ELm34ELm35ELm36ELm37ELm38ELm39ELm40ELm41ELm42ELm43ELm44ELm45ELm46ELm47ELm48ELm49ELm50ELm51ELm52ELm53ELm54ELm55ELm56ELm57ELm58ELm59ELm60ELm61ELm62ELm63ELm64ELm65ELm66ELm67ELm68ELm69ELm70ELm71ELm72ELm73ELm74ELm75ELm76ELm77ELm78ELm79EEEEvPSt5arrayIjLm5EEPKSt4byteSt16integer_sequenceImJXspT_EEE
FN:145,ripemd160.cpp:_ZN6evmone6crypto12_GLOBAL__N_14stepILm0EEEvPSt5arrayIjLm5EEPKSt4byte
FN:52,ripemd160.cpp:_ZNK6evmone6crypto12_GLOBAL__N_13$_0clEjjj
FN:64,ripemd160.cpp:_ZNK6evmone6crypto12_GLOBAL__N_13$_1clEjjj
FN:132,ripemd160.cpp:_ZN6evmone6crypto12_GLOBAL__N_17load_leIjEET_PKSt4byte
FN:124,ripemd160.cpp:_ZN6evmone6crypto12_GLOBAL__N_15to_leITkSt8integraljEEDaT_
FN:145,ripemd160.cpp:_ZN6evmone6crypto12_GLOBAL__N_14stepILm1EEEvPSt5arrayIjLm5EEPKSt4byte
FN:145,ripemd160.cpp:_ZN6evmone6crypto12_GLOBAL__N_14stepILm2EEEvPSt5arrayIjLm5EEPKSt4byte
FN:145,ripemd160.cpp:_ZN6evmone6crypto12_GLOBAL__N_14stepILm3EEEvPSt5arrayIjLm5EEPKSt4byte
FN:145,ripemd160.cpp:_ZN6evmone6crypto12_GLOBAL__N_14stepILm4EEEvPSt5arrayIjLm5EEPKSt4byte
FN:145,ripemd160.cpp:_ZN6evmone6crypto12_GLOBAL__N_14stepILm5EEEvPSt5arrayIjLm5EEPKSt4byte
FN:145,ripemd160.cpp:_ZN6evmone6crypto12_GLOBAL__N_14stepILm6EEEvPSt5arrayIjLm5EEPKSt4byte
FN:145,ripemd160.cpp:_ZN6evmone6crypto12_GLOBAL__N_14stepILm7EEEvPSt5arrayIjLm5EEPKSt4byte
FN:145,ripemd160.cpp:_ZN6evmone6crypto12_GLOBAL__N_14stepILm8EEEvPSt5arrayIjLm5EEPKSt4byte
FN:145,ripemd160.cpp:_ZN6evmone6crypto12_GLOBAL__N_14stepILm9EEEvPSt5arrayIjLm5EEPKSt4byte
FN:145,ripemd160.cpp:_ZN6evmone6crypto12_GLOBAL__N_14stepILm10EEEvPSt5arrayIjLm5EEPKSt4byte
FN:145,ripemd160.cpp:_ZN6evmone6crypto12_GLOBAL__N_14stepILm11EEEvPSt5arrayIjLm5EEPKSt4byte
FN:145,ripemd160.cpp:_ZN6evmone6crypto12_GLOBAL__N_14stepILm12EEEvPSt5arrayIjLm5EEPKSt4byte
FN:145,ripemd160.cpp:_ZN6evmone6crypto12_GLOBAL__N_14stepILm13EEEvPSt5arrayIjLm5EEPKSt4byte
FN:145,ripemd160.cpp:_ZN6evmone6crypto12_GLOBAL__N_14stepILm14EEEvPSt5arrayIjLm5EEPKSt4byte
FN:145,ripemd160.cpp:_ZN6evmone6crypto12_GLOBAL__N_14stepILm15EEEvPSt5arrayIjLm5EEPKSt4byte
FN:145,ripemd160.cpp:_ZN6evmone6crypto12_GLOBAL__N_14stepILm16EEEvPSt5arrayIjLm5EEPKSt4byte
FN:55,ripemd160.cpp:_ZNK6evmone6crypto12_GLOBAL__N_13$_2clEjjj
FN:61,ripemd160.cpp:_ZNK6evmone6crypto12_GLOBAL__N_13$_3clEjjj
FN:145,ripemd160.cpp:_ZN6evmone6crypto12_GLOBAL__N_14stepILm17EEEvPSt5arrayIjLm5EEPKSt4byte
FN:145,ripemd160.cpp:_ZN6evmone6crypto12_GLOBAL__N_14stepILm18EEEvPSt5arrayIjLm5EEPKSt4byte
FN:145,ripemd160.cpp:_ZN6evmone6crypto12_GLOBAL__N_14stepILm19EEEvPSt5arrayIjLm5EEPKSt4byte
FN:145,ripemd160.cpp:_ZN6evmone6crypto12_GLOBAL__N_14stepILm20EEEvPSt5arrayIjLm5EEPKSt4byte
FN:145,ripemd160.cpp:_ZN6evmone6crypto12_GLOBAL__N_14stepILm21EEEvPSt5arrayIjLm5EEPKSt4byte
FN:145,ripemd160.cpp:_ZN6evmone6crypto12_GLOBAL__N_14stepILm22EEEvPSt5arrayIjLm5EEPKSt4byte
FN:145,ripemd160.cpp:_ZN6evmone6crypto12_GLOBAL__N_14stepILm23EEEvPSt5arrayIjLm5EEPKSt4byte
FN:145,ripemd160.cpp:_ZN6evmone6crypto12_GLOBAL__N_14stepILm24EEEvPSt5arrayIjLm5EEPKSt4byte
FN:145,ripemd160.cpp:_ZN6evmone6crypto12_GLOBAL__N_14stepILm25EEEvPSt5arrayIjLm5EEPKSt4byte
FN:145,ripemd160.cpp:_ZN6evmone6crypto12_GLOBAL__N_14stepILm26EEEvPSt5arrayIjLm5EEPKSt4byte
FN:145,ripemd160.cpp:_ZN6evmone6crypto12_GLOBAL__N_14stepILm27EEEvPSt5arrayIjLm5EEPKSt4byte
FN:145,ripemd160.cpp:_ZN6evmone6crypto12_GLOBAL__N_14stepILm28EEEvPSt5arrayIjLm5EEPKSt4byte
FN:145,ripemd160.cpp:_ZN6evmone6crypto12_GLOBAL__N_14stepILm29EEEvPSt5arrayIjLm5EEPKSt4byte
FN:145,ripemd160.cpp:_ZN6evmone6crypto12_GLOBAL__N_14stepILm30EEEvPSt5arrayIjLm5EEPKSt4byte
FN:145,ripemd160.cpp:_ZN6evmone6crypto12_GLOBAL__N_14stepILm31EEEvPSt5arrayIjLm5EEPKSt4byte
FN:145,ripemd160.cpp:_ZN6evmone6crypto12_GLOBAL__N_14stepILm32EEEvPSt5arrayIjLm5EEPKSt4byte
FN:58,ripemd160.cpp:_ZNK6evmone6crypto12_GLOBAL__N_13$_4clEjjj
FN:145,ripemd160.cpp:_ZN6evmone6crypto12_GLOBAL__N_14stepILm33EEEvPSt5arrayIjLm5EEPKSt4byte
FN:145,ripemd160.cpp:_ZN6evmone6crypto12_GLOBAL__N_14stepILm34EEEvPSt5arrayIjLm5EEPKSt4byte
FN:145,ripemd160.cpp:_ZN6evmone6crypto12_GLOBAL__N_14stepILm35EEEvPSt5arrayIjLm5EEPKSt4byte
FN:145,ripemd160.cpp:_ZN6evmone6crypto12_GLOBAL__N_14stepILm36EEEvPSt5arrayIjLm5EEPKSt4byte
FN:145,ripemd160.cpp:_ZN6evmone6crypto12_GLOBAL__N_14stepILm37EEEvPSt5arrayIjLm5EEPKSt4byte
FN:145,ripemd160.cpp:_ZN6evmone6crypto12_GLOBAL__N_14stepILm38EEEvPSt5arrayIjLm5EEPKSt4byte
FN:145,ripemd160.cpp:_ZN6evmone6crypto12_GLOBAL__N_14stepILm39EEEvPSt5arrayIjLm5EEPKSt4byte
FN:145,ripemd160.cpp:_ZN6evmone6crypto12_GLOBAL__N_14stepILm40EEEvPSt5arrayIjLm5EEPKSt4byte
FN:145,ripemd160.cpp:_ZN6evmone6crypto12_GLOBAL__N_14stepILm41EEEvPSt5arrayIjLm5EEPKSt4byte
FN:145,ripemd160.cpp:_ZN6evmone6crypto12_GLOBAL__N_14stepILm42EEEvPSt5arrayIjLm5EEPKSt4byte
FN:145,ripemd160.cpp:_ZN6evmone6crypto12_GLOBAL__N_14stepILm43EEEvPSt5arrayIjLm5EEPKSt4byte
FN:145,ripemd160.cpp:_ZN6evmone6crypto12_GLOBAL__N_14stepILm44EEEvPSt5arrayIjLm5EEPKSt4byte
FN:145,ripemd160.cpp:_ZN6evmone6crypto12_GLOBAL__N_14stepILm45EEEvPSt5arrayIjLm5EEPKSt4byte
FN:145,ripemd160.cpp:_ZN6evmone6crypto12_GLOBAL__N_14stepILm46EEEvPSt5arrayIjLm5EEPKSt4byte
FN:145,ripemd160.cpp:_ZN6evmone6crypto12_GLOBAL__N_14stepILm47EEEvPSt5arrayIjLm5EEPKSt4byte
FN:145,ripemd160.cpp:_ZN6evmone6crypto12_GLOBAL__N_14stepILm48EEEvPSt5arrayIjLm5EEPKSt4byte
FN:145,ripemd160.cpp:_ZN6evmone6crypto12_GLOBAL__N_14stepILm49EEEvPSt5arrayIjLm5EEPKSt4byte
FN:145,ripemd160.cpp:_ZN6evmone6crypto12_GLOBAL__N_14stepILm50EEEvPSt5arrayIjLm5EEPKSt4byte
FN:145,ripemd160.cpp:_ZN6evmone6crypto12_GLOBAL__N_14stepILm51EEEvPSt5arrayIjLm5EEPKSt4byte
FN:145,ripemd160.cpp:_ZN6evmone6crypto12_GLOBAL__N_14stepILm52EEEvPSt5arrayIjLm5EEPKSt4byte
FN:145,ripemd160.cpp:_ZN6evmone6crypto12_GLOBAL__N_14stepILm53EEEvPSt5arrayIjLm5EEPKSt4byte
FN:145,ripemd160.cpp:_ZN6evmone6crypto12_GLOBAL__N_14stepILm54EEEvPSt5arrayIjLm5EEPKSt4byte
FN:145,ripemd160.cpp:_ZN6evmone6crypto12_GLOBAL__N_14stepILm55EEEvPSt5arrayIjLm5EEPKSt4byte
FN:145,ripemd160.cpp:_ZN6evmone6crypto12_GLOBAL__N_14stepILm56EEEvPSt5arrayIjLm5EEPKSt4byte
FN:145,ripemd160.cpp:_ZN6evmone6crypto12_GLOBAL__N_14stepILm57EEEvPSt5arrayIjLm5EEPKSt4byte
FN:145,ripemd160.cpp:_ZN6evmone6crypto12_GLOBAL__N_14stepILm58EEEvPSt5arrayIjLm5EEPKSt4byte
FN:145,ripemd160.cpp:_ZN6evmone6crypto12_GLOBAL__N_14stepILm59EEEvPSt5arrayIjLm5EEPKSt4byte
FN:145,ripemd160.cpp:_ZN6evmone6crypto12_GLOBAL__N_14stepILm60EEEvPSt5arrayIjLm5EEPKSt4byte
FN:145,ripemd160.cpp:_ZN6evmone6crypto12_GLOBAL__N_14stepILm61EEEvPSt5arrayIjLm5EEPKSt4byte
FN:145,ripemd160.cpp:_ZN6evmone6crypto12_GLOBAL__N_14stepILm62EEEvPSt5arrayIjLm5EEPKSt4byte
FN:145,ripemd160.cpp:_ZN6evmone6crypto12_GLOBAL__N_14stepILm63EEEvPSt5arrayIjLm5EEPKSt4byte
FN:145,ripemd160.cpp:_ZN6evmone6crypto12_GLOBAL__N_14stepILm64EEEvPSt5arrayIjLm5EEPKSt4byte
FN:145,ripemd160.cpp:_ZN6evmone6crypto12_GLOBAL__N_14stepILm65EEEvPSt5arrayIjLm5EEPKSt4byte
FN:145,ripemd160.cpp:_ZN6evmone6crypto12_GLOBAL__N_14stepILm66EEEvPSt5arrayIjLm5EEPKSt4byte
FN:145,ripemd160.cpp:_ZN6evmone6crypto12_GLOBAL__N_14stepILm67EEEvPSt5arrayIjLm5EEPKSt4byte
FN:145,ripemd160.cpp:_ZN6evmone6crypto12_GLOBAL__N_14stepILm68EEEvPSt5arrayIjLm5EEPKSt4byte
FN:145,ripemd160.cpp:_ZN6evmone6crypto12_GLOBAL__N_14stepILm69EEEvPSt5arrayIjLm5EEPKSt4byte
FN:145,ripemd160.cpp:_ZN6evmone6crypto12_GLOBAL__N_14stepILm70EEEvPSt5arrayIjLm5EEPKSt4byte
FN:145,ripemd160.cpp:_ZN6evmone6crypto12_GLOBAL__N_14stepILm71EEEvPSt5arrayIjLm5EEPKSt4byte
FN:145,ripemd160.cpp:_ZN6evmone6crypto12_GLOBAL__N_14stepILm72EEEvPSt5arrayIjLm5EEPKSt4byte
FN:145,ripemd160.cpp:_ZN6evmone6crypto12_GLOBAL__N_14stepILm73EEEvPSt5arrayIjLm5EEPKSt4byte
FN:145,ripemd160.cpp:_ZN6evmone6crypto12_GLOBAL__N_14stepILm74EEEvPSt5arrayIjLm5EEPKSt4byte
FN:145,ripemd160.cpp:_ZN6evmone6crypto12_GLOBAL__N_14stepILm75EEEvPSt5arrayIjLm5EEPKSt4byte
FN:145,ripemd160.cpp:_ZN6evmone6crypto12_GLOBAL__N_14stepILm76EEEvPSt5arrayIjLm5EEPKSt4byte
FN:145,ripemd160.cpp:_ZN6evmone6crypto12_GLOBAL__N_14stepILm77EEEvPSt5arrayIjLm5EEPKSt4byte
FN:145,ripemd160.cpp:_ZN6evmone6crypto12_GLOBAL__N_14stepILm78EEEvPSt5arrayIjLm5EEPKSt4byte
FN:145,ripemd160.cpp:_ZN6evmone6crypto12_GLOBAL__N_14stepILm79EEEvPSt5arrayIjLm5EEPKSt4byte
FN:139,ripemd160.cpp:_ZN6evmone6crypto12_GLOBAL__N_18store_leITkSt8integralmEEPSt4byteS4_T_
FN:124,ripemd160.cpp:_ZN6evmone6crypto12_GLOBAL__N_15to_leITkSt8integralmEEDaT_
FN:139,ripemd160.cpp:_ZN6evmone6crypto12_GLOBAL__N_18store_leITkSt8integraljEEPSt4byteS4_T_
FNDA:1166,_ZN6evmone6crypto9ripemd160EPSt4bytePKS1_m
FNDA:5772,ripemd160.cpp:_ZN6evmone6crypto12_GLOBAL__N_18compressERSt5arrayIjLm5EEPKSt4byte
FNDA:5772,ripemd160.cpp:_ZN6evmone6crypto12_GLOBAL__N_15stepsIJLm0ELm1ELm2ELm3ELm4ELm5ELm6ELm7ELm8ELm9ELm10ELm11ELm12ELm13ELm14ELm15ELm16ELm17ELm18ELm19ELm20ELm21ELm22ELm23ELm24ELm25ELm26ELm27ELm28ELm29ELm30ELm31ELm32ELm33ELm34ELm35ELm36ELm37ELm38ELm39ELm40ELm41ELm42ELm43ELm44ELm45ELm46ELm47ELm48ELm49ELm50ELm51ELm52ELm53ELm54ELm55ELm56ELm57ELm58ELm59ELm60ELm61ELm62ELm63ELm64ELm65ELm66ELm67ELm68ELm69ELm70ELm71ELm72ELm73ELm74ELm75ELm76ELm77ELm78ELm79EEEEvPSt5arrayIjLm5EEPKSt4byteSt16integer_sequenceImJXspT_EEE
FNDA:5772,ripemd160.cpp:_ZN6evmone6crypto12_GLOBAL__N_14stepILm0EEEvPSt5arrayIjLm5EEPKSt4byte
FNDA:184704,ripemd160.cpp:_ZNK6evmone6crypto12_GLOBAL__N_13$_0clEjjj
FNDA:184704,ripemd160.cpp:_ZNK6evmone6crypto12_GLOBAL__N_13$_1clEjjj
FNDA:923520,ripemd160.cpp:_ZN6evmone6crypto12_GLOBAL__N_17load_leIjEET_PKSt4byte
FNDA:929350,ripemd160.cpp:_ZN6evmone6crypto12_GLOBAL__N_15to_leITkSt8integraljEEDaT_
FNDA:5772,ripemd160.cpp:_ZN6evmone6crypto12_GLOBAL__N_14stepILm1EEEvPSt5arrayIjLm5EEPKSt4byte
FNDA:5772,ripemd160.cpp:_ZN6evmone6crypto12_GLOBAL__N_14stepILm2EEEvPSt5arrayIjLm5EEPKSt4byte
FNDA:5772,ripemd160.cpp:_ZN6evmone6crypto12_GLOBAL__N_14stepILm3EEEvPSt5arrayIjLm5EEPKSt4byte
FNDA:5772,ripemd160.cpp:_ZN6evmone6crypto12_GLOBAL__N_14stepILm4EEEvPSt5arrayIjLm5EEPKSt4byte
FNDA:5772,ripemd160.cpp:_ZN6evmone6crypto12_GLOBAL__N_14stepILm5EEEvPSt5arrayIjLm5EEPKSt4byte
FNDA:5772,ripemd160.cpp:_ZN6evmone6crypto12_GLOBAL__N_14stepILm6EEEvPSt5arrayIjLm5EEPKSt4byte
FNDA:5772,ripemd160.cpp:_ZN6evmone6crypto12_GLOBAL__N_14stepILm7EEEvPSt5arrayIjLm5EEPKSt4byte
FNDA:5772,ripemd160.cpp:_ZN6evmone6crypto12_GLOBAL__N_14stepILm8EEEvPSt5arrayIjLm5EEPKSt4byte
FNDA:5772,ripemd160.cpp:_ZN6evmone6crypto12_GLOBAL__N_14stepILm9EEEvPSt5arrayIjLm5EEPKSt4byte
FNDA:5772,ripemd160.cpp:_ZN6evmone6crypto12_GLOBAL__N_14stepILm10EEEvPSt5arrayIjLm5EEPKSt4byte
FNDA:5772,ripemd160.cpp:_ZN6evmone6crypto12_GLOBAL__N_14stepILm11EEEvPSt5arrayIjLm5EEPKSt4byte
FNDA:5772,ripemd160.cpp:_ZN6evmone6crypto12_GLOBAL__N_14stepILm12EEEvPSt5arrayIjLm5EEPKSt4byte
FNDA:5772,ripemd160.cpp:_ZN6evmone6crypto12_GLOBAL__N_14stepILm13EEEvPSt5arrayIjLm5EEPKSt4byte
FNDA:5772,ripemd160.cpp:_ZN6evmone6crypto12_GLOBAL__N_14stepILm14EEEvPSt5arrayIjLm5EEPKSt4byte
FNDA:5772,ripemd160.cpp:_ZN6evmone6crypto12_GLOBAL__N_14stepILm15EEEvPSt5arrayIjLm5EEPKSt4byte
FNDA:5772,ripemd160.cpp:_ZN6evmone6crypto12_GLOBAL__N_14stepILm16EEEvPSt5arrayIjLm5EEPKSt4byte
FNDA:184704,ripemd160.cpp:_ZNK6evmone6crypto12_GLOBAL__N_13$_2clEjjj
FNDA:184704,ripemd160.cpp:_ZNK6evmone6crypto12_GLOBAL__N_13$_3clEjjj
FNDA:5772,ripemd160.cpp:_ZN6evmone6crypto12_GLOBAL__N_14stepILm17EEEvPSt5arrayIjLm5EEPKSt4byte
FNDA:5772,ripemd160.cpp:_ZN6evmone6crypto12_GLOBAL__N_14stepILm18EEEvPSt5arrayIjLm5EEPKSt4byte
FNDA:5772,ripemd160.cpp:_ZN6evmone6crypto12_GLOBAL__N_14stepILm19EEEvPSt5arrayIjLm5EEPKSt4byte
FNDA:5772,ripemd160.cpp:_ZN6evmone6crypto12_GLOBAL__N_14stepILm20EEEvPSt5arrayIjLm5EEPKSt4byte
FNDA:5772,ripemd160.cpp:_ZN6evmone6crypto12_GLOBAL__N_14stepILm21EEEvPSt5arrayIjLm5EEPKSt4byte
FNDA:5772,ripemd160.cpp:_ZN6evmone6crypto12_GLOBAL__N_14stepILm22EEEvPSt5arrayIjLm5EEPKSt4byte
FNDA:5772,ripemd160.cpp:_ZN6evmone6crypto12_GLOBAL__N_14stepILm23EEEvPSt5arrayIjLm5EEPKSt4byte
FNDA:5772,ripemd160.cpp:_ZN6evmone6crypto12_GLOBAL__N_14stepILm24EEEvPSt5arrayIjLm5EEPKSt4byte
FNDA:5772,ripemd160.cpp:_ZN6evmone6crypto12_GLOBAL__N_14stepILm25EEEvPSt5arrayIjLm5EEPKSt4byte
FNDA:5772,ripemd160.cpp:_ZN6evmone6crypto12_GLOBAL__N_14stepILm26EEEvPSt5arrayIjLm5EEPKSt4byte
FNDA:5772,ripemd160.cpp:_ZN6evmone6crypto12_GLOBAL__N_14stepILm27EEEvPSt5arrayIjLm5EEPKSt4byte
FNDA:5772,ripemd160.cpp:_ZN6evmone6crypto12_GLOBAL__N_14stepILm28EEEvPSt5arrayIjLm5EEPKSt4byte
FNDA:5772,ripemd160.cpp:_ZN6evmone6crypto12_GLOBAL__N_14stepILm29EEEvPSt5arrayIjLm5EEPKSt4byte
FNDA:5772,ripemd160.cpp:_ZN6evmone6crypto12_GLOBAL__N_14stepILm30EEEvPSt5arrayIjLm5EEPKSt4byte
FNDA:5772,ripemd160.cpp:_ZN6evmone6crypto12_GLOBAL__N_14stepILm31EEEvPSt5arrayIjLm5EEPKSt4byte
FNDA:5772,ripemd160.cpp:_ZN6evmone6crypto12_GLOBAL__N_14stepILm32EEEvPSt5arrayIjLm5EEPKSt4byte
FNDA:184704,ripemd160.cpp:_ZNK6evmone6crypto12_GLOBAL__N_13$_4clEjjj
FNDA:5772,ripemd160.cpp:_ZN6evmone6crypto12_GLOBAL__N_14stepILm33EEEvPSt5arrayIjLm5EEPKSt4byte
FNDA:5772,ripemd160.cpp:_ZN6evmone6crypto12_GLOBAL__N_14stepILm34EEEvPSt5arrayIjLm5EEPKSt4byte
FNDA:5772,ripemd160.cpp:_ZN6evmone6crypto12_GLOBAL__N_14stepILm35EEEvPSt5arrayIjLm5EEPKSt4byte
FNDA:5772,ripemd160.cpp:_ZN6evmone6crypto12_GLOBAL__N_14stepILm36EEEvPSt5arrayIjLm5EEPKSt4byte
FNDA:5772,ripemd160.cpp:_ZN6evmone6crypto12_GLOBAL__N_14stepILm37EEEvPSt5arrayIjLm5EEPKSt4byte
FNDA:5772,ripemd160.cpp:_ZN6evmone6crypto12_GLOBAL__N_14stepILm38EEEvPSt5arrayIjLm5EEPKSt4byte
FNDA:5772,ripemd160.cpp:_ZN6evmone6crypto12_GLOBAL__N_14stepILm39EEEvPSt5arrayIjLm5EEPKSt4byte
FNDA:5772,ripemd160.cpp:_ZN6evmone6crypto12_GLOBAL__N_14stepILm40EEEvPSt5arrayIjLm5EEPKSt4byte
FNDA:5772,ripemd160.cpp:_ZN6evmone6crypto12_GLOBAL__N_14stepILm41EEEvPSt5arrayIjLm5EEPKSt4byte
FNDA:5772,ripemd160.cpp:_ZN6evmone6crypto12_GLOBAL__N_14stepILm42EEEvPSt5arrayIjLm5EEPKSt4byte
FNDA:5772,ripemd160.cpp:_ZN6evmone6crypto12_GLOBAL__N_14stepILm43EEEvPSt5arrayIjLm5EEPKSt4byte
FNDA:5772,ripemd160.cpp:_ZN6evmone6crypto12_GLOBAL__N_14stepILm44EEEvPSt5arrayIjLm5EEPKSt4byte
FNDA:5772,ripemd160.cpp:_ZN6evmone6crypto12_GLOBAL__N_14stepILm45EEEvPSt5arrayIjLm5EEPKSt4byte
FNDA:5772,ripemd160.cpp:_ZN6evmone6crypto12_GLOBAL__N_14stepILm46EEEvPSt5arrayIjLm5EEPKSt4byte
FNDA:5772,ripemd160.cpp:_ZN6evmone6crypto12_GLOBAL__N_14stepILm47EEEvPSt5arrayIjLm5EEPKSt4byte
FNDA:5772,ripemd160.cpp:_ZN6evmone6crypto12_GLOBAL__N_14stepILm48EEEvPSt5arrayIjLm5EEPKSt4byte
FNDA:5772,ripemd160.cpp:_ZN6evmone6crypto12_GLOBAL__N_14stepILm49EEEvPSt5arrayIjLm5EEPKSt4byte
FNDA:5772,ripemd160.cpp:_ZN6evmone6crypto12_GLOBAL__N_14stepILm50EEEvPSt5arrayIjLm5EEPKSt4byte
FNDA:5772,ripemd160.cpp:_ZN6evmone6crypto12_GLOBAL__N_14stepILm51EEEvPSt5arrayIjLm5EEPKSt4byte
FNDA:5772,ripemd160.cpp:_ZN6evmone6crypto12_GLOBAL__N_14stepILm52EEEvPSt5arrayIjLm5EEPKSt4byte
FNDA:5772,ripemd160.cpp:_ZN6evmone6crypto12_GLOBAL__N_14stepILm53EEEvPSt5arrayIjLm5EEPKSt4byte
FNDA:5772,ripemd160.cpp:_ZN6evmone6crypto12_GLOBAL__N_14stepILm54EEEvPSt5arrayIjLm5EEPKSt4byte
FNDA:5772,ripemd160.cpp:_ZN6evmone6crypto12_GLOBAL__N_14stepILm55EEEvPSt5arrayIjLm5EEPKSt4byte
FNDA:5772,ripemd160.cpp:_ZN6evmone6crypto12_GLOBAL__N_14stepILm56EEEvPSt5arrayIjLm5EEPKSt4byte
FNDA:5772,ripemd160.cpp:_ZN6evmone6crypto12_GLOBAL__N_14stepILm57EEEvPSt5arrayIjLm5EEPKSt4byte
FNDA:5772,ripemd160.cpp:_ZN6evmone6crypto12_GLOBAL__N_14stepILm58EEEvPSt5arrayIjLm5EEPKSt4byte
FNDA:5772,ripemd160.cpp:_ZN6evmone6crypto12_GLOBAL__N_14stepILm59EEEvPSt5arrayIjLm5EEPKSt4byte
FNDA:5772,ripemd160.cpp:_ZN6evmone6crypto12_GLOBAL__N_14stepILm60EEEvPSt5arrayIjLm5EEPKSt4byte
FNDA:5772,ripemd160.cpp:_ZN6evmone6crypto12_GLOBAL__N_14stepILm61EEEvPSt5arrayIjLm5EEPKSt4byte
FNDA:5772,ripemd160.cpp:_ZN6evmone6crypto12_GLOBAL__N_14stepILm62EEEvPSt5arrayIjLm5EEPKSt4byte
FNDA:5772,ripemd160.cpp:_ZN6evmone6crypto12_GLOBAL__N_14stepILm63EEEvPSt5arrayIjLm5EEPKSt4byte
FNDA:5772,ripemd160.cpp:_ZN6evmone6crypto12_GLOBAL__N_14stepILm64EEEvPSt5arrayIjLm5EEPKSt4byte
FNDA:5772,ripemd160.cpp:_ZN6evmone6crypto12_GLOBAL__N_14stepILm65EEEvPSt5arrayIjLm5EEPKSt4byte
FNDA:5772,ripemd160.cpp:_ZN6evmone6crypto12_GLOBAL__N_14stepILm66EEEvPSt5arrayIjLm5EEPKSt4byte
FNDA:5772,ripemd160.cpp:_ZN6evmone6crypto12_GLOBAL__N_14stepILm67EEEvPSt5arrayIjLm5EEPKSt4byte
FNDA:5772,ripemd160.cpp:_ZN6evmone6crypto12_GLOBAL__N_14stepILm68EEEvPSt5arrayIjLm5EEPKSt4byte
FNDA:5772,ripemd160.cpp:_ZN6evmone6crypto12_GLOBAL__N_14stepILm69EEEvPSt5arrayIjLm5EEPKSt4byte
FNDA:5772,ripemd160.cpp:_ZN6evmone6crypto12_GLOBAL__N_14stepILm70EEEvPSt5arrayIjLm5EEPKSt4byte
FNDA:5772,ripemd160.cpp:_ZN6evmone6crypto12_GLOBAL__N_14stepILm71EEEvPSt5arrayIjLm5EEPKSt4byte
FNDA:5772,ripemd160.cpp:_ZN6evmone6crypto12_GLOBAL__N_14stepILm72EEEvPSt5arrayIjLm5EEPKSt4byte
FNDA:5772,ripemd160.cpp:_ZN6evmone6crypto12_GLOBAL__N_14stepILm73EEEvPSt5arrayIjLm5EEPKSt4byte
FNDA:5772,ripemd160.cpp:_ZN6evmone6crypto12_GLOBAL__N_14stepILm74EEEvPSt5arrayIjLm5EEPKSt4byte
FNDA:5772,ripemd160.cpp:_ZN6evmone6crypto12_GLOBAL__N_14stepILm75EEEvPSt5arrayIjLm5EEPKSt4byte
FNDA:5772,ripemd160.cpp:_ZN6evmone6crypto12_GLOBAL__N_14stepILm76EEEvPSt5arrayIjLm5EEPKSt4byte
FNDA:5772,ripemd160.cpp:_ZN6evmone6crypto12_GLOBAL__N_14stepILm77EEEvPSt5arrayIjLm5EEPKSt4byte
FNDA:5772,ripemd160.cpp:_ZN6evmone6crypto12_GLOBAL__N_14stepILm78EEEvPSt5arrayIjLm5EEPKSt4byte
FNDA:5772,ripemd160.cpp:_ZN6evmone6crypto12_GLOBAL__N_14stepILm79EEEvPSt5arrayIjLm5EEPKSt4byte
FNDA:1166,ripemd160.cpp:_ZN6evmone6crypto12_GLOBAL__N_18store_leITkSt8integralmEEPSt4byteS4_T_
FNDA:1166,ripemd160.cpp:_ZN6evmone6crypto12_GLOBAL__N_15to_leITkSt8integralmEEDaT_
FNDA:5830,ripemd160.cpp:_ZN6evmone6crypto12_GLOBAL__N_18store_leITkSt8integraljEEPSt4byteS4_T_
FNF:12
FNH:12
DA:52,184704
DA:55,184704
DA:58,184704
DA:61,184704
DA:64,184704
DA:124,930516
DA:127,930516
DA:128,930516
DA:132,923520
DA:133,923520
DA:134,923520
DA:135,923520
DA:136,923520
DA:139,6996
DA:140,6996
DA:141,6996
DA:145,461760
DA:146,461760
DA:147,461760
DA:149,1385280
DA:150,923520
DA:151,923520
DA:152,923520
DA:153,923520
DA:154,923520
DA:156,923520
DA:157,923520
DA:158,923520
DA:159,923520
DA:160,923520
DA:162,923520
DA:163,923520
DA:164,923520
DA:165,923520
DA:166,923520
DA:167,923520
DA:168,461760
DA:176,5772
DA:177,5772
DA:178,5772
DA:181,5772
DA:182,5772
DA:183,5772
DA:185,5772
DA:186,34632
DA:187,28860
DA:188,5772
DA:189,5772
DA:193,1166
DA:194,1166
DA:195,1166
DA:197,1166
DA:198,5564
DA:199,4398
DA:201,1166
DA:202,1166
DA:203,1166
DA:204,1166
DA:207,1166
DA:208,1166
DA:209,1166
DA:210,208
DA:211,208
DA:212,208
DA:213,208
DA:214,1166
DA:215,1166
DA:216,1166
DA:218,1166
DA:219,5830
DA:220,1166
BRDA:149,0,0,11544
BRDA:149,0,1,5772
BRDA:149,1,2,11544
BRDA:149,1,3,5772
BRDA:149,2,4,11544
BRDA:149,2,5,5772
BRDA:149,3,6,11544
BRDA:149,3,7,5772
BRDA:149,4,8,11544
BRDA:149,4,9,5772
BRDA:149,5,10,11544
BRDA:149,5,11,5772
BRDA:149,6,12,11544
BRDA:149,6,13,5772
BRDA:149,7,14,11544
BRDA:149,7,15,5772
BRDA:149,8,16,11544
BRDA:149,8,17,5772
BRDA:149,9,18,11544
BRDA:149,9,19,5772
BRDA:149,10,20,11544
BRDA:149,10,21,5772
BRDA:149,11,22,11544
BRDA:149,11,23,5772
BRDA:149,12,24,11544
BRDA:149,12,25,5772
BRDA:149,13,26,11544
BRDA:149,13,27,5772
BRDA:149,14,28,11544
BRDA:149,14,29,5772
BRDA:149,15,30,11544
BRDA:149,15,31,5772
BRDA:149,16,32,11544
BRDA:149,16,33,5772
BRDA:149,17,34,11544
BRDA:149,17,35,5772
BRDA:149,18,36,11544
BRDA:149,18,37,5772
BRDA:149,19,38,11544
BRDA:149,19,39,5772
BRDA:149,20,40,11544
BRDA:149,20,41,5772
BRDA:149,21,42,11544
BRDA:149,21,43,5772
BRDA:149,22,44,11544
BRDA:149,22,45,5772
BRDA:149,23,46,11544
BRDA:149,23,47,5772
BRDA:149,24,48,11544
BRDA:149,24,49,5772
BRDA:149,25,50,11544
BRDA:149,25,51,5772
BRDA:149,26,52,11544
BRDA:149,26,53,5772
BRDA:149,27,54,11544
BRDA:149,27,55,5772
BRDA:149,28,56,11544
BRDA:149,28,57,5772
BRDA:149,29,58,11544
BRDA:149,29,59,5772
BRDA:149,30,60,11544
BRDA:149,30,61,5772
BRDA:149,31,62,11544
BRDA:149,31,63,5772
BRDA:149,32,64,11544
BRDA:149,32,65,5772
BRDA:149,33,66,11544
BRDA:149,33,67,5772
BRDA:149,34,68,11544
BRDA:149,34,69,5772
BRDA:149,35,70,11544
BRDA:149,35,71,5772
BRDA:149,36,72,11544
BRDA:149,36,73,5772
BRDA:149,37,74,11544
BRDA:149,37,75,5772
BRDA:149,38,76,11544
BRDA:149,38,77,5772
BRDA:149,39,78,11544
BRDA:149,39,79,5772
BRDA:149,40,80,11544
BRDA:149,40,81,5772
BRDA:149,41,82,11544
BRDA:149,41,83,5772
BRDA:149,42,84,11544
BRDA:149,42,85,5772
BRDA:149,43,86,11544
BRDA:149,43,87,5772
BRDA:149,44,88,11544
BRDA:149,44,89,5772
BRDA:149,45,90,11544
BRDA:149,45,91,5772
BRDA:149,46,92,11544
BRDA:149,46,93,5772
BRDA:149,47,94,11544
BRDA:149,47,95,5772
BRDA:149,48,96,11544
BRDA:149,48,97,5772
BRDA:149,49,98,11544
BRDA:149,49,99,5772
BRDA:149,50,100,11544
BRDA:149,50,101,5772
BRDA:149,51,102,11544
BRDA:149,51,103,5772
BRDA:149,52,104,11544
BRDA:149,52,105,5772
BRDA:149,53,106,11544
BRDA:149,53,107,5772
BRDA:149,54,108,11544
BRDA:149,54,109,5772
BRDA:149,55,110,11544
BRDA:149,55,111,5772
BRDA:149,56,112,11544
BRDA:149,56,113,5772
BRDA:149,57,114,11544
BRDA:149,57,115,5772
BRDA:149,58,116,11544
BRDA:149,58,117,5772
BRDA:149,59,118,11544
BRDA:149,59,119,5772
BRDA:149,60,120,11544
BRDA:149,60,121,5772
BRDA:149,61,122,11544
BRDA:149,61,123,5772
BRDA:149,62,124,11544
BRDA:149,62,125,5772
BRDA:149,63,126,11544
BRDA:149,63,127,5772
BRDA:149,64,128,11544
BRDA:149,64,129,5772
BRDA:149,65,130,11544
BRDA:149,65,131,5772
BRDA:149,66,132,11544
BRDA:149,66,133,5772
BRDA:149,67,134,11544
BRDA:149,67,135,5772
BRDA:149,68,136,11544
BRDA:149,68,137,5772
BRDA:149,69,138,11544
BRDA:149,69,139,5772
BRDA:149,70,140,11544
BRDA:149,70,141,5772
BRDA:149,71,142,11544
BRDA:149,71,143,5772
BRDA:149,72,144,11544
BRDA:149,72,145,5772
BRDA:149,73,146,11544
BRDA:149,73,147,5772
BRDA:149,74,148,11544
BRDA:149,74,149,5772
BRDA:149,75,150,11544
BRDA:149,75,151,5772
BRDA:149,76,152,11544
BRDA:149,76,153,5772
BRDA:149,77,154,11544
BRDA:149,77,155,5772
BRDA:149,78,156,11544
BRDA:149,78,157,5772
BRDA:149,79,158,11544
BRDA:149,79,159,5772
BRDA:186,0,0,28860
BRDA:186,0,1,5772
BRDA:198,0,0,4398
BRDA:198,0,1,1166
BRDA:209,0,0,208
BRDA:209,0,1,958
BRDA:218,0,0,5830
BRDA:218,0,1,1166
BRF:10
BRH:10
LF:71
LH:71
end_of_record
SF:/home/user/sources/ethereum/evmone/lib/evmone_precompiles/secp256k1.cpp
FN:20,_ZN6evmmax9secp256k111calculate_yERKNS_8ModArithIN4intx4uintILj256EEEEERKS4_b
FN:33,_ZN6evmmax9secp256k110to_addressERKNS_3ecc11AffinePointINS0_5CurveEEE
FN:47,_ZN6evmmax9secp256k123secp256k1_ecdsa_recoverERK14ethash_hash256RKN4intx4uintILj256EEES8_b
FN:105,_ZN6evmmax9secp256k19ecrecoverERK14ethash_hash256RKN4intx4uintILj256EEES8_b
FN:114,_ZN6evmmax9secp256k110field_sqrtERKNS_8ModArithIN4intx4uintILj256EEEEERKS4_
FNDA:938,_ZN6evmmax9secp256k111calculate_yERKNS_8ModArithIN4intx4uintILj256EEEEERKS4_b
FNDA:832,_ZN6evmmax9secp256k110to_addressERKNS_3ecc11AffinePointINS0_5CurveEEE
FNDA:1264,_ZN6evmmax9secp256k123secp256k1_ecdsa_recoverERK14ethash_hash256RKN4intx4uintILj256EEES8_b
FNDA:1264,_ZN6evmmax9secp256k19ecrecoverERK14ethash_hash256RKN4intx4uintILj256EEES8_b
FNDA:938,_ZN6evmmax9secp256k110field_sqrtERKNS_8ModArithIN4intx4uintILj256EEEEERKS4_
FNF:5
FNH:5
DA:20,938
DA:22,938
DA:23,938
DA:24,938
DA:25,48
DA:28,890
DA:29,890
DA:30,938
DA:33,832
DA:35,832
DA:36,832
DA:38,832
DA:39,832
DA:40,832
DA:42,832
DA:43,832
DA:47,1264
DA:52,1264
DA:53,326
DA:59,938
DA:60,938
DA:61,938
DA:62,26
DA:64,938
DA:67,938
DA:68,938
DA:70,938
DA:71,938
DA:72,938
DA:73,938
DA:75,938
DA:76,938
DA:77,938
DA:78,938
DA:81,938
DA:82,938
DA:83,938
DA:84,938
DA:85,48
DA:88,890
DA:90,890
DA:91,890
DA:92,890
DA:93,890
DA:95,890
DA:97,890
DA:98,58
DA:100,832
DA:101,890
DA:105,1264
DA:106,1264
DA:107,1264
DA:108,432
DA:110,832
DA:111,1264
DA:114,938
DA:144,938
DA:145,938
DA:146,938
DA:147,938
DA:148,938
DA:152,938
DA:155,938
DA:158,938
DA:159,1876
DA:160,938
DA:163,938
DA:166,938
DA:169,938
DA:172,938
DA:173,1876
DA:174,938
DA:177,938
DA:180,938
DA:181,3752
DA:182,2814
DA:185,938
DA:188,938
DA:189,10318
DA:190,9380
DA:193,938
DA:196,938
DA:197,4690
DA:198,3752
DA:201,938
DA:204,938
DA:205,25326
DA:206,24388
DA:209,938
DA:212,938
DA:213,50652
DA:214,49714
DA:217,938
DA:220,938
DA:221,101304
DA:222,100366
DA:225,938
DA:228,7504
DA:229,6566
DA:232,938
DA:235,22512
DA:236,21574
DA:239,938
DA:242,6566
DA:243,5628
DA:246,938
DA:249,2814
DA:250,1876
DA:252,938
DA:253,48
DA:255,890
DA:256,938
BRDA:24,0,0,48
BRDA:24,0,1,890
BRDA:29,0,0,360
BRDA:29,0,1,530
BRDA:52,0,0,326
BRDA:52,0,1,938
BRDA:52,1,2,32
BRDA:52,1,3,1232
BRDA:52,2,4,38
BRDA:52,2,5,1194
BRDA:52,3,6,218
BRDA:52,3,7,976
BRDA:52,4,8,38
BRDA:52,4,9,938
BRDA:61,0,0,26
BRDA:61,0,1,912
BRDA:84,0,0,48
BRDA:84,0,1,890
BRDA:97,0,0,58
BRDA:97,0,1,832
BRDA:107,0,0,432
BRDA:107,0,1,832
BRDA:159,0,0,938
BRDA:159,0,1,938
BRDA:173,0,0,938
BRDA:173,0,1,938
BRDA:181,0,0,2814
BRDA:181,0,1,938
BRDA:189,0,0,9380
BRDA:189,0,1,938
BRDA:197,0,0,3752
BRDA:197,0,1,938
BRDA:205,0,0,24388
BRDA:205,0,1,938
BRDA:213,0,0,49714
BRDA:213,0,1,938
BRDA:221,0,0,100366
BRDA:221,0,1,938
BRDA:228,0,0,6566
BRDA:228,0,1,938
BRDA:235,0,0,21574
BRDA:235,0,1,938
BRDA:242,0,0,5628
BRDA:242,0,1,938
BRDA:249,0,0,1876
BRDA:249,0,1,938
BRDA:252,0,0,48
BRDA:252,0,1,890
BRF:48
BRH:48
LF:112
LH:112
end_of_record
SF:/home/user/sources/ethereum/evmone/lib/evmone_precompiles/secp256r1.cpp
FN:20,_ZN6evmmax9secp256r16verifyERK14ethash_hash256RKN4intx4uintILj256EEES8_S8_S8_
FN:11,secp256r1.cpp:_ZN6evmmax9secp256r112_GLOBAL__N_111is_on_curveERKNS_3ecc11AffinePointINS0_5CurveEEE
FNDA:778,_ZN6evmmax9secp256r16verifyERK14ethash_hash256RKN4intx4uintILj256EEES8_S8_S8_
FNDA:604,secp256r1.cpp:_ZN6evmmax9secp256r112_GLOBAL__N_111is_on_curveERKNS_3ecc11AffinePointINS0_5CurveEEE
FNF:2
FNH:2
DA:11,604
DA:12,604
DA:13,604
DA:14,604
DA:15,604
DA:20,778
DA:27,778
DA:28,150
DA:31,628
DA:32,18
DA:33,610
DA:34,610
DA:35,6
DA:38,604
DA:39,50
DA:41,554
DA:44,554
DA:45,554
DA:48,554
DA:49,554
DA:50,554
DA:54,554
DA:55,554
DA:56,554
DA:57,554
DA:58,554
DA:63,554
DA:64,554
DA:65,10
DA:67,554
DA:68,604
BRDA:27,0,0,150
BRDA:27,0,1,628
BRDA:27,1,2,32
BRDA:27,1,3,746
BRDA:27,2,4,82
BRDA:27,2,5,664
BRDA:27,3,6,10
BRDA:27,3,7,654
BRDA:27,4,8,26
BRDA:27,4,9,628
BRDA:31,0,0,12
BRDA:31,0,1,616
BRDA:31,1,2,6
BRDA:31,1,3,610
BRDA:34,0,0,6
BRDA:34,0,1,604
BRDA:38,0,0,50
BRDA:38,0,1,554
BRDA:64,0,0,10
BRDA:64,0,1,544
BRF:20
BRH:20
LF:31
LH:31
end_of_record
SF:/home/user/sources/ethereum/evmone/lib/evmone_precompiles/sha256.cpp
FN:476,sha256.cpp:_ZN6evmone6cryptoL28select_sha256_implementationEv
FN:714,_ZN6evmone6crypto6sha256EPSt4bytePKS1_m
FN:471,sha256.cpp:_ZN6evmone6cryptoL5cpuidEPii
FN:268,sha256.cpp:_ZN6evmone6cryptoL15sha_256_x86_shaEPjPKSt4bytem
FN:255,sha256.cpp:_ZN6evmone6cryptoL3setEmm
FN:70,_ZN6evmone6crypto11BufferStateC2EPKSt4bytem
FN:75,sha256.cpp:_ZN6evmone6cryptoL10calc_chunkEPhPNS0_11BufferStateE
FN:240,sha256.cpp:_ZN6evmone6cryptoL15sha_256_genericEPjPKSt4bytem
FN:140,sha256.cpp:_ZN6evmone6cryptoL22sha_256_implementationEPjPKSt4bytem
FN:250,sha256.cpp:_ZN6evmone6cryptoL15sha_256_x86_bmiEPjPKSt4bytem
FNDA:2,sha256.cpp:_ZN6evmone6cryptoL28select_sha256_implementationEv
FNDA:66255,_ZN6evmone6crypto6sha256EPSt4bytePKS1_m
FNDA:6,sha256.cpp:_ZN6evmone6cryptoL5cpuidEPii
FNDA:66255,sha256.cpp:_ZN6evmone6cryptoL15sha_256_x86_shaEPjPKSt4bytem
FNDA:1519455,sha256.cpp:_ZN6evmone6cryptoL3setEmm
FNDA:66255,_ZN6evmone6crypto11BufferStateC2EPKSt4bytem
FNDA:157080,sha256.cpp:_ZN6evmone6cryptoL10calc_chunkEPhPNS0_11BufferStateE
FNDA:0,sha256.cpp:_ZN6evmone6cryptoL15sha_256_genericEPjPKSt4bytem
FNDA:0,sha256.cpp:_ZN6evmone6cryptoL22sha_256_implementationEPjPKSt4bytem
FNDA:0,sha256.cpp:_ZN6evmone6cryptoL15sha_256_x86_bmiEPjPKSt4bytem
FNF:10
FNH:7
DA:39,230778
DA:40,132516
DA:70,66255
DA:71,66255
DA:75,157080
DA:76,157080
DA:77,66255
DA:78,66255
DA:79,66255
DA:81,90825
DA:82,24564
DA:83,24564
DA:84,24564
DA:85,24564
DA:86,24564
DA:87,24564
DA:89,66261
DA:90,66261
DA:91,3713
DA:92,3713
DA:93,3713
DA:94,3713
DA:95,3713
DA:96,66261
DA:99,66261
DA:100,66255
DA:101,66255
DA:102,66255
DA:103,66255
DA:104,66255
DA:112,66261
DA:113,66255
DA:114,66255
DA:115,66255
DA:116,66255
DA:117,66255
DA:118,66255
DA:121,66255
DA:122,66255
DA:123,530040
DA:124,463785
DA:125,463785
DA:126,463785
DA:127,463785
DA:128,66255
DA:129,66255
DA:130,6
DA:131,6
DA:132,6
DA:133,6
DA:135,66261
DA:136,90825
DA:140,0
DA:155,0
DA:158,0
DA:160,0
DA:161,0
DA:162,0
DA:163,0
DA:165,0
DA:167,0
DA:168,0
DA:169,0
DA:170,0
DA:172,0
DA:187,0
DA:190,0
DA:191,0
DA:192,0
DA:193,0
DA:194,0
DA:195,0
DA:196,0
DA:197,0
DA:198,0
DA:199,0
DA:200,0
DA:201,0
DA:204,0
DA:205,0
DA:206,0
DA:207,0
DA:208,0
DA:209,0
DA:210,0
DA:211,0
DA:212,0
DA:213,0
DA:214,0
DA:215,0
DA:216,0
DA:217,0
DA:218,0
DA:220,0
DA:221,0
DA:222,0
DA:223,0
DA:224,0
DA:225,0
DA:226,0
DA:227,0
DA:228,0
DA:229,0
DA:232,0
DA:233,0
DA:234,0
DA:235,0
DA:236,0
DA:237,0
DA:240,0
DA:241,0
DA:242,0
DA:250,0
DA:251,0
DA:252,0
DA:255,1519455
DA:257,1519455
DA:258,1519455
DA:268,66255
DA:270,66255
DA:271,66255
DA:272,66255
DA:273,66255
DA:276,66255
DA:281,66255
DA:282,66255
DA:284,66255
DA:285,66255
DA:286,66255
DA:287,66255
DA:289,66255
DA:292,66255
DA:294,157080
DA:295,90825
DA:297,90825
DA:298,90825
DA:301,90825
DA:302,90825
DA:303,90825
DA:304,90825
DA:305,90825
DA:306,90825
DA:309,90825
DA:310,90825
DA:311,90825
DA:312,90825
DA:313,90825
DA:314,90825
DA:315,90825
DA:318,90825
DA:319,90825
DA:320,90825
DA:321,90825
DA:322,90825
DA:323,90825
DA:324,90825
DA:327,90825
DA:328,90825
DA:329,90825
DA:330,90825
DA:331,90825
DA:332,90825
DA:333,90825
DA:334,90825
DA:335,90825
DA:336,90825
DA:339,90825
DA:340,90825
DA:341,90825
DA:342,90825
DA:343,90825
DA:344,90825
DA:345,90825
DA:346,90825
DA:349,90825
DA:350,90825
DA:351,90825
DA:352,90825
DA:353,90825
DA:354,90825
DA:355,90825
DA:356,90825
DA:359,90825
DA:360,90825
DA:361,90825
DA:362,90825
DA:363,90825
DA:364,90825
DA:365,90825
DA:366,90825
DA:369,90825
DA:370,90825
DA:371,90825
DA:372,90825
DA:373,90825
DA:374,90825
DA:375,90825
DA:376,90825
DA:379,90825
DA:380,90825
DA:381,90825
DA:382,90825
DA:383,90825
DA:384,90825
DA:385,90825
DA:386,90825
DA:389,90825
DA:390,90825
DA:391,90825
DA:392,90825
DA:393,90825
DA:394,90825
DA:395,90825
DA:396,90825
DA:399,90825
DA:400,90825
DA:401,90825
DA:402,90825
DA:403,90825
DA:404,90825
DA:405,90825
DA:406,90825
DA:409,90825
DA:410,90825
DA:411,90825
DA:412,90825
DA:413,90825
DA:414,90825
DA:415,90825
DA:416,90825
DA:419,90825
DA:420,90825
DA:421,90825
DA:422,90825
DA:423,90825
DA:424,90825
DA:425,90825
DA:426,90825
DA:429,90825
DA:430,90825
DA:431,90825
DA:432,90825
DA:433,90825
DA:434,90825
DA:435,90825
DA:438,90825
DA:439,90825
DA:440,90825
DA:441,90825
DA:442,90825
DA:443,90825
DA:444,90825
DA:447,90825
DA:448,90825
DA:449,90825
DA:450,90825
DA:453,90825
DA:454,90825
DA:455,90825
DA:457,66255
DA:458,66255
DA:459,66255
DA:460,66255
DA:463,66255
DA:464,66255
DA:467,66255
DA:471,6
DA:472,6
DA:473,6
DA:476,2
DA:477,2
DA:478,2
DA:479,2
DA:481,2
DA:482,2
DA:483,2
DA:484,2
DA:486,2
DA:487,2
DA:488,2
DA:489,2
DA:490,2
DA:491,2
DA:492,2
DA:493,2
DA:494,2
DA:495,2
DA:496,2
DA:497,2
DA:499,2
DA:500,2
DA:501,2
DA:502,2
DA:503,0
DA:504,0
DA:505,0
DA:506,0
DA:507,2
DA:714,66255
DA:719,66255
DA:720,66255
DA:722,66255
DA:725,596295
DA:726,530040
DA:727,530040
DA:728,530040
DA:729,530040
DA:730,530040
DA:731,530040
DA:732,66255
BRDA:76,0,0,66255
BRDA:76,0,1,90825
BRDA:81,0,0,24564
BRDA:81,0,1,66261
BRDA:90,0,0,3713
BRDA:90,0,1,62548
BRDA:99,0,0,66255
BRDA:99,0,1,6
BRDA:112,0,0,66255
BRDA:112,0,1,6
BRDA:123,0,0,463785
BRDA:123,0,1,66255
BRDA:160,0,0,-
BRDA:160,0,1,-
BRDA:167,0,0,-
BRDA:167,0,1,-
BRDA:190,0,0,-
BRDA:190,0,1,-
BRDA:192,0,0,-
BRDA:192,0,1,-
BRDA:194,0,0,-
BRDA:194,0,1,-
BRDA:232,0,0,-
BRDA:232,0,1,-
BRDA:294,0,0,90825
BRDA:294,0,1,66255
BRDA:486,0,0,2
BRDA:486,0,1,0
BRDA:491,0,0,2
BRDA:491,0,1,0
BRDA:499,0,0,2
BRDA:499,0,1,0
BRDA:499,1,2,2
BRDA:499,1,3,0
BRDA:503,0,0,-
BRDA:503,0,1,-
BRDA:503,1,2,-
BRDA:503,1,3,-
BRDA:725,0,0,530040
BRDA:725,0,1,66255
BRF:40
BRH:20
LF:307
LH:240
end_of_record
SF:/home/user/sources/ethereum/evmone/test/blockchaintest/blockchaintest.cpp
FN:110,main
FN:76,blockchaintest.cpp:_ZN12_GLOBAL__N_119register_test_filesERKNSt10filesystem7__cxx114pathERN4evmc2VME
FN:81,blockchaintest.cpp:_ZZN12_GLOBAL__N_119register_test_filesERKNSt10filesystem7__cxx114pathERN4evmc2VMEENK3$_0clERKNS1_15directory_entryE
FN:42,blockchaintest.cpp:_ZN12_GLOBAL__N_119BlockchainGTestFile12register_oneERKNSt7__cxx1112basic_stringIcSt11char_traitsIcESaIcEEERKNSt10filesystem7__cxx114pathERN4evmc2VME
FN:45,blockchaintest.cpp:_ZZN12_GLOBAL__N_119BlockchainGTestFile12register_oneERKNSt7__cxx1112basic_stringIcSt11char_traitsIcESaIcEEERKNSt10filesystem7__cxx114pathERN4evmc2VMEENKUlvE_clEv
FN:24,blockchaintest.cpp:_ZN12_GLOBAL__N_119BlockchainGTestFileC2ENSt10filesystem7__cxx114pathERN4evmc2VME
FN:28,blockchaintest.cpp:_ZN12_GLOBAL__N_119BlockchainGTestFile8TestBodyEv
FN:68,blockchaintest.cpp:_ZN12_GLOBAL__N_115BlockchainGTest12register_oneERKN6evmone4test14BlockchainTestERKNSt7__cxx1112basic_stringIcSt11char_traitsIcESaIcEEESD_RKNSt10filesystem7__cxx114pathERN4evmc2VME
FN:71,blockchaintest.cpp:_ZZN12_GLOBAL__N_115BlockchainGTest12register_oneERKN6evmone4test14BlockchainTestERKNSt7__cxx1112basic_stringIcSt11char_traitsIcESaIcEEESD_RKNSt10filesystem7__cxx114pathERN4evmc2VMEENKUlvE_clEv
FN:57,blockchaintest.cpp:_ZN12_GLOBAL__N_115BlockchainGTestC2EN6evmone4test14BlockchainTestERN4evmc2VME
FN:61,blockchaintest.cpp:_ZN12_GLOBAL__N_115BlockchainGTest8TestBodyEv
FNDA:1,main
FNDA:1,blockchaintest.cpp:_ZN12_GLOBAL__N_119register_test_filesERKNSt10filesystem7__cxx114pathERN4evmc2VME
FNDA:2969,blockchaintest.cpp:_ZZN12_GLOBAL__N_119register_test_filesERKNSt10filesystem7__cxx114pathERN4evmc2VMEENK3$_0clERKNS1_15directory_entryE
FNDA:2839,blockchaintest.cpp:_ZN12_GLOBAL__N_119BlockchainGTestFile12register_oneERKNSt7__cxx1112basic_stringIcSt11char_traitsIcESaIcEEERKNSt10filesystem7__cxx114pathERN4evmc2VME
FNDA:2839,blockchaintest.cpp:_ZZN12_GLOBAL__N_119BlockchainGTestFile12register_oneERKNSt7__cxx1112basic_stringIcSt11char_traitsIcESaIcEEERKNSt10filesystem7__cxx114pathERN4evmc2VMEENKUlvE_clEv
FNDA:2839,blockchaintest.cpp:_ZN12_GLOBAL__N_119BlockchainGTestFileC2ENSt10filesystem7__cxx114pathERN4evmc2VME
FNDA:2839,blockchaintest.cpp:_ZN12_GLOBAL__N_119BlockchainGTestFile8TestBodyEv
FNDA:0,blockchaintest.cpp:_ZN12_GLOBAL__N_115BlockchainGTest12register_oneERKN6evmone4test14BlockchainTestERKNSt7__cxx1112basic_stringIcSt11char_traitsIcESaIcEEESD_RKNSt10filesystem7__cxx114pathERN4evmc2VME
FNDA:0,blockchaintest.cpp:_ZZN12_GLOBAL__N_115BlockchainGTest12register_oneERKN6evmone4test14BlockchainTestERKNSt7__cxx1112basic_stringIcSt11char_traitsIcESaIcEEESD_RKNSt10filesystem7__cxx114pathERN4evmc2VMEENKUlvE_clEv
FNDA:0,blockchaintest.cpp:_ZN12_GLOBAL__N_115BlockchainGTestC2EN6evmone4test14BlockchainTestERN4evmc2VME
FNDA:0,blockchaintest.cpp:_ZN12_GLOBAL__N_115BlockchainGTest8TestBodyEv
FNF:11
FNH:7
DA:24,2839
DA:25,2839
DA:28,2839
DA:29,2839
DA:31,2839
DA:32,2839
DA:33,2839
DA:34,2839
DA:35,2839
DA:36,2839
DA:37,2
DA:38,2
DA:39,2839
DA:42,2839
DA:43,2839
DA:44,2839
DA:45,2839
DA:46,2839
DA:57,0
DA:58,0
DA:61,0
DA:62,0
DA:63,0
DA:68,0
DA:69,0
DA:70,0
DA:71,0
DA:72,0
DA:76,1
DA:77,1
DA:78,1
DA:79,1
DA:80,1
DA:81,2969
DA:83,2969
DA:84,2969
DA:85,2969
DA:86,1
DA:88,1
DA:89,2839
DA:90,1
DA:91,0
DA:92,0
DA:93,0
DA:94,0
DA:95,0
DA:96,0
DA:97,0
DA:98,0
DA:99,0
DA:100,0
DA:101,0
DA:102,0
DA:103,0
DA:104,0
DA:105,1
DA:110,1
DA:111,1
DA:112,1
DA:113,1
DA:115,1
DA:117,1
DA:119,1
DA:120,1
DA:121,1
DA:122,1
DA:123,1
DA:124,1
DA:125,1
DA:127,1
DA:128,1
DA:130,1
DA:132,1
DA:134,1
DA:135,0
DA:137,1
DA:138,1
DA:140,1
DA:141,1
DA:142,1
DA:143,1
DA:144,0
DA:145,0
DA:146,0
DA:147,1
BRDA:77,0,0,1
BRDA:77,0,1,0
BRDA:83,0,0,2839
BRDA:83,0,1,130
BRDA:83,1,2,2839
BRDA:83,1,3,0
BRDA:84,0,0,2839
BRDA:84,0,1,0
BRDA:88,0,0,2839
BRDA:88,0,1,1
BRDA:97,0,0,-
BRDA:97,0,1,-
BRDA:134,0,0,0
BRDA:134,0,1,1
BRDA:137,0,0,1
BRDA:137,0,1,1
BRF:16
BRH:10
LF:90
LH:61
end_of_record
SF:/home/user/sources/ethereum/evmone/test/blockchaintest/blockchaintest_loader.cpp
FN:32,_ZN6evmone4test9from_jsonINS0_11BlockHeaderEEET_RKN8nlohmann16json_abi_v3_12_010basic_jsonISt3mapSt6vectorNSt7__cxx1112basic_stringIcSt11char_traitsIcESaIcEEEblmdSaNS5_14adl_serializerES8_IhSaIhEEvEE
FN:196,_ZN6evmone4test21load_blockchain_testsERSi
FN:190,blockchaintest_loader.cpp:_ZN6evmone4testL9from_jsonERKN8nlohmann16json_abi_v3_12_010basic_jsonISt3mapSt6vectorNSt7__cxx1112basic_stringIcSt11char_traitsIcESaIcEEEblmdSaNS2_14adl_serializerES5_IhSaIhEEvEERS5_INS0_14BlockchainTestESaISI_EE
FN:138,blockchaintest_loader.cpp:_ZN6evmone4test12_GLOBAL__N_125load_blockchain_test_caseERKNSt7__cxx1112basic_stringIcSt11char_traitsIcESaIcEEERKN8nlohmann16json_abi_v3_12_010basic_jsonISt3mapSt6vectorS7_blmdSaNSB_14adl_serializerESE_IhSaIhEEvEE
FN:59,blockchaintest_loader.cpp:_ZN6evmone4testL15load_test_blockERKN8nlohmann16json_abi_v3_12_010basic_jsonISt3mapSt6vectorNSt7__cxx1112basic_stringIcSt11char_traitsIcESaIcEEEblmdSaNS2_14adl_serializerES5_IhSaIhEEvEERKSB_RKSt13unordered_mapISB_NS_5state10BlobParamsESt4hashISB_ESt8equal_toISB_ESaISt4pairISI_SM_EEE
FN:16,blockchaintest_loader.cpp:_ZN6evmone4test12_GLOBAL__N_114load_if_existsIlEET_RKN8nlohmann16json_abi_v3_12_010basic_jsonISt3mapSt6vectorNSt7__cxx1112basic_stringIcSt11char_traitsIcESaIcEEEblmdSaNS5_14adl_serializerES8_IhSaIhEEvEESt17basic_string_viewIcSC_E
FN:16,blockchaintest_loader.cpp:_ZN6evmone4test12_GLOBAL__N_114load_if_existsIN4evmc7bytes32EEET_RKN8nlohmann16json_abi_v3_12_010basic_jsonISt3mapSt6vectorNSt7__cxx1112basic_stringIcSt11char_traitsIcESaIcEEEblmdSaNS7_14adl_serializerESA_IhSaIhEEvEESt17basic_string_viewIcSE_E
FN:16,blockchaintest_loader.cpp:_ZN6evmone4test12_GLOBAL__N_114load_if_existsImEET_RKN8nlohmann16json_abi_v3_12_010basic_jsonISt3mapSt6vectorNSt7__cxx1112basic_stringIcSt11char_traitsIcESaIcEEEblmdSaNS5_14adl_serializerES8_IhSaIhEEvEESt17basic_string_viewIcSC_E
FN:23,blockchaintest_loader.cpp:_ZN6evmone4test12_GLOBAL__N_113load_optionalImEESt8optionalIT_ERKN8nlohmann16json_abi_v3_12_010basic_jsonISt3mapSt6vectorNSt7__cxx1112basic_stringIcSt11char_traitsIcESaIcEEEblmdSaNS7_14adl_serializerESA_IhSaIhEEvEESt17basic_string_viewIcSE_E
FNDA:158963,_ZN6evmone4test9from_jsonINS0_11BlockHeaderEEET_RKN8nlohmann16json_abi_v3_12_010basic_jsonISt3mapSt6vectorNSt7__cxx1112basic_stringIcSt11char_traitsIcESaIcEEEblmdSaNS5_14adl_serializerES8_IhSaIhEEvEE
FNDA:2839,_ZN6evmone4test21load_blockchain_testsERSi
FNDA:2839,blockchaintest_loader.cpp:_ZN6evmone4testL9from_jsonERKN8nlohmann16json_abi_v3_12_010basic_jsonISt3mapSt6vectorNSt7__cxx1112basic_stringIcSt11char_traitsIcESaIcEEEblmdSaNS2_14adl_serializerES5_IhSaIhEEvEERS5_INS0_14BlockchainTestESaISI_EE
FNDA:68665,blockchaintest_loader.cpp:_ZN6evmone4test12_GLOBAL__N_125load_blockchain_test_caseERKNSt7__cxx1112basic_stringIcSt11char_traitsIcESaIcEEERKN8nlohmann16json_abi_v3_12_010basic_jsonISt3mapSt6vectorS7_blmdSaNSB_14adl_serializerESE_IhSaIhEEvEE
FNDA:90298,blockchaintest_loader.cpp:_ZN6evmone4testL15load_test_blockERKN8nlohmann16json_abi_v3_12_010basic_jsonISt3mapSt6vectorNSt7__cxx1112basic_stringIcSt11char_traitsIcESaIcEEEblmdSaNS2_14adl_serializerES5_IhSaIhEEvEERKSB_RKSt13unordered_mapISB_NS_5state10BlobParamsESt4hashISB_ESt8equal_toISB_ESaISt4pairISI_SM_EEE
FNDA:158963,blockchaintest_loader.cpp:_ZN6evmone4test12_GLOBAL__N_114load_if_existsIlEET_RKN8nlohmann16json_abi_v3_12_010basic_jsonISt3mapSt6vectorNSt7__cxx1112basic_stringIcSt11char_traitsIcESaIcEEEblmdSaNS5_14adl_serializerES8_IhSaIhEEvEESt17basic_string_viewIcSC_E
FNDA:635852,blockchaintest_loader.cpp:_ZN6evmone4test12_GLOBAL__N_114load_if_existsIN4evmc7bytes32EEET_RKN8nlohmann16json_abi_v3_12_010basic_jsonISt3mapSt6vectorNSt7__cxx1112basic_stringIcSt11char_traitsIcESaIcEEEblmdSaNS7_14adl_serializerESA_IhSaIhEEvEESt17basic_string_viewIcSE_E
FNDA:158963,blockchaintest_loader.cpp:_ZN6evmone4test12_GLOBAL__N_114load_if_existsImEET_RKN8nlohmann16json_abi_v3_12_010basic_jsonISt3mapSt6vectorNSt7__cxx1112basic_stringIcSt11char_traitsIcESaIcEEEblmdSaNS5_14adl_serializerES8_IhSaIhEEvEESt17basic_string_viewIcSC_E
FNDA:317926,blockchaintest_loader.cpp:_ZN6evmone4test12_GLOBAL__N_113load_optionalImEESt8optionalIT_ERKN8nlohmann16json_abi_v3_12_010basic_jsonISt3mapSt6vectorNSt7__cxx1112basic_stringIcSt11char_traitsIcESaIcEEEblmdSaNS7_14adl_serializerESA_IhSaIhEEvEESt17basic_string_viewIcSE_E
FNF:7
FNH:7
DA:16,953778
DA:17,953778
DA:18,810585
DA:19,143193
DA:20,953778
DA:23,317926
DA:24,317926
DA:25,255414
DA:26,62512
DA:27,317926
DA:32,158963
DA:33,158963
DA:34,158963
DA:35,158963
DA:36,158963
DA:37,158963
DA:38,158963
DA:39,158963
DA:40,158963
DA:41,158963
DA:42,158963
DA:43,158963
DA:44,158963
DA:45,158963
DA:46,158963
DA:47,158963
DA:48,158963
DA:49,158963
DA:50,158963
DA:51,158963
DA:52,158963
DA:53,158963
DA:54,158963
DA:55,158963
DA:59,90298
DA:60,90298
DA:61,90298
DA:63,90298
DA:64,90298
DA:65,90298
DA:66,90298
DA:67,90298
DA:68,90298
DA:69,90298
DA:70,90298
DA:72,90298
DA:73,90298
DA:75,90298
DA:76,90298
DA:77,90298
DA:78,90298
DA:79,90298
DA:80,90298
DA:81,90298
DA:82,90298
DA:83,90298
DA:85,90298
DA:86,67883
DA:87,67883
DA:88,90298
DA:91,90298
DA:92,15942
DA:93,15942
DA:94,15942
DA:95,15942
DA:96,90298
DA:98,90298
DA:99,90298
DA:100,90298
DA:101,90298
DA:102,0
DA:103,0
DA:104,0
DA:105,0
DA:106,0
DA:107,90298
DA:109,90298
DA:110,71353
DA:111,71353
DA:112,71353
DA:113,71353
DA:114,4168
DA:115,71353
DA:116,71353
DA:117,71353
DA:118,0
DA:119,0
DA:120,71353
DA:121,71353
DA:122,0
DA:123,0
DA:124,71353
DA:126,90298
DA:127,90298
DA:128,90298
DA:129,92551
DA:130,90298
DA:132,90298
DA:133,90298
DA:138,68665
DA:139,68665
DA:141,68665
DA:142,68665
DA:143,68665
DA:144,68665
DA:145,68665
DA:146,68665
DA:147,68665
DA:148,68665
DA:149,68665
DA:150,59884
DA:151,68665
DA:152,68665
DA:153,90300
DA:154,90300
DA:155,5157
DA:161,5157
DA:162,2
DA:163,2
DA:165,5155
DA:166,5155
DA:167,5155
DA:168,5155
DA:169,5155
DA:170,85143
DA:171,85143
DA:172,85143
DA:173,85143
DA:174,85143
DA:175,85143
DA:176,90300
DA:178,68663
DA:180,68663
DA:181,68663
DA:182,0
DA:183,0
DA:185,68663
DA:186,68665
DA:190,2839
DA:191,2839
DA:192,68665
DA:193,2839
DA:196,2839
DA:197,2839
DA:198,2839
BRDA:17,0,0,141767
BRDA:17,0,1,17196
BRDA:17,1,2,509855
BRDA:17,1,3,125997
BRDA:17,2,4,158963
BRDA:17,2,5,0
BRDA:24,0,0,255414
BRDA:24,0,1,62512
BRDA:63,0,0,90298
BRDA:63,0,1,0
BRDA:85,0,0,67883
BRDA:85,0,1,22415
BRDA:91,0,0,15942
BRDA:91,0,1,74356
BRDA:98,0,0,90298
BRDA:98,0,1,0
BRDA:101,0,0,0
BRDA:101,0,1,90298
BRDA:109,0,0,71353
BRDA:109,0,1,18945
BRDA:113,0,0,4168
BRDA:113,0,1,71353
BRDA:126,0,0,90298
BRDA:126,0,1,0
BRDA:128,0,0,92551
BRDA:128,0,1,90298
BRDA:147,0,0,68665
BRDA:147,0,1,0
BRDA:149,0,0,59884
BRDA:149,0,1,8781
BRDA:152,0,0,90300
BRDA:152,0,1,68663
BRDA:154,0,0,5157
BRDA:154,0,1,85143
BRDA:161,0,0,2
BRDA:161,0,1,5155
BRDA:180,0,0,68663
BRDA:180,0,1,0
BRDA:182,0,0,-
BRDA:182,0,1,-
BRDA:191,0,0,68665
BRDA:191,0,1,2839
BRF:38
BRH:30
LF:145
LH:134
end_of_record
SF:/home/user/sources/ethereum/evmone/test/blockchaintest/blockchaintest_runner.cpp
FN:257,_ZN6evmone4test20run_blockchain_testsESt4spanIKNS0_14BlockchainTestELm18446744073709551615EERN4evmc2VME
FN:119,blockchaintest_runner.cpp:_ZN6evmone4test12_GLOBAL__N_114validate_blockE13evmc_revisionNS_5state10BlobParamsERKNS0_9TestBlockEPKNS0_11BlockHeaderEb
FN:46,blockchaintest_runner.cpp:_ZN6evmone4test12_GLOBAL__N_111apply_blockERKNS0_9TestStateERN4evmc2VMERKNS_5state9BlockInfoERKNS8_11BlockHashesERKSt6vectorINS8_11TransactionESaISG_EE13evmc_revisionSt8optionalIlE
FN:90,blockchaintest_runner.cpp:_ZZN6evmone4test12_GLOBAL__N_111apply_blockERKNS0_9TestStateERN4evmc2VMERKNS_5state9BlockInfoERKNS8_11BlockHashesERKSt6vectorINS8_11TransactionESaISG_EE13evmc_revisionSt8optionalIlEENK3$_0clEv
FN:220,blockchaintest_runner.cpp:_ZN6evmone4test12_GLOBAL__N_113mining_rewardE13evmc_revision
FN:231,blockchaintest_runner.cpp:_ZN6evmone4test12_GLOBAL__N_111print_stateB5cxx11ERKNS0_9TestStateE
FNDA:2837,_ZN6evmone4test20run_blockchain_testsESt4spanIKNS0_14BlockchainTestELm18446744073709551615EERN4evmc2VME
FNDA:90298,blockchaintest_runner.cpp:_ZN6evmone4test12_GLOBAL__N_114validate_blockE13evmc_revisionNS_5state10BlobParamsERKNS0_9TestBlockEPKNS0_11BlockHeaderEb
FNDA:88969,blockchaintest_runner.cpp:_ZN6evmone4test12_GLOBAL__N_111apply_blockERKNS0_9TestStateERN4evmc2VMERKNS_5state9BlockInfoERKNS8_11BlockHashesERKSt6vectorINS8_11TransactionESaISG_EE13evmc_revisionSt8optionalIlE
FNDA:88969,blockchaintest_runner.cpp:_ZZN6evmone4test12_GLOBAL__N_111apply_blockERKNS0_9TestStateERN4evmc2VMERKNS_5state9BlockInfoERKNS8_11BlockHashesERKSt6vectorINS8_11TransactionESaISG_EE13evmc_revisionSt8optionalIlEENK3$_0clEv
FNDA:88969,blockchaintest_runner.cpp:_ZN6evmone4test12_GLOBAL__N_113mining_rewardE13evmc_revision
FNDA:0,blockchaintest_runner.cpp:_ZN6evmone4test12_GLOBAL__N_111print_stateB5cxx11ERKNS0_9TestStateE
FNF:6
FNH:5
DA:46,88969
DA:47,88969
DA:48,88969
DA:50,88969
DA:51,88969
DA:52,88969
DA:54,88969
DA:55,88969
DA:57,88969
DA:59,179648
DA:60,90679
DA:61,90679
DA:63,90679
DA:64,90679
DA:65,90679
DA:67,90679
DA:68,3575
DA:69,3575
DA:70,3575
DA:71,3575
DA:72,87104
DA:73,87104
DA:74,87104
DA:76,87104
DA:78,87104
DA:79,87104
DA:80,87104
DA:81,87104
DA:82,1942
DA:84,87104
DA:85,87104
DA:86,87104
DA:87,87104
DA:88,90679
DA:90,88969
DA:91,88969
DA:93,88969
DA:94,46932
DA:95,46932
DA:96,46932
DA:97,44
DA:98,46888
DA:99,46888
DA:101,88925
DA:102,88925
DA:103,16
DA:104,88909
DA:106,88909
DA:107,88925
DA:109,88969
DA:111,88969
DA:113,88969
DA:114,88969
DA:115,88969
DA:119,90298
DA:123,90298
DA:124,0
DA:126,90298
DA:127,13
DA:129,90285
DA:130,13
DA:133,90272
DA:134,90272
DA:135,90272
DA:136,90272
DA:137,13
DA:138,90259
DA:139,90259
DA:140,39
DA:143,90220
DA:144,13
DA:147,90207
DA:148,90207
DA:149,13
DA:151,90194
DA:152,90194
DA:153,90194
DA:154,90194
DA:155,0
DA:157,90194
DA:158,0
DA:161,90194
DA:162,0
DA:165,0
DA:166,0
DA:167,0
DA:169,90194
DA:170,0
DA:172,90194
DA:173,77204
DA:174,77204
DA:175,77204
DA:176,77204
DA:177,6
DA:178,77204
DA:180,90188
DA:181,67856
DA:183,67856
DA:184,67856
DA:185,3
DA:190,67853
DA:191,67853
DA:192,67853
DA:193,67853
DA:194,67853
DA:195,67853
DA:196,1002
DA:199,66851
DA:200,209
DA:201,66851
DA:202,22332
DA:203,22332
DA:204,22332
DA:205,22332
DA:206,3
DA:207,22332
DA:210,88971
DA:211,0
DA:213,88971
DA:214,2
DA:216,88969
DA:217,88971
DA:220,88969
DA:221,88969
DA:222,2462
DA:223,86507
DA:224,1799
DA:225,84708
DA:226,11616
DA:227,73092
DA:228,84708
DA:231,0
DA:232,0
DA:234,0
DA:235,0
DA:236,0
DA:237,0
DA:238,0
DA:239,0
DA:241,0
DA:242,0
DA:243,0
DA:244,0
DA:245,0
DA:246,0
DA:247,0
DA:248,0
DA:249,0
DA:250,0
DA:252,0
DA:253,0
DA:257,2837
DA:258,71500
DA:259,68663
DA:260,68663
DA:261,68663
DA:262,68663
DA:263,68663
DA:266,68663
DA:267,68663
DA:268,68663
DA:269,68663
DA:270,68663
DA:271,68663
DA:272,68663
DA:273,68663
DA:274,68663
DA:276,68663
DA:277,68663
DA:279,68663
DA:280,68663
DA:281,68663
DA:282,68663
DA:283,68663
DA:284,68663
DA:285,68663
DA:286,68663
DA:287,68663
DA:288,68663
DA:289,68663
DA:291,158961
DA:292,90298
DA:293,90298
DA:294,90298
DA:296,90298
DA:297,90298
DA:298,90298
DA:299,90298
DA:300,90298
DA:302,90298
DA:303,90298
DA:305,90298
DA:306,90298
DA:308,90298
DA:309,85143
DA:310,170286
DA:311,170286
DA:312,170286
DA:315,85143
DA:316,85143
DA:318,85143
DA:319,85143
DA:321,85143
DA:323,85143
DA:324,85143
DA:325,85143
DA:326,85143
DA:327,85143
DA:328,85143
DA:329,85143
DA:330,85143
DA:331,85143
DA:332,85143
DA:333,85143
DA:334,85143
DA:335,85143
DA:336,85143
DA:337,85143
DA:339,170286
DA:340,170286
DA:341,170286
DA:342,170286
DA:344,85143
DA:345,85143
DA:347,85143
DA:348,66951
DA:349,66951
DA:350,66951
DA:351,66951
DA:353,85143
DA:354,85143
DA:355,85143
DA:356,85143
DA:357,85143
DA:358,44722
DA:359,44722
DA:360,44722
DA:361,44722
DA:362,85143
DA:363,85143
DA:364,85143
DA:365,85143
DA:366,5155
DA:367,5155
DA:368,5155
DA:369,1329
DA:372,5155
DA:373,3826
DA:375,3826
DA:376,3826
DA:377,3826
DA:378,60
DA:379,3766
DA:380,3557
DA:381,209
DA:382,111
DA:384,98
DA:385,0
DA:387,98
DA:388,98
DA:389,12
DA:390,86
DA:391,86
DA:392,0
DA:393,86
DA:394,0
DA:395,86
DA:396,86
DA:397,86
DA:398,0
DA:399,0
DA:400,0
DA:401,0
DA:402,0
DA:404,0
DA:405,0
DA:406,90298
DA:407,68663
DA:408,68663
DA:409,68663
DA:410,68663
DA:411,137326
DA:412,137326
DA:413,137326
DA:414,137326
DA:415,0
DA:416,0
DA:417,137326
DA:418,68663
DA:419,2837
BRDA:59,0,0,90679
BRDA:59,0,1,88969
BRDA:67,0,0,3575
BRDA:67,0,1,87104
BRDA:81,0,0,1942
BRDA:81,0,1,85162
BRDA:93,0,0,46932
BRDA:93,0,1,42037
BRDA:96,0,0,44
BRDA:96,0,1,46888
BRDA:102,0,0,16
BRDA:102,0,1,88909
BRDA:123,0,0,0
BRDA:123,0,1,90298
BRDA:126,0,0,13
BRDA:126,0,1,90285
BRDA:129,0,0,13
BRDA:129,0,1,90272
BRDA:135,0,0,13
BRDA:135,0,1,90259
BRDA:138,0,0,39
BRDA:138,0,1,90220
BRDA:143,0,0,13
BRDA:143,0,1,90207
BRDA:147,0,0,13
BRDA:147,0,1,90194
BRDA:151,0,0,0
BRDA:151,0,1,90194
BRDA:157,0,0,74316
BRDA:157,0,1,15878
BRDA:157,1,2,0
BRDA:157,1,3,74316
BRDA:161,0,0,0
BRDA:161,0,1,90194
BRDA:165,0,0,-
BRDA:165,0,1,-
BRDA:165,1,2,-
BRDA:165,1,3,-
BRDA:169,0,0,0
BRDA:169,0,1,90194
BRDA:172,0,0,77204
BRDA:172,0,1,12990
BRDA:176,0,0,6
BRDA:176,0,1,77198
BRDA:180,0,0,67856
BRDA:180,0,1,22332
BRDA:183,0,0,2
BRDA:183,0,1,67854
BRDA:184,0,0,1
BRDA:184,0,1,67853
BRDA:192,0,0,1002
BRDA:192,0,1,66851
BRDA:199,0,0,209
BRDA:199,0,1,66642
BRDA:204,0,0,2
BRDA:204,0,1,22330
BRDA:205,0,0,1
BRDA:205,0,1,22329
BRDA:210,0,0,0
BRDA:210,0,1,88971
BRDA:213,0,0,23588
BRDA:213,0,1,65383
BRDA:213,1,2,2
BRDA:213,1,3,23586
BRDA:221,0,0,2462
BRDA:221,0,1,86507
BRDA:223,0,0,1799
BRDA:223,0,1,84708
BRDA:225,0,0,11616
BRDA:225,0,1,73092
BRDA:234,0,0,-
BRDA:234,0,1,-
BRDA:241,0,0,-
BRDA:241,0,1,-
BRDA:244,0,0,-
BRDA:244,0,1,-
BRDA:246,0,0,-
BRDA:246,0,1,-
BRDA:258,0,0,68663
BRDA:258,0,1,2837
BRDA:266,0,0,68663
BRDA:266,0,1,0
BRDA:266,1,2,0
BRDA:266,1,3,68663
BRDA:266,2,4,68663
BRDA:266,2,5,0
BRDA:267,0,0,68663
BRDA:267,0,1,0
BRDA:267,1,2,0
BRDA:267,1,3,68663
BRDA:267,2,4,68663
BRDA:267,2,5,0
BRDA:268,0,0,68663
BRDA:268,0,1,0
BRDA:268,1,2,0
BRDA:268,1,3,68663
BRDA:268,2,4,68663
BRDA:268,2,5,0
BRDA:269,0,0,0
BRDA:269,0,1,68663
BRDA:269,1,2,68663
BRDA:269,1,3,0
BRDA:269,2,4,68663
BRDA:269,2,5,0
BRDA:270,0,0,68663
BRDA:270,0,1,0
BRDA:270,1,2,0
BRDA:270,1,3,68663
BRDA:270,2,4,68663
BRDA:270,2,5,0
BRDA:274,0,0,68663
BRDA:274,0,1,0
BRDA:274,1,2,0
BRDA:274,1,3,68663
BRDA:274,2,4,68663
BRDA:274,2,5,0
BRDA:291,0,0,90298
BRDA:291,0,1,68663
BRDA:298,0,0,90298
BRDA:298,0,1,0
BRDA:300,0,0,90298
BRDA:300,0,1,0
BRDA:300,1,2,0
BRDA:300,1,3,90298
BRDA:308,0,0,85143
BRDA:308,0,1,5155
BRDA:310,0,0,85143
BRDA:310,0,1,0
BRDA:310,1,2,0
BRDA:310,1,3,85143
BRDA:310,2,4,85143
BRDA:310,2,5,0
BRDA:321,0,0,85143
BRDA:321,0,1,0
BRDA:321,1,2,0
BRDA:321,1,3,85143
BRDA:321,2,4,85143
BRDA:321,2,5,0
BRDA:333,0,0,85143
BRDA:333,0,1,0
BRDA:339,0,0,85143
BRDA:339,0,1,0
BRDA:339,1,2,85143
BRDA:339,1,3,0
BRDA:339,2,4,0
BRDA:339,2,5,85143
BRDA:341,0,0,85143
BRDA:341,0,1,0
BRDA:341,1,2,0
BRDA:341,1,3,85143
BRDA:341,2,4,85143
BRDA:341,2,5,0
BRDA:344,0,0,85143
BRDA:344,0,1,0
BRDA:344,1,2,0
BRDA:344,1,3,85143
BRDA:344,2,4,85143
BRDA:344,2,5,0
BRDA:347,0,0,66951
BRDA:347,0,1,18192
BRDA:349,0,0,0
BRDA:349,0,1,66951
BRDA:349,1,2,66951
BRDA:349,1,3,0
BRDA:349,2,4,66951
BRDA:349,2,5,0
BRDA:353,0,0,85143
BRDA:353,0,1,0
BRDA:353,1,2,0
BRDA:353,1,3,85143
BRDA:353,2,4,85143
BRDA:353,2,5,0
BRDA:355,0,0,85143
BRDA:355,0,1,0
BRDA:355,1,2,0
BRDA:355,1,3,85143
BRDA:355,2,4,85143
BRDA:355,2,5,0
BRDA:357,0,0,44722
BRDA:357,0,1,40421
BRDA:359,0,0,44722
BRDA:359,0,1,0
BRDA:359,1,2,44722
BRDA:359,1,3,0
BRDA:359,2,4,0
BRDA:359,2,5,44722
BRDA:362,0,0,85143
BRDA:362,0,1,0
BRDA:362,1,2,0
BRDA:362,1,3,85143
BRDA:362,2,4,85143
BRDA:362,2,5,0
BRDA:363,0,0,85143
BRDA:363,0,1,0
BRDA:363,1,2,0
BRDA:363,1,3,85143
BRDA:363,2,4,85143
BRDA:363,2,5,0
BRDA:368,0,0,1329
BRDA:368,0,1,3826
BRDA:377,0,0,60
BRDA:377,0,1,3766
BRDA:379,0,0,3557
BRDA:379,0,1,209
BRDA:381,0,0,111
BRDA:381,0,1,98
BRDA:384,0,0,0
BRDA:384,0,1,98
BRDA:387,0,0,12
BRDA:387,0,1,86
BRDA:387,1,2,98
BRDA:387,1,3,0
BRDA:387,2,4,12
BRDA:387,2,5,86
BRDA:390,0,0,0
BRDA:390,0,1,86
BRDA:393,0,0,0
BRDA:393,0,1,86
BRDA:395,0,0,86
BRDA:395,0,1,0
BRDA:395,1,2,86
BRDA:395,1,3,0
BRDA:395,2,4,86
BRDA:395,2,5,0
BRDA:398,0,0,-
BRDA:398,0,1,-
BRDA:400,0,0,-
BRDA:400,0,1,-
BRDA:404,0,0,-
BRDA:404,0,1,-
BRDA:404,1,2,-
BRDA:404,1,3,-
BRDA:404,2,4,-
BRDA:404,2,5,-
BRDA:408,0,0,68663
BRDA:408,0,1,0
BRDA:411,0,0,68663
BRDA:411,0,1,0
BRDA:411,1,2,68663
BRDA:411,1,3,0
BRDA:411,2,4,0
BRDA:411,2,5,68663
BRDA:414,0,0,-
BRDA:414,0,1,-
BRF:244
BRH:148
LF:305
LH:264
end_of_record
SF:/home/user/sources/ethereum/evmone/test/state/account.hpp
FN:82,_ZNK6evmone5state7Account8is_emptyEv
FNDA:2478588,_ZNK6evmone5state7Account8is_emptyEv
FNF:1
FNH:1
DA:82,2478588
DA:83,2478588
DA:84,2478588
BRDA:83,0,0,2122562
BRDA:83,0,1,356026
BRDA:83,1,2,1045827
BRDA:83,1,3,1076735
BRDA:83,2,4,306893
BRDA:83,2,5,738934
BRF:6
BRH:6
LF:3
LH:3
end_of_record
SF:/home/user/sources/ethereum/evmone/test/state/block.cpp
FN:16,_ZN6evmone5state13calc_base_feeEllm
FN:43,_ZN6evmone5state22max_blob_gas_per_blockERKNS0_10BlobParamsE
FN:50,_ZN6evmone5state22compute_blob_gas_priceERKNS0_10BlobParamsEm
FN:81,_ZN6evmone5state20calc_excess_blob_gasE13evmc_revisionRKNS0_10BlobParamsEmmmRKN4intx4uintILj256EEE
FN:97,_ZN6evmone5state10rlp_encodeB5cxx11ERKNS0_10WithdrawalE
FN:54,block.cpp:_ZZN6evmone5state22compute_blob_gas_priceERKNS0_10BlobParamsEmENK3$_0clEmmm
FNDA:77204,_ZN6evmone5state13calc_base_feeEllm
FNDA:129806,_ZN6evmone5state22max_blob_gas_per_blockERKNS0_10BlobParamsE
FNDA:198691,_ZN6evmone5state22compute_blob_gas_priceERKNS0_10BlobParamsEm
FNDA:67853,_ZN6evmone5state20calc_excess_blob_gasE13evmc_revisionRKNS0_10BlobParamsEmmmRKN4intx4uintILj256EEE
FNDA:4164,_ZN6evmone5state10rlp_encodeB5cxx11ERKNS0_10WithdrawalE
FNDA:198691,block.cpp:_ZZN6evmone5state22compute_blob_gas_priceERKNS0_10BlobParamsEmENK3$_0clEmmm
FNF:6
FNH:6
DA:16,77204
DA:17,77204
DA:20,77204
DA:21,672
DA:22,672
DA:23,672
DA:24,76532
DA:25,15
DA:26,15
DA:27,15
DA:28,15
DA:29,15
DA:30,15
DA:31,15
DA:32,15
DA:33,76517
DA:34,76517
DA:35,76517
DA:36,76517
DA:37,76517
DA:38,76517
DA:39,76517
DA:40,77204
DA:43,129806
DA:44,129806
DA:45,129806
DA:50,198691
DA:53,198691
DA:54,198691
DA:55,198691
DA:56,198691
DA:57,198691
DA:58,198691
DA:59,504610
DA:60,306399
DA:61,306399
DA:63,306399
DA:64,306399
DA:65,305919
DA:66,480
DA:67,480
DA:68,305919
DA:69,305919
DA:70,198211
DA:71,198691
DA:73,198691
DA:74,198691
DA:75,198691
DA:76,198691
DA:81,67853
DA:83,67853
DA:85,67853
DA:86,67853
DA:87,60150
DA:89,7703
DA:90,201
DA:91,201
DA:93,7502
DA:94,7703
DA:97,4164
DA:98,4164
DA:99,4164
DA:100,4164
BRDA:20,0,0,672
BRDA:20,0,1,76532
BRDA:24,0,0,15
BRDA:24,0,1,76517
BRDA:59,0,0,306399
BRDA:59,0,1,198211
BRDA:64,0,0,305919
BRDA:64,0,1,480
BRDA:86,0,0,60150
BRDA:86,0,1,7703
BRDA:89,0,0,201
BRDA:89,0,1,7502
BRDA:89,1,2,2857
BRDA:89,1,3,4846
BRDA:89,2,4,201
BRDA:89,2,5,2656
BRF:16
BRH:16
LF:80
LH:80
end_of_record
SF:/home/user/sources/ethereum/evmone/test/state/block.hpp
FN:29,_ZNK6evmone5state10Withdrawal10get_amountEv
FNDA:4168,_ZNK6evmone5state10Withdrawal10get_amountEv
FNF:1
FNH:1
DA:29,4168
DA:30,4168
DA:31,4168
BRF:0
BRH:0
LF:3
LH:3
end_of_record
SF:/home/user/sources/ethereum/evmone/test/state/bloom_filter.cpp
FN:34,_ZN6evmone5state20compute_bloom_filterESt4spanIKNS0_3LogELm18446744073709551615EE
FN:47,_ZN6evmone5state20compute_bloom_filterESt4spanIKNS0_18TransactionReceiptELm18446744073709551615EE
FN:58,_ZN6evmone5state23bloom_filter_from_bytesERKSt17basic_string_viewIhN4evmc11byte_traitsIhEEE
FN:17,bloom_filter.cpp:_ZN6evmone5state12_GLOBAL__N_16add_toERNS0_11BloomFilterERKSt17basic_string_viewIhN4evmc11byte_traitsIhEEE
FNDA:147003,_ZN6evmone5state20compute_bloom_filterESt4spanIKNS0_3LogELm18446744073709551615EE
FNDA:88969,_ZN6evmone5state20compute_bloom_filterESt4spanIKNS0_18TransactionReceiptELm18446744073709551615EE
FNDA:158963,_ZN6evmone5state23bloom_filter_from_bytesERKSt17basic_string_viewIhN4evmc11byte_traitsIhEEE
FNDA:68566,bloom_filter.cpp:_ZN6evmone5state12_GLOBAL__N_16add_toERNS0_11BloomFilterERKSt17basic_string_viewIhN4evmc11byte_traitsIhEEE
FNF:4
FNH:4
DA:17,68566
DA:18,68566
DA:21,68566
DA:22,205698
DA:23,205698
DA:24,205698
DA:25,205698
DA:26,205698
DA:27,205698
DA:28,205698
DA:29,68566
DA:34,147003
DA:35,147003
DA:36,147003
DA:37,28471
DA:38,28471
DA:39,28471
DA:40,40095
DA:41,28471
DA:43,147003
DA:44,147003
DA:47,88969
DA:48,88969
DA:50,88969
DA:51,87104
DA:52,87104
DA:54,88969
DA:55,88969
DA:58,158963
DA:60,158963
DA:61,158963
DA:62,158963
DA:63,158963
BRDA:21,0,0,205698
BRDA:21,0,1,68566
BRDA:36,0,0,28471
BRDA:36,0,1,147003
BRDA:39,0,0,40095
BRDA:39,0,1,28471
BRDA:50,0,0,87104
BRDA:50,0,1,88969
BRF:8
BRH:8
LF:33
LH:33
end_of_record
SF:/home/user/sources/ethereum/evmone/test/state/bloom_filter.hpp
FN:21,_ZNK6evmone5state11BloomFiltercvSt17basic_string_viewIhN4evmc11byte_traitsIhEEEEv
FNDA:393547,_ZNK6evmone5state11BloomFiltercvSt17basic_string_viewIhN4evmc11byte_traitsIhEEEEv
FNF:1
FNH:1
DA:21,393547
BRF:0
BRH:0
LF:1
LH:1
end_of_record
SF:/home/user/sources/ethereum/evmone/test/state/errors.hpp
FN:42,_ZZN6evmone5state15evmone_categoryEvENK8Category4nameEv
FN:45,_ZZN6evmone5state15evmone_categoryEvENK8Category7messageB5cxx11Ei
FN:39,_ZN6evmone5state15evmone_categoryEv
FN:106,_ZN6evmone5state15make_error_codeENS0_9ErrorCodeE
FNDA:0,_ZZN6evmone5state15evmone_categoryEvENK8Category4nameEv
FNDA:3575,_ZZN6evmone5state15evmone_categoryEvENK8Category7messageB5cxx11Ei
FNDA:6631,_ZN6evmone5state15evmone_categoryEv
FNDA:6631,_ZN6evmone5state15make_error_codeENS0_9ErrorCodeE
FNF:4
FNH:3
DA:39,6631
DA:40,6631
DA:41,6631
DA:42,6631
DA:44,6631
DA:45,6631
DA:46,3575
DA:47,3575
DA:48,0
DA:49,0
DA:50,2183
DA:51,2183
DA:52,17
DA:53,17
DA:54,1104
DA:55,1104
DA:56,6
DA:57,6
DA:58,12
DA:59,12
DA:60,2
DA:61,2
DA:62,5
DA:63,5
DA:64,14
DA:65,14
DA:66,6
DA:67,6
DA:68,4
DA:69,4
DA:70,37
DA:71,37
DA:72,11
DA:73,11
DA:74,3
DA:75,3
DA:76,6
DA:77,6
DA:78,27
DA:79,27
DA:80,123
DA:81,123
DA:82,2
DA:83,2
DA:84,2
DA:85,2
DA:86,11
DA:87,11
DA:88,0
DA:89,0
DA:90,0
DA:91,0
DA:92,0
DA:93,3575
DA:94,3575
DA:95,6631
DA:97,6631
DA:98,6631
DA:99,6631
DA:106,6631
DA:107,6631
DA:108,6631
BRDA:48,0,0,0
BRDA:48,0,1,3575
BRDA:50,0,0,2183
BRDA:50,0,1,1392
BRDA:52,0,0,17
BRDA:52,0,1,3558
BRDA:54,0,0,1104
BRDA:54,0,1,2471
BRDA:56,0,0,6
BRDA:56,0,1,3569
BRDA:58,0,0,12
BRDA:58,0,1,3563
BRDA:60,0,0,2
BRDA:60,0,1,3573
BRDA:62,0,0,5
BRDA:62,0,1,3570
BRDA:64,0,0,14
BRDA:64,0,1,3561
BRDA:66,0,0,6
BRDA:66,0,1,3569
BRDA:68,0,0,4
BRDA:68,0,1,3571
BRDA:70,0,0,37
BRDA:70,0,1,3538
BRDA:72,0,0,11
BRDA:72,0,1,3564
BRDA:74,0,0,3
BRDA:74,0,1,3572
BRDA:76,0,0,6
BRDA:76,0,1,3569
BRDA:78,0,0,27
BRDA:78,0,1,3548
BRDA:80,0,0,123
BRDA:80,0,1,3452
BRDA:82,0,0,2
BRDA:82,0,1,3573
BRDA:84,0,0,2
BRDA:84,0,1,3573
BRDA:86,0,0,11
BRDA:86,0,1,3564
BRDA:88,0,0,0
BRDA:88,0,1,3575
BRDA:90,0,0,0
BRDA:90,0,1,3575
BRF:44
BRH:41
LF:112
LH:105
end_of_record
SF:/home/user/sources/ethereum/evmone/test/state/ethash_difficulty.cpp
FN:76,_ZN6evmone5state20calculate_difficultyElblll13evmc_revision
FN:34,ethash_difficulty.cpp:_ZN6evmone5state12_GLOBAL__N_134calculate_difficulty_pre_byzantiumEllll13evmc_revision
FN:57,ethash_difficulty.cpp:_ZN6evmone5state12_GLOBAL__N_136calculate_difficulty_since_byzantiumElblll13evmc_revision
FN:14,ethash_difficulty.cpp:_ZN6evmone5state12_GLOBAL__N_114get_bomb_delayE13evmc_revision
FNDA:90194,_ZN6evmone5state20calculate_difficultyElblll13evmc_revision
FNDA:2462,ethash_difficulty.cpp:_ZN6evmone5state12_GLOBAL__N_134calculate_difficulty_pre_byzantiumEllll13evmc_revision
FNDA:13416,ethash_difficulty.cpp:_ZN6evmone5state12_GLOBAL__N_136calculate_difficulty_since_byzantiumElblll13evmc_revision
FNDA:13416,ethash_difficulty.cpp:_ZN6evmone5state12_GLOBAL__N_114get_bomb_delayE13evmc_revision
FNF:4
FNH:4
DA:14,13416
DA:15,13416
DA:16,13416
DA:17,0
DA:18,0
DA:19,1799
DA:20,1799
DA:21,1983
DA:22,3967
DA:23,6096
DA:24,6096
DA:25,2633
DA:26,2633
DA:27,2888
DA:28,2888
DA:29,13416
DA:30,13416
DA:34,2462
DA:36,2462
DA:37,2462
DA:39,2462
DA:41,2462
DA:42,1107
DA:43,1355
DA:44,1355
DA:46,2462
DA:47,0
DA:48,2462
DA:49,0
DA:51,2462
DA:52,2462
DA:57,13416
DA:58,13416
DA:59,13416
DA:60,13416
DA:61,13416
DA:62,13416
DA:63,13416
DA:65,13416
DA:66,13416
DA:67,13416
DA:68,13416
DA:69,13416
DA:70,13416
DA:76,90194
DA:78,90194
DA:80,90194
DA:81,74316
DA:83,15878
DA:84,15878
DA:85,2462
DA:86,2462
DA:87,15878
DA:88,13416
DA:90,15878
DA:91,90194
BRDA:17,0,0,0
BRDA:17,0,1,13416
BRDA:19,0,0,1799
BRDA:19,0,1,11617
BRDA:21,0,0,1983
BRDA:21,0,1,11433
BRDA:22,0,0,1984
BRDA:22,0,1,11432
BRDA:23,0,0,2129
BRDA:23,0,1,11287
BRDA:25,0,0,2633
BRDA:25,0,1,10783
BRDA:27,0,0,2888
BRDA:27,0,1,10528
BRDA:41,0,0,1107
BRDA:41,0,1,1355
BRDA:42,0,0,744
BRDA:42,0,1,363
BRDA:46,0,0,0
BRDA:46,0,1,2462
BRDA:48,0,0,0
BRDA:48,0,1,2462
BRDA:62,0,0,13416
BRDA:62,0,1,0
BRDA:63,0,0,0
BRDA:63,0,1,13416
BRDA:80,0,0,74316
BRDA:80,0,1,15878
BRDA:84,0,0,2462
BRDA:84,0,1,13416
BRF:30
BRH:25
LF:55
LH:51
end_of_record
SF:/home/user/sources/ethereum/evmone/test/state/hash_utils.hpp
FN:31,_ZN6evmone9keccak256ESt17basic_string_viewIhN4evmc11byte_traitsIhEEE
FNDA:44016077,_ZN6evmone9keccak256ESt17basic_string_viewIhN4evmc11byte_traitsIhEEE
FNF:1
FNH:1
DA:31,44016077
DA:32,44016077
DA:33,44016077
BRF:0
BRH:0
LF:3
LH:3
end_of_record
SF:/home/user/sources/ethereum/evmone/test/state/host.cpp
FN:12,_ZNK6evmone5state4Host14account_existsERKN4evmc7addressE
FN:18,_ZNK6evmone5state4Host11get_storageERKN4evmc7addressERKNS2_7bytes32E
FN:24,_ZN6evmone5state4Host11set_storageERKN4evmc7addressERKNS2_7bytes32ES8_
FN:72,_ZNK6evmone5state4Host11get_balanceERKN4evmc7addressE
FN:102,_ZNK6evmone5state4Host13get_code_sizeERKN4evmc7addressE
FN:108,_ZNK6evmone5state4Host13get_code_hashERKN4evmc7addressE
FN:118,_ZNK6evmone5state4Host9copy_codeERKN4evmc7addressEmPhm
FN:127,_ZN6evmone5state4Host12selfdestructERKN4evmc7addressES5_
FN:166,_ZN6evmone5state22compute_create_addressERKN4evmc7addressEm
FN:202,_ZN6evmone5state23compute_create2_addressERKN4evmc7addressERKNS1_7bytes32ESt17basic_string_viewIhNS1_11byte_traitsIhEEE
FN:218,_ZN6evmone5state4Host15prepare_messageE12evmc_message
FN:260,_ZN6evmone5state4Host6createERK12evmc_message
FN:331,_ZN6evmone5state4Host15execute_messageERK12evmc_message
FN:378,_ZN6evmone5state4Host4callERK12evmc_message
FN:406,_ZNK6evmone5state4Host14get_tx_contextEv
FN:431,_ZNK6evmone5state4Host14get_block_hashEl
FN:437,_ZN6evmone5state4Host8emit_logERKN4evmc7addressEPKhmPKNS2_7bytes32Em
FN:442,_ZN6evmone5state4Host14access_accountERKN4evmc7addressE
FN:457,_ZN6evmone5state4Host14access_storageERKN4evmc7addressERKNS2_7bytes32E
FN:465,_ZNK6evmone5state4Host21get_transient_storageERKN4evmc7addressERKNS2_7bytes32E
FN:473,_ZN6evmone5state4Host21set_transient_storageERKN4evmc7addressERKNS2_7bytes32ES8_
FN:82,host.cpp:_ZN6evmone5state12_GLOBAL__N_119is_create_collisionERKNS0_7AccountE
FNDA:105541,_ZNK6evmone5state4Host14account_existsERKN4evmc7addressE
FNDA:1026458,_ZNK6evmone5state4Host11get_storageERKN4evmc7addressERKNS2_7bytes32E
FNDA:4477697,_ZN6evmone5state4Host11set_storageERKN4evmc7addressERKNS2_7bytes32ES8_
FNDA:126288,_ZNK6evmone5state4Host11get_balanceERKN4evmc7addressE
FNDA:471127,_ZNK6evmone5state4Host13get_code_sizeERKN4evmc7addressE
FNDA:3380,_ZNK6evmone5state4Host13get_code_hashERKN4evmc7addressE
FNDA:2459746,_ZNK6evmone5state4Host9copy_codeERKN4evmc7addressEmPhm
FNDA:7476,_ZN6evmone5state4Host12selfdestructERKN4evmc7addressES5_
FNDA:61523,_ZN6evmone5state22compute_create_addressERKN4evmc7addressEm
FNDA:25598,_ZN6evmone5state23compute_create2_addressERKN4evmc7addressERKNS1_7bytes32ESt17basic_string_viewIhNS1_11byte_traitsIhEEE
FNDA:4335850,_ZN6evmone5state4Host15prepare_messageE12evmc_message
FNDA:87121,_ZN6evmone5state4Host6createERK12evmc_message
FNDA:4335754,_ZN6evmone5state4Host15execute_messageERK12evmc_message
FNDA:4335850,_ZN6evmone5state4Host4callERK12evmc_message
FNDA:173055,_ZNK6evmone5state4Host14get_tx_contextEv
FNDA:69780,_ZNK6evmone5state4Host14get_block_hashEl
FNDA:30047,_ZN6evmone5state4Host8emit_logERKN4evmc7addressEPKhmPKNS2_7bytes32Em
FNDA:5021742,_ZN6evmone5state4Host14access_accountERKN4evmc7addressE
FNDA:5452357,_ZN6evmone5state4Host14access_storageERKN4evmc7addressERKNS2_7bytes32E
FNDA:1890213,_ZNK6evmone5state4Host21get_transient_storageERKN4evmc7addressERKNS2_7bytes32E
FNDA:9079234,_ZN6evmone5state4Host21set_transient_storageERKN4evmc7addressERKNS2_7bytes32ES8_
FNDA:80724,host.cpp:_ZN6evmone5state12_GLOBAL__N_119is_create_collisionERKNS0_7AccountE
FNF:22
FNH:22
DA:12,105541
DA:13,105541
DA:14,105541
DA:15,105541
DA:18,1026458
DA:19,1026458
DA:20,1026458
DA:24,4477697
DA:28,4477697
DA:29,4477697
DA:31,4477697
DA:32,4477697
DA:33,4477697
DA:34,4477697
DA:36,4477697
DA:37,4477697
DA:38,1306459
DA:39,1306459
DA:40,1208916
DA:41,97543
DA:42,45503
DA:43,52040
DA:44,52040
DA:45,1306459
DA:46,3171238
DA:47,791883
DA:48,791883
DA:49,48
DA:50,791835
DA:51,222
DA:52,791883
DA:53,2379355
DA:54,754207
DA:55,754207
DA:56,754207
DA:57,72
DA:58,754135
DA:59,754111
DA:60,24
DA:61,24
DA:62,754207
DA:65,4477697
DA:66,51161
DA:67,4477697
DA:68,4477697
DA:69,4477697
DA:72,126288
DA:73,126288
DA:74,126288
DA:75,126288
DA:82,80724
DA:87,80724
DA:88,368
DA:89,80356
DA:90,312
DA:91,80044
DA:92,178
DA:96,80044
DA:97,79866
DA:98,80044
DA:102,471127
DA:103,471127
DA:104,471127
DA:105,471127
DA:108,3380
DA:109,3380
DA:110,3380
DA:111,658
DA:113,2722
DA:114,3380
DA:118,2459746
DA:119,2459746
DA:120,2459746
DA:121,2459746
DA:122,2459746
DA:123,2459746
DA:124,2459746
DA:127,7476
DA:128,7476
DA:129,42
DA:130,7476
DA:131,7476
DA:132,7476
DA:134,7476
DA:135,7476
DA:137,7476
DA:138,2274
DA:142,2274
DA:143,2274
DA:147,2274
DA:148,2274
DA:152,5202
DA:153,5202
DA:156,5202
DA:157,4334
DA:158,4334
DA:159,4334
DA:160,4334
DA:161,4334
DA:162,868
DA:163,5202
DA:166,61523
DA:167,61523
DA:168,61523
DA:169,61523
DA:170,61523
DA:172,61523
DA:173,61523
DA:174,61523
DA:175,61523
DA:177,61523
DA:178,55583
DA:179,55583
DA:180,55583
DA:181,5940
DA:182,5940
DA:185,5940
DA:186,5940
DA:187,5940
DA:188,5940
DA:189,5940
DA:191,61523
DA:192,61523
DA:194,61523
DA:195,61523
DA:196,61523
DA:197,61523
DA:198,61523
DA:202,25598
DA:203,25598
DA:204,25598
DA:205,25598
DA:206,25598
DA:207,25598
DA:208,25598
DA:209,25598
DA:210,25598
DA:211,25598
DA:212,25598
DA:213,25598
DA:214,25598
DA:215,25598
DA:218,4335850
DA:219,4335850
DA:220,4335850
DA:221,195383
DA:222,195383
DA:225,195383
DA:226,96
DA:228,195287
DA:229,48284
DA:230,48284
DA:231,48284
DA:232,48284
DA:234,195287
DA:235,87121
DA:237,87121
DA:238,87121
DA:240,87121
DA:241,87121
DA:242,87121
DA:243,61523
DA:244,25598
DA:245,25598
DA:246,25598
DA:247,25598
DA:248,25598
DA:249,25598
DA:252,87121
DA:253,87121
DA:254,195287
DA:256,4335754
DA:257,4335850
DA:260,87121
DA:261,87121
DA:263,87121
DA:264,87121
DA:265,87121
DA:266,6397
DA:267,80724
DA:268,858
DA:269,86263
DA:271,86263
DA:272,86263
DA:274,86263
DA:275,84967
DA:277,86263
DA:279,86263
DA:280,86263
DA:281,86263
DA:282,86263
DA:283,86263
DA:284,86263
DA:285,86263
DA:287,86263
DA:288,86263
DA:289,86263
DA:290,86263
DA:291,86263
DA:292,86263
DA:293,3850
DA:294,3850
DA:295,3850
DA:296,3850
DA:298,82413
DA:299,82413
DA:301,82413
DA:303,82413
DA:304,94
DA:307,82319
DA:308,82319
DA:309,82319
DA:310,346
DA:311,346
DA:312,2
DA:313,346
DA:314,346
DA:316,81973
DA:317,27640
DA:319,27640
DA:320,84
DA:322,27556
DA:323,27556
DA:324,27556
DA:325,27556
DA:327,81889
DA:328,81973
DA:331,4335754
DA:332,4335754
DA:333,4335754
DA:334,87121
DA:336,4248633
DA:337,4064461
DA:338,4064461
DA:339,4064461
DA:340,7620
DA:341,4064461
DA:343,4248633
DA:344,4064461
DA:345,4064461
DA:346,3937010
DA:347,127451
DA:348,127451
DA:352,127451
DA:356,127451
DA:357,127451
DA:358,127451
DA:359,127451
DA:360,127451
DA:361,127451
DA:362,127451
DA:363,4064461
DA:366,4248633
DA:367,1640574
DA:370,2608059
DA:371,2608059
DA:372,116591
DA:374,2491468
DA:375,2608059
DA:378,4335850
DA:379,4335850
DA:380,4335850
DA:381,96
DA:383,4335754
DA:384,4335754
DA:386,4335754
DA:388,4335754
DA:389,2416685
DA:390,2416685
DA:391,2416685
DA:392,2416685
DA:395,2416685
DA:396,2416685
DA:399,2416685
DA:400,395670
DA:401,2416685
DA:402,4335754
DA:403,4335850
DA:406,173055
DA:409,173055
DA:410,173055
DA:411,173055
DA:412,173055
DA:414,173055
DA:415,173055
DA:416,173055
DA:417,173055
DA:418,173055
DA:419,173055
DA:420,173055
DA:421,173055
DA:422,173055
DA:423,173055
DA:424,173055
DA:425,173055
DA:426,173055
DA:427,173055
DA:428,173055
DA:431,69780
DA:432,69780
DA:433,69780
DA:437,30047
DA:438,30047
DA:439,30047
DA:442,5021742
DA:443,5021742
DA:444,17881
DA:446,5003861
DA:448,5003861
DA:449,4409419
DA:451,594442
DA:452,594442
DA:453,594442
DA:454,5003861
DA:457,5452357
DA:458,5452357
DA:459,5452357
DA:460,5452357
DA:461,5452357
DA:465,1890213
DA:466,1890213
DA:467,1890213
DA:468,1890213
DA:469,1890213
DA:473,9079234
DA:474,9079234
DA:475,9079234
DA:476,9079234
DA:477,9079234
BRDA:14,0,0,105206
BRDA:14,0,1,335
BRDA:14,1,2,10616
BRDA:14,1,3,94590
BRDA:14,2,4,92914
BRDA:14,2,5,1676
BRDA:37,0,0,2931607
BRDA:37,0,1,1546090
BRDA:37,1,2,1306459
BRDA:37,1,3,1625148
BRDA:39,0,0,1208916
BRDA:39,0,1,97543
BRDA:41,0,0,45503
BRDA:41,0,1,52040
BRDA:46,0,0,1546090
BRDA:46,0,1,1625148
BRDA:46,1,2,791883
BRDA:46,1,3,754207
BRDA:48,0,0,2532
BRDA:48,0,1,789351
BRDA:48,1,2,48
BRDA:48,1,3,2484
BRDA:50,0,0,789351
BRDA:50,0,1,2484
BRDA:50,1,2,222
BRDA:50,1,3,789129
BRDA:53,0,0,754207
BRDA:53,0,1,1625148
BRDA:56,0,0,72
BRDA:56,0,1,754135
BRDA:58,0,0,754111
BRDA:58,0,1,24
BRDA:65,0,0,51161
BRDA:65,0,1,4426536
BRDA:74,0,0,126273
BRDA:74,0,1,15
BRDA:87,0,0,368
BRDA:87,0,1,80356
BRDA:89,0,0,312
BRDA:89,0,1,80044
BRDA:91,0,0,178
BRDA:91,0,1,79866
BRDA:110,0,0,6
BRDA:110,0,1,3374
BRDA:110,1,2,652
BRDA:110,1,3,2722
BRDA:128,0,0,42
BRDA:128,0,1,7434
BRDA:137,0,0,6406
BRDA:137,0,1,1070
BRDA:137,1,2,2274
BRDA:137,1,3,4132
BRDA:156,0,0,4334
BRDA:156,0,1,868
BRDA:177,0,0,55583
BRDA:177,0,1,5940
BRDA:179,0,0,14586
BRDA:179,0,1,40997
BRDA:220,0,0,147003
BRDA:220,0,1,4188847
BRDA:220,1,2,22740
BRDA:220,1,3,4166107
BRDA:220,2,4,25640
BRDA:220,2,5,4140467
BRDA:225,0,0,96
BRDA:225,0,1,195287
BRDA:228,0,0,48284
BRDA:228,0,1,147003
BRDA:234,0,0,61523
BRDA:234,0,1,133764
BRDA:234,1,2,25598
BRDA:234,1,3,108166
BRDA:242,0,0,61523
BRDA:242,0,1,25598
BRDA:265,0,0,6397
BRDA:265,0,1,80724
BRDA:267,0,0,858
BRDA:267,0,1,79866
BRDA:274,0,0,84967
BRDA:274,0,1,1296
BRDA:292,0,0,3850
BRDA:292,0,1,82413
BRDA:303,0,0,81145
BRDA:303,0,1,1268
BRDA:303,1,2,94
BRDA:303,1,3,81051
BRDA:309,0,0,346
BRDA:309,0,1,81973
BRDA:311,0,0,2
BRDA:311,0,1,344
BRDA:316,0,0,27640
BRDA:316,0,1,54333
BRDA:319,0,0,20037
BRDA:319,0,1,7603
BRDA:319,1,2,84
BRDA:319,1,3,19953
BRDA:333,0,0,61523
BRDA:333,0,1,4274231
BRDA:333,1,2,25598
BRDA:333,1,3,4248633
BRDA:336,0,0,4064461
BRDA:336,0,1,184172
BRDA:339,0,0,7620
BRDA:339,0,1,4056841
BRDA:343,0,0,4064461
BRDA:343,0,1,184172
BRDA:345,0,0,3937010
BRDA:345,0,1,127451
BRDA:366,0,0,4243247
BRDA:366,0,1,5386
BRDA:366,1,2,1640574
BRDA:366,1,3,2608059
BRDA:366,2,4,1640574
BRDA:366,2,5,2602673
BRDA:371,0,0,116591
BRDA:371,0,1,2491468
BRDA:380,0,0,96
BRDA:380,0,1,4335754
BRDA:388,0,0,2416685
BRDA:388,0,1,1919069
BRDA:392,0,0,401306
BRDA:392,0,1,2015379
BRDA:392,1,2,395762
BRDA:392,1,3,5544
BRDA:399,0,0,395762
BRDA:399,0,1,2020923
BRDA:399,1,2,395670
BRDA:399,1,3,92
BRDA:443,0,0,17881
BRDA:443,0,1,5003861
BRDA:448,0,0,2296482
BRDA:448,0,1,2707379
BRDA:448,1,2,2112937
BRDA:448,1,3,594442
BRDA:468,0,0,1888577
BRDA:468,0,1,1636
BRF:136
BRH:136
LF:329
LH:329
end_of_record
SF:/home/user/sources/ethereum/evmone/test/state/host.hpp
FN:50,_ZN6evmone5state4HostC2E13evmc_revisionRN4evmc2VMERNS0_5StateERKNS0_9BlockInfoERKNS0_11BlockHashesERKNS0_11TransactionE
FN:53,_ZN6evmone5state4Host9take_logsEv
FNDA:354331,_ZN6evmone5state4HostC2E13evmc_revisionRN4evmc2VMERNS0_5StateERKNS0_9BlockInfoERKNS0_11BlockHashesERKNS0_11TransactionE
FNDA:147003,_ZN6evmone5state4Host9take_logsEv
FNF:2
FNH:2
DA:50,354331
DA:51,354331
DA:53,147003
BRF:0
BRH:0
LF:3
LH:3
end_of_record
SF:/home/user/sources/ethereum/evmone/test/state/mpt.cpp
FN:161,_ZNK6evmone5state7MPTNode6encodeB5cxx11Ev
FN:187,_ZN6evmone5state3MPTC2Ev
FN:188,_ZN6evmone5state3MPTD2Ev
FN:191,_ZN6evmone5state3MPT6insertESt17basic_string_viewIhN4evmc11byte_traitsIhEEEONSt7__cxx1112basic_stringIhS5_SaIhEEE
FN:201,_ZNK6evmone5state3MPT4hashEv
FN:164,mpt.cpp:_ZZNK6evmone5state7MPTNode6encodeB5cxx11EvENK3$_0clEONSt7__cxx1112basic_stringIhN4evmc11byte_traitsIhEESaIhEEE
FN:55,mpt.cpp:_ZNK6evmone5state12_GLOBAL__N_14Path5emptyEv
FN:60,mpt.cpp:_ZNK6evmone5state12_GLOBAL__N_14Path6encodeB5cxx11ENS1_4KindE
FN:44,mpt.cpp:_ZN6evmone5state12_GLOBAL__N_14PathC2ESt17basic_string_viewIhN4evmc11byte_traitsIhEEE
FN:106,mpt.cpp:_ZN6evmone5state7MPTNode6insertERKNS0_12_GLOBAL__N_14PathEONSt7__cxx1112basic_stringIhN4evmc11byte_traitsIhEESaIhEEE
FN:57,mpt.cpp:_ZNK6evmone5state12_GLOBAL__N_14Path3endEv
FN:37,mpt.cpp:_ZN6evmone5state12_GLOBAL__N_14PathC2EPKhS4_
FN:56,mpt.cpp:_ZNK6evmone5state12_GLOBAL__N_14Path5beginEv
FN:98,mpt.cpp:_ZN6evmone5state7MPTNodeC2ERKNS0_12_GLOBAL__N_14PathEONSt7__cxx1112basic_stringIhN4evmc11byte_traitsIhEESaIhEEE
FN:86,mpt.cpp:_ZN6evmone5state7MPTNodeC2ERKNS0_12_GLOBAL__N_14PathEmOS1_mS6_
FNDA:21485606,_ZNK6evmone5state7MPTNode6encodeB5cxx11Ev
FNDA:5902382,_ZN6evmone5state3MPTC2Ev
FNDA:5902382,_ZN6evmone5state3MPTD2Ev
FNDA:15840024,_ZN6evmone5state3MPT6insertESt17basic_string_viewIhN4evmc11byte_traitsIhEEEONSt7__cxx1112basic_stringIhS5_SaIhEEE
FNDA:5902382,_ZNK6evmone5state3MPT4hashEv
FNDA:19319270,mpt.cpp:_ZZNK6evmone5state7MPTNode6encodeB5cxx11EvENK3$_0clEONSt7__cxx1112basic_stringIhN4evmc11byte_traitsIhEESaIhEEE
FNDA:5645582,mpt.cpp:_ZNK6evmone5state12_GLOBAL__N_14Path5emptyEv
FNDA:21485606,mpt.cpp:_ZNK6evmone5state12_GLOBAL__N_14Path6encodeB5cxx11ENS1_4KindE
FNDA:15840024,mpt.cpp:_ZN6evmone5state12_GLOBAL__N_14PathC2ESt17basic_string_viewIhN4evmc11byte_traitsIhEEE
FNDA:24642647,mpt.cpp:_ZN6evmone5state7MPTNode6insertERKNS0_12_GLOBAL__N_14PathEONSt7__cxx1112basic_stringIhN4evmc11byte_traitsIhEESaIhEEE
FNDA:98598333,mpt.cpp:_ZNK6evmone5state12_GLOBAL__N_14Path3endEv
FNDA:35933811,mpt.cpp:_ZN6evmone5state12_GLOBAL__N_14PathC2EPKhS4_
FNDA:54930876,mpt.cpp:_ZNK6evmone5state12_GLOBAL__N_14Path5beginEv
FNDA:15840024,mpt.cpp:_ZN6evmone5state7MPTNodeC2ERKNS0_12_GLOBAL__N_14PathEONSt7__cxx1112basic_stringIhN4evmc11byte_traitsIhEESaIhEEE
FNDA:5645582,mpt.cpp:_ZN6evmone5state7MPTNodeC2ERKNS0_12_GLOBAL__N_14PathEmOS1_mS6_
FNF:15
FNH:15
DA:37,35933811
DA:38,35933811
DA:39,35933811
DA:40,35933811
DA:41,35933811
DA:44,15840024
DA:45,15840024
DA:46,15840024
DA:47,15840024
DA:48,15840024
DA:49,501426162
DA:50,501426162
DA:51,501426162
DA:52,501426162
DA:53,15840024
DA:55,5645582
DA:56,54930876
DA:57,98598333
DA:60,21485606
DA:61,21485606
DA:62,5453072
DA:64,16032534
DA:65,16032534
DA:66,16032534
DA:68,16032534
DA:69,498969724
DA:70,482937190
DA:71,16032534
DA:72,21485606
DA:86,5645582
DA:87,5645582
DA:88,5645582
DA:89,5645582
DA:90,5645582
DA:92,5645582
DA:93,5645582
DA:94,5645582
DA:98,15840024
DA:106,24642647
DA:130,24642647
DA:137,24642647
DA:138,24642647
DA:140,24642647
DA:141,18997065
DA:142,18997065
DA:143,11161469
DA:144,7835596
DA:145,7835596
DA:146,18997065
DA:147,5645582
DA:148,5645582
DA:149,5645582
DA:150,5645582
DA:151,5645582
DA:152,5645582
DA:153,5645582
DA:154,5645582
DA:155,5645582
DA:156,5645582
DA:157,24642647
DA:161,21485606
DA:162,21485606
DA:164,21485606
DA:165,19319270
DA:166,19319270
DA:168,21485606
DA:169,21485606
DA:170,21485606
DA:171,15840024
DA:172,15840024
DA:173,15840024
DA:174,5645582
DA:175,5645582
DA:176,90329312
DA:177,5645582
DA:179,5645582
DA:180,192510
DA:181,5645582
DA:182,21485606
DA:183,21485606
DA:184,21485606
DA:187,5902382
DA:188,5902382
DA:191,15840024
DA:192,15840024
DA:194,15840024
DA:195,2358846
DA:196,13481178
DA:197,13481178
DA:198,15840024
DA:201,5902382
DA:202,5902382
DA:203,3543536
DA:204,2358846
DA:205,5902382
BRDA:48,0,0,501426162
BRDA:48,0,1,15840024
BRDA:61,0,0,5645582
BRDA:61,0,1,15840024
BRDA:61,1,2,5453072
BRDA:61,1,3,192510
BRDA:64,0,0,15840024
BRDA:64,0,1,192510
BRDA:66,0,0,6457686
BRDA:66,0,1,9574848
BRDA:69,0,0,482937190
BRDA:69,0,1,16032534
BRDA:140,0,0,19024810
BRDA:140,0,1,5617837
BRDA:140,1,2,18997065
BRDA:140,1,3,27745
BRDA:142,0,0,11161469
BRDA:142,0,1,7835596
BRDA:165,0,0,3340
BRDA:165,0,1,19315930
BRDA:169,0,0,21485606
BRDA:169,0,1,0
BRDA:171,0,0,15840024
BRDA:171,0,1,5645582
BRDA:174,0,0,5645582
BRDA:174,0,1,15840024
BRDA:175,0,0,90329312
BRDA:175,0,1,5645582
BRDA:176,0,0,19126760
BRDA:176,0,1,71202552
BRDA:179,0,0,192510
BRDA:179,0,1,5453072
BRDA:194,0,0,2358846
BRDA:194,0,1,13481178
BRDA:202,0,0,3543536
BRDA:202,0,1,2358846
BRF:36
BRH:35
LF:97
LH:97
end_of_record
SF:/home/user/sources/ethereum/evmone/test/state/mpt_hash.cpp
FN:41,_ZN6evmone5state8mpt_hashINS0_11TransactionEEEN4evmc7bytes32ESt4spanIKT_Lm18446744073709551615EE
FN:41,_ZN6evmone5state8mpt_hashINS0_18TransactionReceiptEEEN4evmc7bytes32ESt4spanIKT_Lm18446744073709551615EE
FN:41,_ZN6evmone5state8mpt_hashINS0_10WithdrawalEEEN4evmc7bytes32ESt4spanIKT_Lm18446744073709551615EE
FN:29,_ZN6evmone5state8mpt_hashERKNS_4test9TestStateE
FN:17,mpt_hash.cpp:_ZN6evmone5state12_GLOBAL__N_18mpt_hashERKSt3mapIN4evmc7bytes32ES4_St4lessIS4_ESaISt4pairIKS4_S4_EEE
FNDA:85229,_ZN6evmone5state8mpt_hashINS0_11TransactionEEEN4evmc7bytes32ESt4spanIKT_Lm18446744073709551615EE
FNDA:85229,_ZN6evmone5state8mpt_hashINS0_18TransactionReceiptEEEN4evmc7bytes32ESt4spanIKT_Lm18446744073709551615EE
FNDA:67049,_ZN6evmone5state8mpt_hashINS0_10WithdrawalEEEN4evmc7bytes32ESt4spanIKT_Lm18446744073709551615EE
FNDA:287464,_ZN6evmone5state8mpt_hashERKNS_4test9TestStateE
FNDA:5377411,mpt_hash.cpp:_ZN6evmone5state12_GLOBAL__N_18mpt_hashERKSt3mapIN4evmc7bytes32ES4_St4lessIS4_ESaISt4pairIKS4_S4_EEE
FNF:3
FNH:3
DA:17,5377411
DA:18,5377411
DA:19,5377411
DA:20,10286579
DA:21,10286579
DA:22,10286579
DA:23,10286579
DA:24,5377411
DA:25,5377411
DA:29,287464
DA:30,287464
DA:31,287464
DA:32,5377411
DA:33,5377411
DA:34,5377411
DA:35,5377411
DA:36,287464
DA:37,287464
DA:41,237507
DA:42,237507
DA:43,413541
DA:44,176034
DA:46,237507
DA:47,237507
BRDA:19,0,0,10286579
BRDA:19,0,1,5377411
BRDA:31,0,0,5377411
BRDA:31,0,1,287464
BRDA:43,0,0,85935
BRDA:43,0,1,85229
BRDA:43,1,2,85935
BRDA:43,1,3,85229
BRDA:43,2,4,4164
BRDA:43,2,5,67049
BRF:6
BRH:6
LF:23
LH:23
end_of_record
SF:/home/user/sources/ethereum/evmone/test/state/mpt_hash.hpp
FN:33,_ZN6evmone5state8mpt_hashISt6vectorINS0_10WithdrawalESaIS3_EEEEN4evmc7bytes32ERKT_Qsr3stdE16is_convertible_vIS8_St4spanIKNS8_10value_typeELm18446744073709551615EEE
FN:33,_ZN6evmone5state8mpt_hashISt6vectorINS0_11TransactionESaIS3_EEEEN4evmc7bytes32ERKT_Qsr3stdE16is_convertible_vIS8_St4spanIKNS8_10value_typeELm18446744073709551615EEE
FN:33,_ZN6evmone5state8mpt_hashISt6vectorINS0_18TransactionReceiptESaIS3_EEEEN4evmc7bytes32ERKT_Qsr3stdE16is_convertible_vIS8_St4spanIKNS8_10value_typeELm18446744073709551615EEE
FNDA:67049,_ZN6evmone5state8mpt_hashISt6vectorINS0_10WithdrawalESaIS3_EEEEN4evmc7bytes32ERKT_Qsr3stdE16is_convertible_vIS8_St4spanIKNS8_10value_typeELm18446744073709551615EEE
FNDA:85229,_ZN6evmone5state8mpt_hashISt6vectorINS0_11TransactionESaIS3_EEEEN4evmc7bytes32ERKT_Qsr3stdE16is_convertible_vIS8_St4spanIKNS8_10value_typeELm18446744073709551615EEE
FNDA:85229,_ZN6evmone5state8mpt_hashISt6vectorINS0_18TransactionReceiptESaIS3_EEEEN4evmc7bytes32ERKT_Qsr3stdE16is_convertible_vIS8_St4spanIKNS8_10value_typeELm18446744073709551615EEE
FNF:1
FNH:1
DA:33,237507
DA:34,237507
DA:35,237507
BRF:0
BRH:0
LF:3
LH:3
end_of_record
SF:/home/user/sources/ethereum/evmone/test/state/precompiles.cpp
FN:61,_ZN6evmone5state17ecrecover_analyzeESt17basic_string_viewIhN4evmc11byte_traitsIhEEE13evmc_revision
FN:66,_ZN6evmone5state14sha256_analyzeESt17basic_string_viewIhN4evmc11byte_traitsIhEEE13evmc_revision
FN:71,_ZN6evmone5state17ripemd160_analyzeESt17basic_string_viewIhN4evmc11byte_traitsIhEEE13evmc_revision
FN:76,_ZN6evmone5state16identity_analyzeESt17basic_string_viewIhN4evmc11byte_traitsIhEEE13evmc_revision
FN:81,_ZN6evmone5state13ecadd_analyzeESt17basic_string_viewIhN4evmc11byte_traitsIhEEE13evmc_revision
FN:86,_ZN6evmone5state13ecmul_analyzeESt17basic_string_viewIhN4evmc11byte_traitsIhEEE13evmc_revision
FN:91,_ZN6evmone5state17ecpairing_analyzeESt17basic_string_viewIhN4evmc11byte_traitsIhEEE13evmc_revision
FN:99,_ZN6evmone5state16blake2bf_analyzeESt17basic_string_viewIhN4evmc11byte_traitsIhEEE13evmc_revision
FN:105,_ZN6evmone5state14expmod_analyzeESt17basic_string_viewIhN4evmc11byte_traitsIhEEE13evmc_revision
FN:200,_ZN6evmone5state24point_evaluation_analyzeESt17basic_string_viewIhN4evmc11byte_traitsIhEEE13evmc_revision
FN:206,_ZN6evmone5state19bls12_g1add_analyzeESt17basic_string_viewIhN4evmc11byte_traitsIhEEE13evmc_revision
FN:212,_ZN6evmone5state19bls12_g1msm_analyzeESt17basic_string_viewIhN4evmc11byte_traitsIhEEE13evmc_revision
FN:234,_ZN6evmone5state19bls12_g2add_analyzeESt17basic_string_viewIhN4evmc11byte_traitsIhEEE13evmc_revision
FN:240,_ZN6evmone5state19bls12_g2msm_analyzeESt17basic_string_viewIhN4evmc11byte_traitsIhEEE13evmc_revision
FN:262,_ZN6evmone5state27bls12_pairing_check_analyzeESt17basic_string_viewIhN4evmc11byte_traitsIhEEE13evmc_revision
FN:278,_ZN6evmone5state26bls12_map_fp_to_g1_analyzeESt17basic_string_viewIhN4evmc11byte_traitsIhEEE13evmc_revision
FN:284,_ZN6evmone5state27bls12_map_fp2_to_g2_analyzeESt17basic_string_viewIhN4evmc11byte_traitsIhEEE13evmc_revision
FN:290,_ZN6evmone5state18p256verify_analyzeESt17basic_string_viewIhN4evmc11byte_traitsIhEEE13evmc_revision
FN:296,_ZN6evmone5state17ecrecover_executeEPKhmPhm
FN:327,_ZN6evmone5state14sha256_executeEPKhmPhm
FN:336,_ZN6evmone5state17ripemd160_executeEPKhmPhm
FN:402,_ZN6evmone5state14expmod_executeEPKhmPhm
FN:436,_ZN6evmone5state13ecadd_executeEPKhmPhm
FN:463,_ZN6evmone5state13ecmul_executeEPKhmPhm
FN:490,_ZN6evmone5state17ecpairing_executeEPKhmPhm
FN:526,_ZN6evmone5state16identity_executeEPKhmPhm
FN:534,_ZN6evmone5state16blake2bf_executeEPKhmPhm
FN:566,_ZN6evmone5state24point_evaluation_executeEPKhmPhm
FN:589,_ZN6evmone5state19bls12_g1add_executeEPKhmPhm
FN:603,_ZN6evmone5state19bls12_g1msm_executeEPKhmPhm
FN:625,_ZN6evmone5state19bls12_g2add_executeEPKhmPhm
FN:639,_ZN6evmone5state19bls12_g2msm_executeEPKhmPhm
FN:661,_ZN6evmone5state27bls12_pairing_check_executeEPKhmPhm
FN:674,_ZN6evmone5state26bls12_map_fp_to_g1_executeEPKhmPhm
FN:688,_ZN6evmone5state27bls12_map_fp2_to_g2_executeEPKhmPhm
FN:702,_ZN6evmone5state18p256verify_executeEPKhmPhm
FN:773,_ZN6evmone5state13is_precompileE13evmc_revisionRKN4evmc7addressE
FN:789,_ZN6evmone5state15call_precompileE13evmc_revisionRK12evmc_message
FN:55,precompiles.cpp:_ZN6evmone5state12_GLOBAL__N_119cost_per_input_wordILi60ELi12EEElm
FN:49,precompiles.cpp:_ZN6evmone5state12_GLOBAL__N_19num_wordsEm
FN:55,precompiles.cpp:_ZN6evmone5state12_GLOBAL__N_119cost_per_input_wordILi600ELi120EEElm
FN:55,precompiles.cpp:_ZN6evmone5state12_GLOBAL__N_119cost_per_input_wordILi15ELi3EEElm
FN:155,precompiles.cpp:_ZZN6evmone5state14expmod_analyzeESt17basic_string_viewIhN4evmc11byte_traitsIhEEE13evmc_revisionENK3$_1clEv
FN:128,precompiles.cpp:_ZZN6evmone5state14expmod_analyzeESt17basic_string_viewIhN4evmc11byte_traitsIhEEE13evmc_revisionENK3$_2clEj
FN:135,precompiles.cpp:_ZZN6evmone5state14expmod_analyzeESt17basic_string_viewIhN4evmc11byte_traitsIhEEE13evmc_revisionENK3$_3clEj
FN:139,precompiles.cpp:_ZZN6evmone5state14expmod_analyzeESt17basic_string_viewIhN4evmc11byte_traitsIhEEE13evmc_revisionENK3$_4clEj
FN:108,precompiles.cpp:_ZZN6evmone5state14expmod_analyzeESt17basic_string_viewIhN4evmc11byte_traitsIhEEE13evmc_revisionENK3$_0clEmj
FN:347,precompiles.cpp:_ZN6evmone5stateL18expmod_parse_inputEPKhmPhm
FN:376,precompiles.cpp:_ZZN6evmone5stateL18expmod_parse_inputEPKhmPhmENK3$_0clEh
FN:765,precompiles.cpp:_ZN6evmone5state12_GLOBAL__N_115to_lookup_indexERKN4evmc7addressE
FN:819,precompiles.cpp:_ZZN6evmone5state15call_precompileE13evmc_revisionRK12evmc_messageENK3$_1clEPK11evmc_result
FNDA:402522,_ZN6evmone5state17ecrecover_analyzeESt17basic_string_viewIhN4evmc11byte_traitsIhEEE13evmc_revision
FNDA:19822,_ZN6evmone5state14sha256_analyzeESt17basic_string_viewIhN4evmc11byte_traitsIhEEE13evmc_revision
FNDA:395926,_ZN6evmone5state17ripemd160_analyzeESt17basic_string_viewIhN4evmc11byte_traitsIhEEE13evmc_revision
FNDA:792344,_ZN6evmone5state16identity_analyzeESt17basic_string_viewIhN4evmc11byte_traitsIhEEE13evmc_revision
FNDA:2982,_ZN6evmone5state13ecadd_analyzeESt17basic_string_viewIhN4evmc11byte_traitsIhEEE13evmc_revision
FNDA:6496,_ZN6evmone5state13ecmul_analyzeESt17basic_string_viewIhN4evmc11byte_traitsIhEEE13evmc_revision
FNDA:2142,_ZN6evmone5state17ecpairing_analyzeESt17basic_string_viewIhN4evmc11byte_traitsIhEEE13evmc_revision
FNDA:2128,_ZN6evmone5state16blake2bf_analyzeESt17basic_string_viewIhN4evmc11byte_traitsIhEEE13evmc_revision
FNDA:4634,_ZN6evmone5state14expmod_analyzeESt17basic_string_viewIhN4evmc11byte_traitsIhEEE13evmc_revision
FNDA:1314,_ZN6evmone5state24point_evaluation_analyzeESt17basic_string_viewIhN4evmc11byte_traitsIhEEE13evmc_revision
FNDA:534,_ZN6evmone5state19bls12_g1add_analyzeESt17basic_string_viewIhN4evmc11byte_traitsIhEEE13evmc_revision
FNDA:3426,_ZN6evmone5state19bls12_g1msm_analyzeESt17basic_string_viewIhN4evmc11byte_traitsIhEEE13evmc_revision
FNDA:558,_ZN6evmone5state19bls12_g2add_analyzeESt17basic_string_viewIhN4evmc11byte_traitsIhEEE13evmc_revision
FNDA:3450,_ZN6evmone5state19bls12_g2msm_analyzeESt17basic_string_viewIhN4evmc11byte_traitsIhEEE13evmc_revision
FNDA:846,_ZN6evmone5state27bls12_pairing_check_analyzeESt17basic_string_viewIhN4evmc11byte_traitsIhEEE13evmc_revision
FNDA:330,_ZN6evmone5state26bls12_map_fp_to_g1_analyzeESt17basic_string_viewIhN4evmc11byte_traitsIhEEE13evmc_revision
FNDA:318,_ZN6evmone5state27bls12_map_fp2_to_g2_analyzeESt17basic_string_viewIhN4evmc11byte_traitsIhEEE13evmc_revision
FNDA:802,_ZN6evmone5state18p256verify_analyzeESt17basic_string_viewIhN4evmc11byte_traitsIhEEE13evmc_revision
FNDA:2360,_ZN6evmone5state17ecrecover_executeEPKhmPhm
FNDA:19792,_ZN6evmone5state14sha256_executeEPKhmPhm
FNDA:1166,_ZN6evmone5state17ripemd160_executeEPKhmPhm
FNDA:4192,_ZN6evmone5state14expmod_executeEPKhmPhm
FNDA:2950,_ZN6evmone5state13ecadd_executeEPKhmPhm
FNDA:6464,_ZN6evmone5state13ecmul_executeEPKhmPhm
FNDA:1762,_ZN6evmone5state17ecpairing_executeEPKhmPhm
FNDA:4858,_ZN6evmone5state16identity_executeEPKhmPhm
FNDA:1168,_ZN6evmone5state16blake2bf_executeEPKhmPhm
FNDA:1220,_ZN6evmone5state24point_evaluation_executeEPKhmPhm
FNDA:522,_ZN6evmone5state19bls12_g1add_executeEPKhmPhm
FNDA:1586,_ZN6evmone5state19bls12_g1msm_executeEPKhmPhm
FNDA:546,_ZN6evmone5state19bls12_g2add_executeEPKhmPhm
FNDA:1610,_ZN6evmone5state19bls12_g2msm_executeEPKhmPhm
FNDA:414,_ZN6evmone5state27bls12_pairing_check_executeEPKhmPhm
FNDA:318,_ZN6evmone5state26bls12_map_fp_to_g1_executeEPKhmPhm
FNDA:306,_ZN6evmone5state27bls12_map_fp2_to_g2_executeEPKhmPhm
FNDA:792,_ZN6evmone5state18p256verify_executeEPKhmPhm
FNDA:7398675,_ZN6evmone5state13is_precompileE13evmc_revisionRKN4evmc7addressE
FNDA:1640574,_ZN6evmone5state15call_precompileE13evmc_revisionRK12evmc_message
FNDA:19822,precompiles.cpp:_ZN6evmone5state12_GLOBAL__N_119cost_per_input_wordILi60ELi12EEElm
FNDA:1208092,precompiles.cpp:_ZN6evmone5state12_GLOBAL__N_19num_wordsEm
FNDA:395926,precompiles.cpp:_ZN6evmone5state12_GLOBAL__N_119cost_per_input_wordILi600ELi120EEElm
FNDA:792344,precompiles.cpp:_ZN6evmone5state12_GLOBAL__N_119cost_per_input_wordILi15ELi3EEElm
FNDA:4634,precompiles.cpp:_ZZN6evmone5state14expmod_analyzeESt17basic_string_viewIhN4evmc11byte_traitsIhEEE13evmc_revisionENK3$_1clEv
FNDA:544,precompiles.cpp:_ZZN6evmone5state14expmod_analyzeESt17basic_string_viewIhN4evmc11byte_traitsIhEEE13evmc_revisionENK3$_2clEj
FNDA:3518,precompiles.cpp:_ZZN6evmone5state14expmod_analyzeESt17basic_string_viewIhN4evmc11byte_traitsIhEEE13evmc_revisionENK3$_3clEj
FNDA:216,precompiles.cpp:_ZZN6evmone5state14expmod_analyzeESt17basic_string_viewIhN4evmc11byte_traitsIhEEE13evmc_revisionENK3$_4clEj
FNDA:4278,precompiles.cpp:_ZZN6evmone5state14expmod_analyzeESt17basic_string_viewIhN4evmc11byte_traitsIhEEE13evmc_revisionENK3$_0clEmj
FNDA:4192,precompiles.cpp:_ZN6evmone5stateL18expmod_parse_inputEPKhmPhm
FNDA:34400,precompiles.cpp:_ZZN6evmone5stateL18expmod_parse_inputEPKhmPhmENK3$_0clEh
FNDA:5513031,precompiles.cpp:_ZN6evmone5state12_GLOBAL__N_115to_lookup_indexERKN4evmc7addressE
FNDA:52026,precompiles.cpp:_ZZN6evmone5state15call_precompileE13evmc_revisionRK12evmc_messageENK3$_1clEPK11evmc_result
FNF:49
FNH:49
DA:49,1208092
DA:50,1208092
DA:51,1208092
DA:55,1208092
DA:56,1208092
DA:57,1208092
DA:61,402522
DA:62,402522
DA:63,402522
DA:66,19822
DA:67,19822
DA:68,19822
DA:71,395926
DA:72,395926
DA:73,395926
DA:76,792344
DA:77,792344
DA:78,792344
DA:81,2982
DA:82,2982
DA:83,2982
DA:86,6496
DA:87,6496
DA:88,6496
DA:91,2142
DA:92,2142
DA:93,2142
DA:94,2142
DA:95,2142
DA:96,2142
DA:99,2128
DA:101,2128
DA:102,2128
DA:105,4634
DA:106,4634
DA:108,4634
DA:109,4278
DA:110,4278
DA:111,4278
DA:112,3638
DA:113,4278
DA:115,4278
DA:116,4278
DA:117,4278
DA:118,2715
DA:119,2715
DA:120,4278
DA:122,4278
DA:123,4278
DA:124,4278
DA:125,4278
DA:126,4278
DA:128,4634
DA:130,544
DA:131,544
DA:132,544
DA:133,544
DA:134,544
DA:135,4634
DA:136,3518
DA:137,3518
DA:138,3518
DA:139,4634
DA:140,216
DA:141,216
DA:142,160
DA:143,56
DA:144,48
DA:146,8
DA:147,56
DA:149,4634
DA:150,4634
DA:151,4634
DA:152,4634
DA:153,4634
DA:154,4634
DA:155,4634
DA:156,4634
DA:157,628
DA:158,4006
DA:159,3742
DA:160,264
DA:161,264
DA:162,4634
DA:164,4634
DA:165,4634
DA:167,4634
DA:169,4634
DA:170,4634
DA:171,4634
DA:175,4634
DA:176,4634
DA:177,4634
DA:178,162
DA:180,4472
DA:181,194
DA:183,194
DA:184,32
DA:185,162
DA:186,194
DA:188,4278
DA:189,4278
DA:190,4278
DA:192,4278
DA:193,4278
DA:194,4278
DA:195,4278
DA:196,4278
DA:197,4472
DA:200,1314
DA:201,1314
DA:202,1314
DA:203,1314
DA:206,534
DA:207,534
DA:208,534
DA:209,534
DA:212,3426
DA:213,3426
DA:214,3426
DA:215,3426
DA:216,3426
DA:217,3426
DA:218,3426
DA:219,3426
DA:220,3426
DA:221,3426
DA:223,3426
DA:224,1316
DA:226,2110
DA:227,2110
DA:228,2110
DA:229,2110
DA:230,2110
DA:231,3426
DA:234,558
DA:235,558
DA:236,558
DA:237,558
DA:240,3450
DA:241,3450
DA:242,3450
DA:243,3450
DA:244,3450
DA:245,3450
DA:246,3450
DA:247,3450
DA:248,3450
DA:249,3450
DA:251,3450
DA:252,1316
DA:254,2134
DA:255,2134
DA:256,2134
DA:257,2134
DA:258,2134
DA:259,3450
DA:262,846
DA:263,846
DA:265,846
DA:266,344
DA:268,502
DA:270,502
DA:271,502
DA:272,502
DA:273,502
DA:274,502
DA:275,846
DA:278,330
DA:279,330
DA:280,330
DA:281,330
DA:284,318
DA:285,318
DA:286,318
DA:287,318
DA:290,802
DA:291,802
DA:292,802
DA:296,2360
DA:297,2360
DA:299,2360
DA:300,2360
DA:301,2030
DA:303,2360
DA:304,2360
DA:306,2360
DA:307,2360
DA:308,1096
DA:309,1264
DA:311,1264
DA:312,1264
DA:314,1264
DA:315,1264
DA:316,832
DA:317,832
DA:318,832
DA:319,832
DA:320,832
DA:321,432
DA:322,432
DA:323,1264
DA:327,19792
DA:328,19792
DA:329,19792
DA:330,19792
DA:331,19792
DA:332,19792
DA:336,1166
DA:337,1166
DA:338,1166
DA:339,1166
DA:340,1166
DA:341,1166
DA:342,1166
DA:347,4192
DA:348,4192
DA:349,4192
DA:350,4192
DA:353,4192
DA:356,4192
DA:357,526
DA:358,526
DA:359,526
DA:360,526
DA:362,3666
DA:363,3666
DA:364,3666
DA:366,3666
DA:367,3666
DA:368,3666
DA:369,3666
DA:370,3666
DA:376,34400
DA:377,554
DA:379,554
DA:380,554
DA:381,554
DA:383,3112
DA:384,3112
DA:385,278
DA:389,278
DA:390,278
DA:391,278
DA:393,3112
DA:394,3112
DA:395,3112
DA:397,3112
DA:398,3666
DA:402,4192
DA:403,4192
DA:404,4192
DA:405,1080
DA:407,3112
DA:408,3111
DA:409,3111
DA:410,3111
DA:411,3111
DA:416,1
DA:417,1
DA:418,1
DA:419,3112
DA:436,2950
DA:437,2950
DA:439,2950
DA:440,2950
DA:441,2632
DA:443,2950
DA:445,2950
DA:447,2950
DA:448,2950
DA:450,2950
DA:451,2618
DA:452,2618
DA:453,2618
DA:454,2618
DA:455,2618
DA:456,2618
DA:457,332
DA:458,332
DA:459,2950
DA:463,6464
DA:464,6464
DA:466,6464
DA:467,6464
DA:468,6146
DA:470,6464
DA:472,6464
DA:474,6464
DA:475,6464
DA:477,6464
DA:478,4626
DA:479,4626
DA:480,4626
DA:481,4626
DA:482,4626
DA:483,4626
DA:484,1838
DA:485,1838
DA:486,6464
DA:490,1762
DA:491,1762
DA:492,1762
DA:493,1762
DA:495,1762
DA:496,142
DA:498,1620
DA:499,1620
DA:500,4464
DA:501,2844
DA:502,2844
DA:503,2844
DA:504,2844
DA:505,2844
DA:506,2844
DA:507,2844
DA:508,2844
DA:509,2844
DA:510,2844
DA:511,2844
DA:512,2844
DA:513,2844
DA:515,1620
DA:516,1620
DA:517,798
DA:519,822
DA:520,822
DA:521,822
DA:522,1620
DA:526,4858
DA:527,4858
DA:528,4858
DA:529,4858
DA:530,4858
DA:534,1168
DA:535,1168
DA:536,1168
DA:537,1168
DA:538,1168
DA:540,1168
DA:541,1168
DA:543,1168
DA:544,1168
DA:545,1168
DA:547,1168
DA:548,1168
DA:549,1168
DA:551,1168
DA:552,1168
DA:553,1168
DA:555,1168
DA:556,1168
DA:557,144
DA:559,1024
DA:560,1024
DA:561,1024
DA:562,1168
DA:566,1220
DA:567,1220
DA:568,1220
DA:569,314
DA:571,906
DA:572,906
DA:573,906
DA:574,906
DA:575,906
DA:577,906
DA:578,486
DA:582,420
DA:583,420
DA:584,420
DA:585,906
DA:589,522
DA:590,522
DA:591,196
DA:593,522
DA:595,326
DA:596,144
DA:598,182
DA:599,326
DA:603,1586
DA:605,1586
DA:606,1586
DA:608,1586
DA:609,364
DA:611,364
DA:612,172
DA:613,364
DA:614,1222
DA:615,1222
DA:616,1222
DA:617,48
DA:618,1222
DA:620,1366
DA:621,1586
DA:625,546
DA:626,546
DA:627,196
DA:629,546
DA:631,350
DA:632,176
DA:634,174
DA:635,350
DA:639,1610
DA:641,1610
DA:642,1610
DA:644,1610
DA:645,376
DA:647,376
DA:648,184
DA:649,376
DA:650,1234
DA:651,1234
DA:652,1234
DA:653,56
DA:654,1234
DA:656,1370
DA:657,1610
DA:661,414
DA:663,414
DA:664,414
DA:666,414
DA:667,204
DA:669,210
DA:670,414
DA:674,318
DA:675,318
DA:676,200
DA:678,318
DA:680,118
DA:681,36
DA:683,82
DA:684,118
DA:688,306
DA:689,306
DA:690,200
DA:692,306
DA:694,106
DA:695,56
DA:697,50
DA:698,106
DA:702,792
DA:703,792
DA:705,792
DA:706,14
DA:708,778
DA:709,778
DA:710,778
DA:711,778
DA:712,778
DA:713,778
DA:715,778
DA:716,302
DA:719,476
DA:720,476
DA:721,476
DA:722,778
DA:765,5513031
DA:766,5513031
DA:767,5513031
DA:768,5513031
DA:769,5513031
DA:773,7398675
DA:774,7398675
DA:775,7398675
DA:776,7398675
DA:777,7398675
DA:778,7398675
DA:779,7398675
DA:780,7398675
DA:781,7398675
DA:783,7398675
DA:784,3526218
DA:785,3872457
DA:786,7398675
DA:789,1640574
DA:790,1640574
DA:791,1640574
DA:792,1640574
DA:793,1640574
DA:794,1640574
DA:795,1640574
DA:796,1640574
DA:797,1640574
DA:798,1640574
DA:799,1640574
DA:800,1640574
DA:802,1640574
DA:804,1640574
DA:806,1640574
DA:807,1640574
DA:808,1640574
DA:809,1640574
DA:810,1588548
DA:814,52026
DA:815,52026
DA:816,52026
DA:817,52026
DA:818,52026
DA:819,52026
DA:820,52026
DA:821,1640574
BRDA:82,0,0,2970
BRDA:82,0,1,12
BRDA:87,0,0,6484
BRDA:87,0,1,12
BRDA:92,0,0,2130
BRDA:92,0,1,12
BRDA:93,0,0,2130
BRDA:93,0,1,12
BRDA:101,0,0,1280
BRDA:101,0,1,848
BRDA:111,0,0,3638
BRDA:111,0,1,640
BRDA:117,0,0,2715
BRDA:117,0,1,1563
BRDA:124,0,0,3734
BRDA:124,0,1,544
BRDA:132,0,0,386
BRDA:132,0,1,158
BRDA:141,0,0,160
BRDA:141,0,1,56
BRDA:143,0,0,48
BRDA:143,0,1,8
BRDA:156,0,0,628
BRDA:156,0,1,4006
BRDA:158,0,0,3742
BRDA:158,0,1,264
BRDA:176,0,0,4006
BRDA:176,0,1,628
BRDA:177,0,0,104
BRDA:177,0,1,4530
BRDA:177,1,2,162
BRDA:177,1,3,4472
BRDA:177,2,4,58
BRDA:177,2,5,4472
BRDA:180,0,0,194
BRDA:180,0,1,4278
BRDA:183,0,0,32
BRDA:183,0,1,162
BRDA:183,1,2,164
BRDA:183,1,3,30
BRDA:183,2,4,52
BRDA:183,2,5,112
BRDA:183,3,6,32
BRDA:183,3,7,20
BRDA:223,0,0,120
BRDA:223,0,1,3306
BRDA:223,1,2,1196
BRDA:223,1,3,2110
BRDA:251,0,0,120
BRDA:251,0,1,3330
BRDA:251,1,2,1196
BRDA:251,1,3,2134
BRDA:265,0,0,112
BRDA:265,0,1,734
BRDA:265,1,2,232
BRDA:265,1,3,502
BRDA:300,0,0,2030
BRDA:300,0,1,330
BRDA:307,0,0,1606
BRDA:307,0,1,754
BRDA:307,1,2,1096
BRDA:307,1,3,1264
BRDA:307,2,4,1096
BRDA:307,2,5,510
BRDA:315,0,0,832
BRDA:315,0,1,432
BRDA:356,0,0,526
BRDA:356,0,1,3666
BRDA:376,0,0,554
BRDA:376,0,1,3112
BRDA:384,0,0,278
BRDA:384,0,1,2834
BRDA:395,0,0,278
BRDA:395,0,1,2834
BRDA:404,0,0,1080
BRDA:404,0,1,3112
BRDA:407,0,0,3111
BRDA:407,0,1,1
BRDA:440,0,0,2632
BRDA:440,0,1,318
BRDA:450,0,0,2690
BRDA:450,0,1,260
BRDA:450,1,2,2618
BRDA:450,1,3,72
BRDA:467,0,0,6146
BRDA:467,0,1,318
BRDA:477,0,0,4626
BRDA:477,0,1,1838
BRDA:495,0,0,142
BRDA:495,0,1,1620
BRDA:500,0,0,2844
BRDA:500,0,1,1620
BRDA:516,0,0,798
BRDA:516,0,1,822
BRDA:520,0,0,744
BRDA:520,0,1,78
BRDA:556,0,0,896
BRDA:556,0,1,272
BRDA:556,1,2,144
BRDA:556,1,3,752
BRDA:568,0,0,314
BRDA:568,0,1,906
BRDA:577,0,0,486
BRDA:577,0,1,420
BRDA:590,0,0,196
BRDA:590,0,1,326
BRDA:595,0,0,144
BRDA:595,0,1,182
BRDA:608,0,0,364
BRDA:608,0,1,1222
BRDA:611,0,0,172
BRDA:611,0,1,192
BRDA:616,0,0,48
BRDA:616,0,1,1174
BRDA:626,0,0,196
BRDA:626,0,1,350
BRDA:631,0,0,176
BRDA:631,0,1,174
BRDA:644,0,0,376
BRDA:644,0,1,1234
BRDA:647,0,0,184
BRDA:647,0,1,192
BRDA:652,0,0,56
BRDA:652,0,1,1178
BRDA:666,0,0,204
BRDA:666,0,1,210
BRDA:675,0,0,200
BRDA:675,0,1,118
BRDA:680,0,0,36
BRDA:680,0,1,82
BRDA:689,0,0,200
BRDA:689,0,1,106
BRDA:694,0,0,56
BRDA:694,0,1,50
BRDA:705,0,0,14
BRDA:705,0,1,778
BRDA:715,0,0,302
BRDA:715,0,1,476
BRDA:783,0,0,3526218
BRDA:783,0,1,3872457
BRDA:809,0,0,1588548
BRDA:809,0,1,52026
BRDA:817,0,0,46104
BRDA:817,0,1,5922
BRF:144
BRH:144
LF:542
LH:542
end_of_record
SF:/home/user/sources/ethereum/evmone/test/state/precompiles_stubs.cpp
FN:63,_ZN6evmone5state11expmod_stubESt4spanIKhLm18446744073709551615EES3_S3_Ph
FN:79,precompiles_stubs.cpp:_ZZN6evmone5state11expmod_stubESt4spanIKhLm18446744073709551615EES3_S3_PhENK3$_0clB5cxx11Ev
FN:36,precompiles_stubs.cpp:_ZN6evmone5state12_GLOBAL__N_120expmod_lookup_resultB5cxx11ESt17basic_string_viewIhN4evmc11byte_traitsIhEEES6_S6_
FNDA:1,_ZN6evmone5state11expmod_stubESt4spanIKhLm18446744073709551615EES3_S3_Ph
FNDA:1,precompiles_stubs.cpp:_ZZN6evmone5state11expmod_stubESt4spanIKhLm18446744073709551615EES3_S3_PhENK3$_0clB5cxx11Ev
FNDA:0,precompiles_stubs.cpp:_ZN6evmone5state12_GLOBAL__N_120expmod_lookup_resultB5cxx11ESt17basic_string_viewIhN4evmc11byte_traitsIhEEES6_S6_
FNF:3
FNH:2
DA:36,0
DA:37,0
DA:39,0
DA:40,0
DA:41,0
DA:43,0
DA:46,0
DA:47,0
DA:48,0
DA:50,0
DA:51,0
DA:52,0
DA:53,0
DA:54,0
DA:55,0
DA:56,0
DA:57,0
DA:63,1
DA:64,1
DA:65,1
DA:66,1
DA:69,1
DA:72,1
DA:73,1
DA:74,1
DA:75,1
DA:79,1
DA:81,1
DA:82,0
DA:85,1
DA:86,1
DA:89,0
DA:90,0
DA:92,0
DA:93,0
DA:96,1
DA:97,1
DA:98,1
BRDA:51,0,0,-
BRDA:51,0,1,-
BRDA:81,0,0,1
BRDA:81,0,1,0
BRDA:81,1,2,0
BRDA:81,1,3,1
BRDA:85,0,0,1
BRDA:85,0,1,0
BRDA:89,0,0,-
BRDA:89,0,1,-
BRDA:89,1,2,-
BRDA:89,1,3,-
BRDA:89,2,4,-
BRDA:89,2,5,-
BRF:14
BRH:3
LF:47
LH:25
end_of_record
SF:/home/user/sources/ethereum/evmone/test/state/requests.cpp
FN:19,_ZN6evmone5state23calculate_requests_hashESt4spanIKNS0_8RequestsELm18446744073709551615EE
FN:41,_ZN6evmone5state24collect_deposit_requestsESt4spanIKNS0_18TransactionReceiptELm18446744073709551615EE
FN:77,requests.cpp:_ZZN6evmone5state24collect_deposit_requestsESt4spanIKNS0_18TransactionReceiptELm18446744073709551615EEENK3$_0clEm
FN:125,requests.cpp:_ZZN6evmone5state24collect_deposit_requestsESt4spanIKNS0_18TransactionReceiptELm18446744073709551615EEENK3$_1clEjj
FNDA:44808,_ZN6evmone5state23calculate_requests_hashESt4spanIKNS0_8RequestsELm18446744073709551615EE
FNDA:46932,_ZN6evmone5state24collect_deposit_requestsESt4spanIKNS0_18TransactionReceiptELm18446744073709551615EE
FNDA:15390,requests.cpp:_ZZN6evmone5state24collect_deposit_requestsESt4spanIKNS0_18TransactionReceiptELm18446744073709551615EEENK3$_0clEm
FNDA:7635,requests.cpp:_ZZN6evmone5state24collect_deposit_requestsESt4spanIKNS0_18TransactionReceiptELm18446744073709551615EEENK3$_1clEjj
FNF:4
FNH:4
DA:19,44808
DA:20,44808
DA:21,44808
DA:23,44808
DA:24,134424
DA:25,134424
DA:26,133675
DA:28,749
DA:29,749
DA:30,749
DA:31,749
DA:32,749
DA:34,44808
DA:35,44808
DA:36,44808
DA:37,44808
DA:38,44808
DA:41,46932
DA:43,46932
DA:44,46932
DA:45,48993
DA:46,48993
DA:47,9202
DA:52,9202
DA:53,7635
DA:54,1567
DA:55,8
DA:59,1559
DA:60,4
DA:77,15390
DA:78,15390
DA:79,15390
DA:81,15390
DA:82,20
DA:83,15370
DA:84,15390
DA:86,1555
DA:87,1555
DA:90,1555
DA:91,9300
DA:92,7755
DA:93,7755
DA:94,7755
DA:95,10
DA:96,7745
DA:97,7745
DA:100,1545
DA:101,1545
DA:102,1545
DA:103,1545
DA:104,1545
DA:105,1545
DA:106,1545
DA:107,1545
DA:108,1545
DA:109,1545
DA:110,1545
DA:111,1545
DA:112,1545
DA:113,1545
DA:114,1545
DA:115,1545
DA:118,1545
DA:119,1545
DA:121,1545
DA:122,10
DA:125,7635
DA:126,7635
DA:127,7635
DA:128,7635
DA:129,1535
DA:130,1535
DA:131,1535
DA:132,1535
DA:133,1535
DA:134,20
DA:136,20
DA:137,20
DA:140,1535
DA:142,1515
DA:143,1515
DA:144,1515
DA:145,1515
DA:146,1515
DA:147,1515
DA:148,48993
DA:149,46888
DA:150,46932
BRDA:23,0,0,134424
BRDA:23,0,1,44808
BRDA:25,0,0,133675
BRDA:25,0,1,749
BRDA:44,0,0,48993
BRDA:44,0,1,46888
BRDA:46,0,0,9202
BRDA:46,0,1,48949
BRDA:52,0,0,7635
BRDA:52,0,1,1567
BRDA:54,0,0,4
BRDA:54,0,1,1563
BRDA:54,1,2,4
BRDA:54,1,3,1559
BRDA:59,0,0,4
BRDA:59,0,1,1555
BRDA:81,0,0,20
BRDA:81,0,1,15370
BRDA:91,0,0,7755
BRDA:91,0,1,1545
BRDA:94,0,0,10
BRDA:94,0,1,7745
BRDA:121,0,0,10
BRDA:121,0,1,1535
BRDA:127,0,0,7625
BRDA:127,0,1,10
BRDA:127,1,2,7615
BRDA:127,1,3,10
BRDA:129,0,0,4
BRDA:129,0,1,1531
BRDA:130,0,0,4
BRDA:130,0,1,1527
BRDA:131,0,0,4
BRDA:131,0,1,1523
BRDA:132,0,0,4
BRDA:132,0,1,1519
BRDA:133,0,0,4
BRDA:133,0,1,1515
BRF:38
BRH:38
LF:99
LH:99
end_of_record
SF:/home/user/sources/ethereum/evmone/test/state/requests.hpp
FN:49,_ZN6evmone5state8RequestsC2ENS1_4TypeESt17basic_string_viewIhN4evmc11byte_traitsIhEEE
FN:56,_ZNK6evmone5state8Requests4typeEv
FN:59,_ZNK6evmone5state8Requests4dataEv
FN:62,_ZN6evmone5state8Requests6appendESt17basic_string_viewIhN4evmc11byte_traitsIhEEE
FNDA:140684,_ZN6evmone5state8RequestsC2ENS1_4TypeESt17basic_string_viewIhN4evmc11byte_traitsIhEEE
FNDA:0,_ZNK6evmone5state8Requests4typeEv
FNDA:134424,_ZNK6evmone5state8Requests4dataEv
FNDA:7575,_ZN6evmone5state8Requests6appendESt17basic_string_viewIhN4evmc11byte_traitsIhEEE
FNF:4
FNH:3
DA:49,140684
DA:50,140684
DA:51,140684
DA:52,140684
DA:53,140684
DA:56,0
DA:59,134424
DA:62,7575
BRF:0
BRH:0
LF:8
LH:7
end_of_record
SF:/home/user/sources/ethereum/evmone/test/state/rlp.hpp
FN:40,_ZN6evmone3rlp8internal9wrap_listERKNSt7__cxx1112basic_stringIhN4evmc11byte_traitsIhEESaIhEEE
FN:49,_ZN6evmone3rlp4trimESt17basic_string_viewIhN4evmc11byte_traitsIhEEE
FN:61,_ZN6evmone3rlp6encodeB5cxx11ESt17basic_string_viewIhN4evmc11byte_traitsIhEEE
FN:70,_ZN6evmone3rlp6encodeB5cxx11Em
FN:77,_ZN6evmone3rlp6encodeB5cxx11ERKN4intx4uintILj256EEE
FN:24,_ZN6evmone3rlp8internal13encode_lengthILh192ELh247EEENSt7__cxx1112basic_stringIhN4evmc11byte_traitsIhEESaIhEEEm
FN:24,_ZN6evmone3rlp8internal13encode_lengthILh128ELh183EEENSt7__cxx1112basic_stringIhN4evmc11byte_traitsIhEESaIhEEEm
FN:85,_ZN6evmone3rlp6encodeINS_5state3LogEEENSt7__cxx1112basic_stringIhN4evmc11byte_traitsIhEESaIhEEERKSt6vectorIT_SaISC_EE
FN:111,_ZN6evmone3rlp8internal16encode_containerIN9__gnu_cxx17__normal_iteratorIPKNS_5state3LogESt6vectorIS6_SaIS6_EEEEEENSt7__cxx1112basic_stringIhN4evmc11byte_traitsIhEESaIhEEET_SK_
FN:56,_ZN6evmone3rlp6encodeINS_5state3LogEEEDTcl10rlp_encodeclsr3stdE7declvalIT_EEEERKS4_
FN:92,_ZN6evmone3rlp12encode_tupleIJmmN4evmc7addressEmEEENSt7__cxx1112basic_stringIhNS2_11byte_traitsIhEESaIhEEEDpRKT_
FN:92,_ZN6evmone3rlp12encode_tupleIJmN4intx4uintILj256EEEN4evmc7bytes32ES6_EEENSt7__cxx1112basic_stringIhNS5_11byte_traitsIhEESaIhEEEDpRKT_
FN:56,_ZN6evmone3rlp6encodeINS_5state11TransactionEEEDTcl10rlp_encodeclsr3stdE7declvalIT_EEEERKS4_
FN:56,_ZN6evmone3rlp6encodeINS_5state18TransactionReceiptEEEDTcl10rlp_encodeclsr3stdE7declvalIT_EEEERKS4_
FN:56,_ZN6evmone3rlp6encodeINS_5state10WithdrawalEEEDTcl10rlp_encodeclsr3stdE7declvalIT_EEEERKS4_
FN:92,_ZN6evmone3rlp12encode_tupleIJN4evmc7addressESt6vectorINS2_7bytes32ESaIS5_EENSt7__cxx1112basic_stringIhNS2_11byte_traitsIhEESaIhEEEEEESD_DpRKT_
FN:85,_ZN6evmone3rlp6encodeIN4evmc7bytes32EEENSt7__cxx1112basic_stringIhNS2_11byte_traitsIhEESaIhEEERKSt6vectorIT_SaISB_EE
FN:111,_ZN6evmone3rlp8internal16encode_containerIN9__gnu_cxx17__normal_iteratorIPKN4evmc7bytes32ESt6vectorIS6_SaIS6_EEEEEENSt7__cxx1112basic_stringIhNS5_11byte_traitsIhEESaIhEEET_SJ_
FN:92,_ZN6evmone3rlp12encode_tupleIJmN4intx4uintILj256EEEmSt17basic_string_viewIhN4evmc11byte_traitsIhEEES4_NSt7__cxx1112basic_stringIhS8_SaIhEEEhS4_S4_EEESD_DpRKT_
FN:92,_ZN6evmone3rlp12encode_tupleIJmmN4intx4uintILj256EEEmSt17basic_string_viewIhN4evmc11byte_traitsIhEEES4_NSt7__cxx1112basic_stringIhS8_SaIhEEESt6vectorISt4pairINS6_7addressESE_INS6_7bytes32ESaISH_EEESaISK_EEhS4_S4_EEESD_DpRKT_
FN:85,_ZN6evmone3rlp6encodeISt4pairIN4evmc7addressESt6vectorINS3_7bytes32ESaIS6_EEEEENSt7__cxx1112basic_stringIhNS3_11byte_traitsIhEESaIhEEERKS5_IT_SaISG_EE
FN:111,_ZN6evmone3rlp8internal16encode_containerIN9__gnu_cxx17__normal_iteratorIPKSt4pairIN4evmc7addressESt6vectorINS6_7bytes32ESaIS9_EEES8_ISC_SaISC_EEEEEENSt7__cxx1112basic_stringIhNS6_11byte_traitsIhEESaIhEEET_SO_
FN:99,_ZN6evmone3rlp6encodeIN4evmc7addressESt6vectorINS2_7bytes32ESaIS5_EEEENSt7__cxx1112basic_stringIhNS2_11byte_traitsIhEESaIhEEERKSt4pairIT_T0_E
FN:92,_ZN6evmone3rlp12encode_tupleIJN4evmc7addressESt6vectorINS2_7bytes32ESaIS5_EEEEENSt7__cxx1112basic_stringIhNS2_11byte_traitsIhEESaIhEEEDpRKT_
FN:92,_ZN6evmone3rlp12encode_tupleIJmmN4intx4uintILj256EEES4_mSt17basic_string_viewIhN4evmc11byte_traitsIhEEES4_NSt7__cxx1112basic_stringIhS8_SaIhEEESt6vectorISt4pairINS6_7addressESE_INS6_7bytes32ESaISH_EEESaISK_EEhS4_S4_EEESD_DpRKT_
FN:92,_ZN6evmone3rlp12encode_tupleIJmmN4intx4uintILj256EEES4_mSt17basic_string_viewIhN4evmc11byte_traitsIhEEES4_NSt7__cxx1112basic_stringIhS8_SaIhEEESt6vectorISt4pairINS6_7addressESE_INS6_7bytes32ESaISH_EEESaISK_EES4_SJ_hS4_S4_EEESD_DpRKT_
FN:92,_ZN6evmone3rlp12encode_tupleIJmmN4intx4uintILj256EEES4_mSt17basic_string_viewIhN4evmc11byte_traitsIhEEES4_NSt7__cxx1112basic_stringIhS8_SaIhEEESt6vectorISt4pairINS6_7addressESE_INS6_7bytes32ESaISH_EEESaISK_EESE_INS_5state13AuthorizationESaISO_EEhS4_S4_EEESD_DpRKT_
FN:85,_ZN6evmone3rlp6encodeINS_5state13AuthorizationEEENSt7__cxx1112basic_stringIhN4evmc11byte_traitsIhEESaIhEEERKSt6vectorIT_SaISC_EE
FN:111,_ZN6evmone3rlp8internal16encode_containerIN9__gnu_cxx17__normal_iteratorIPKNS_5state13AuthorizationESt6vectorIS6_SaIS6_EEEEEENSt7__cxx1112basic_stringIhN4evmc11byte_traitsIhEESaIhEEET_SK_
FN:56,_ZN6evmone3rlp6encodeINS_5state13AuthorizationEEEDTcl10rlp_encodeclsr3stdE7declvalIT_EEEERKS4_
FN:92,_ZN6evmone3rlp12encode_tupleIJN4evmc7bytes32EmSt17basic_string_viewIhNS2_11byte_traitsIhEEESt6vectorINS_5state3LogESaISA_EEEEENSt7__cxx1112basic_stringIhS6_SaIhEEEDpRKT_
FN:92,_ZN6evmone3rlp12encode_tupleIJbmSt17basic_string_viewIhN4evmc11byte_traitsIhEEESt6vectorINS_5state3LogESaIS9_EEEEENSt7__cxx1112basic_stringIhS5_SaIhEEEDpRKT_
FN:92,_ZN6evmone3rlp12encode_tupleIJN4intx4uintILj256EEEN4evmc7addressEmS4_S4_S4_EEENSt7__cxx1112basic_stringIhNS5_11byte_traitsIhEESaIhEEEDpRKT_
FNDA:27914942,_ZN6evmone3rlp8internal9wrap_listERKNSt7__cxx1112basic_stringIhN4evmc11byte_traitsIhEESaIhEEE
FNDA:22931707,_ZN6evmone3rlp4trimESt17basic_string_viewIhN4evmc11byte_traitsIhEEE
FNDA:85777999,_ZN6evmone3rlp6encodeB5cxx11ESt17basic_string_viewIhN4evmc11byte_traitsIhEEE
FNDA:6341286,_ZN6evmone3rlp6encodeB5cxx11Em
FNDA:6303842,_ZN6evmone3rlp6encodeB5cxx11ERKN4intx4uintILj256EEE
FNDA:27914942,_ZN6evmone3rlp8internal13encode_lengthILh192ELh247EEENSt7__cxx1112basic_stringIhN4evmc11byte_traitsIhEESaIhEEEm
FNDA:69990496,_ZN6evmone3rlp8internal13encode_lengthILh128ELh183EEENSt7__cxx1112basic_stringIhN4evmc11byte_traitsIhEESaIhEEEm
FNDA:148890,_ZN6evmone3rlp6encodeINS_5state3LogEEENSt7__cxx1112basic_stringIhN4evmc11byte_traitsIhEESaIhEEERKSt6vectorIT_SaISC_EE
FNDA:148890,_ZN6evmone3rlp8internal16encode_containerIN9__gnu_cxx17__normal_iteratorIPKNS_5state3LogESt6vectorIS6_SaIS6_EEEEEENSt7__cxx1112basic_stringIhN4evmc11byte_traitsIhEESaIhEEET_SK_
FNDA:28427,_ZN6evmone3rlp6encodeINS_5state3LogEEEDTcl10rlp_encodeclsr3stdE7declvalIT_EEEERKS4_
FNDA:4164,_ZN6evmone3rlp12encode_tupleIJmmN4evmc7addressEmEEENSt7__cxx1112basic_stringIhNS2_11byte_traitsIhEESaIhEEEDpRKT_
FNDA:5377411,_ZN6evmone3rlp12encode_tupleIJmN4intx4uintILj256EEEN4evmc7bytes32ES6_EEENSt7__cxx1112basic_stringIhNS5_11byte_traitsIhEESaIhEEEDpRKT_
FNDA:176614,_ZN6evmone3rlp6encodeINS_5state11TransactionEEEDTcl10rlp_encodeclsr3stdE7declvalIT_EEEERKS4_
FNDA:85935,_ZN6evmone3rlp6encodeINS_5state18TransactionReceiptEEEDTcl10rlp_encodeclsr3stdE7declvalIT_EEEERKS4_
FNDA:4164,_ZN6evmone3rlp6encodeINS_5state10WithdrawalEEEDTcl10rlp_encodeclsr3stdE7declvalIT_EEEERKS4_
FNDA:28427,_ZN6evmone3rlp12encode_tupleIJN4evmc7addressESt6vectorINS2_7bytes32ESaIS5_EENSt7__cxx1112basic_stringIhNS2_11byte_traitsIhEESaIhEEEEEESD_DpRKT_
FNDA:192269,_ZN6evmone3rlp6encodeIN4evmc7bytes32EEENSt7__cxx1112basic_stringIhNS2_11byte_traitsIhEESaIhEEERKSt6vectorIT_SaISB_EE
FNDA:192269,_ZN6evmone3rlp8internal16encode_containerIN9__gnu_cxx17__normal_iteratorIPKN4evmc7bytes32ESt6vectorIS6_SaIS6_EEEEEENSt7__cxx1112basic_stringIhNS5_11byte_traitsIhEESaIhEEET_SJ_
FNDA:144594,_ZN6evmone3rlp12encode_tupleIJmN4intx4uintILj256EEEmSt17basic_string_viewIhN4evmc11byte_traitsIhEEES4_NSt7__cxx1112basic_stringIhS8_SaIhEEEhS4_S4_EEESD_DpRKT_
FNDA:5191,_ZN6evmone3rlp12encode_tupleIJmmN4intx4uintILj256EEEmSt17basic_string_viewIhN4evmc11byte_traitsIhEEES4_NSt7__cxx1112basic_stringIhS8_SaIhEEESt6vectorISt4pairINS6_7addressESE_INS6_7bytes32ESaISH_EEESaISK_EEhS4_S4_EEESD_DpRKT_
FNDA:32020,_ZN6evmone3rlp6encodeISt4pairIN4evmc7addressESt6vectorINS3_7bytes32ESaIS6_EEEEENSt7__cxx1112basic_stringIhNS3_11byte_traitsIhEESaIhEEERKS5_IT_SaISG_EE
FNDA:32020,_ZN6evmone3rlp8internal16encode_containerIN9__gnu_cxx17__normal_iteratorIPKSt4pairIN4evmc7addressESt6vectorINS6_7bytes32ESaIS9_EEES8_ISC_SaISC_EEEEEENSt7__cxx1112basic_stringIhNS6_11byte_traitsIhEESaIhEEET_SO_
FNDA:144932,_ZN6evmone3rlp6encodeIN4evmc7addressESt6vectorINS2_7bytes32ESaIS5_EEEENSt7__cxx1112basic_stringIhNS2_11byte_traitsIhEESaIhEEERKSt4pairIT_T0_E
FNDA:144932,_ZN6evmone3rlp12encode_tupleIJN4evmc7addressESt6vectorINS2_7bytes32ESaIS5_EEEEENSt7__cxx1112basic_stringIhNS2_11byte_traitsIhEESaIhEEEDpRKT_
FNDA:5314,_ZN6evmone3rlp12encode_tupleIJmmN4intx4uintILj256EEES4_mSt17basic_string_viewIhN4evmc11byte_traitsIhEEES4_NSt7__cxx1112basic_stringIhS8_SaIhEEESt6vectorISt4pairINS6_7addressESE_INS6_7bytes32ESaISH_EEESaISK_EEhS4_S4_EEESD_DpRKT_
FNDA:18910,_ZN6evmone3rlp12encode_tupleIJmmN4intx4uintILj256EEES4_mSt17basic_string_viewIhN4evmc11byte_traitsIhEEES4_NSt7__cxx1112basic_stringIhS8_SaIhEEESt6vectorISt4pairINS6_7addressESE_INS6_7bytes32ESaISH_EEESaISK_EES4_SJ_hS4_S4_EEESD_DpRKT_
FNDA:2605,_ZN6evmone3rlp12encode_tupleIJmmN4intx4uintILj256EEES4_mSt17basic_string_viewIhN4evmc11byte_traitsIhEEES4_NSt7__cxx1112basic_stringIhS8_SaIhEEESt6vectorISt4pairINS6_7addressESE_INS6_7bytes32ESaISH_EEESaISK_EESE_INS_5state13AuthorizationESaISO_EEhS4_S4_EEESD_DpRKT_
FNDA:2605,_ZN6evmone3rlp6encodeINS_5state13AuthorizationEEENSt7__cxx1112basic_stringIhN4evmc11byte_traitsIhEESaIhEEERKSt6vectorIT_SaISC_EE
FNDA:2605,_ZN6evmone3rlp8internal16encode_containerIN9__gnu_cxx17__normal_iteratorIPKNS_5state13AuthorizationESt6vectorIS6_SaIS6_EEEEEENSt7__cxx1112basic_stringIhN4evmc11byte_traitsIhEESaIhEEET_SK_
FNDA:43559,_ZN6evmone3rlp6encodeINS_5state13AuthorizationEEEDTcl10rlp_encodeclsr3stdE7declvalIT_EEEERKS4_
FNDA:1942,_ZN6evmone3rlp12encode_tupleIJN4evmc7bytes32EmSt17basic_string_viewIhNS2_11byte_traitsIhEEESt6vectorINS_5state3LogESaISA_EEEEENSt7__cxx1112basic_stringIhS6_SaIhEEEDpRKT_
FNDA:83993,_ZN6evmone3rlp12encode_tupleIJbmSt17basic_string_viewIhN4evmc11byte_traitsIhEEESt6vectorINS_5state3LogESaIS9_EEEEENSt7__cxx1112basic_stringIhS5_SaIhEEEDpRKT_
FNDA:43559,_ZN6evmone3rlp12encode_tupleIJN4intx4uintILj256EEEN4evmc7addressEmS4_S4_S4_EEENSt7__cxx1112basic_stringIhNS5_11byte_traitsIhEESaIhEEEDpRKT_
FNF:11
FNH:11
DA:24,97905438
DA:25,97905438
DA:26,97905438
DA:27,97905438
DA:29,97905438
DA:30,70762979
DA:31,27142459
DA:32,26168496
DA:33,973963
DA:34,972367
DA:35,1596
DA:36,1596
DA:37,97905438
DA:40,27914942
DA:41,27914942
DA:42,27914942
DA:49,22931707
DA:50,22931707
DA:51,22931707
DA:52,22931707
DA:56,338699
DA:57,338699
DA:58,338699
DA:61,85777999
DA:62,85777999
DA:63,85777999
DA:64,15787503
DA:66,69990496
DA:67,85777999
DA:70,6341286
DA:71,6341286
DA:72,6341286
DA:73,6341286
DA:74,6341286
DA:77,6303842
DA:78,6303842
DA:79,6303842
DA:80,6303842
DA:81,6303842
DA:85,375784
DA:86,375784
DA:87,375784
DA:92,5861042
DA:93,5861042
DA:94,5861042
DA:99,144932
DA:100,144932
DA:101,144932
DA:111,375784
DA:112,375784
DA:113,805070
DA:114,429286
DA:115,375784
DA:116,375784
BRDA:29,0,0,6505150
BRDA:29,0,1,21409792
BRDA:29,1,2,64257829
BRDA:29,1,3,5732667
BRDA:31,0,0,20654948
BRDA:31,0,1,754844
BRDA:31,1,2,5513548
BRDA:31,1,3,219119
BRDA:33,0,0,753972
BRDA:33,0,1,872
BRDA:33,1,2,218395
BRDA:33,1,3,724
BRDA:63,0,0,15978466
BRDA:63,0,1,69799533
BRDA:63,1,2,15787503
BRDA:63,1,3,190963
BRDA:113,0,0,28427
BRDA:113,0,1,148890
BRDA:113,1,2,212368
BRDA:113,1,3,192269
BRDA:113,2,4,144932
BRDA:113,2,5,32020
BRDA:113,3,6,43559
BRDA:113,3,7,2605
BRF:12
BRH:12
LF:54
LH:54
end_of_record
SF:/home/user/sources/ethereum/evmone/test/state/state.cpp
FN:198,_ZNK6evmone5state5State10build_diffE13evmc_revision
FN:238,_ZN6evmone5state5State6insertERKN4evmc7addressENS0_7AccountE
FN:245,_ZN6evmone5state5State4findERKN4evmc7addressE
FN:259,_ZN6evmone5state5State3getERKN4evmc7addressE
FN:266,_ZN6evmone5state5State13get_or_insertERKN4evmc7addressENS0_7AccountE
FN:273,_ZN6evmone5state5State8get_codeERKN4evmc7addressE
FN:285,_ZN6evmone5state5State5touchERKN4evmc7addressE
FN:296,_ZN6evmone5state5State11get_storageERKN4evmc7addressERKNS2_7bytes32E
FN:309,_ZN6evmone5state5State22journal_balance_changeERKN4evmc7addressERKN4intx4uintILj256EEE
FN:315,_ZN6evmone5state5State22journal_storage_changeERKN4evmc7addressERKNS2_7bytes32ERKNS0_12StorageValueE
FN:321,_ZN6evmone5state5State32journal_transient_storage_changeERKN4evmc7addressERKNS2_7bytes32ES8_
FN:326,_ZN6evmone5state5State18journal_bump_nonceERKN4evmc7addressE
FN:331,_ZN6evmone5state5State14journal_createERKN4evmc7addressEb
FN:336,_ZN6evmone5state5State16journal_destructERKN4evmc7addressE
FN:341,_ZN6evmone5state5State22journal_access_accountERKN4evmc7addressE
FN:346,_ZN6evmone5state5State8rollbackEm
FN:418,_ZN6evmone5state20validate_transactionERKNS0_9StateViewERKNS0_9BlockInfoERKNS0_11TransactionE13evmc_revisionll
FN:532,_ZN6evmone5state8finalizeERKNS0_9StateViewE13evmc_revisionRKN4evmc7addressESt8optionalImESt4spanIKNS0_5OmmerELm18446744073709551615EESB_IKNS0_10WithdrawalELm18446744073709551615EE
FN:559,_ZN6evmone5state10transitionERKNS0_9StateViewERKNS0_9BlockInfoERKNS0_11BlockHashesERKNS0_11TransactionE13evmc_revisionRN4evmc2VMERKNS0_21TransactionPropertiesE
FN:350,state.cpp:_ZZN6evmone5state5State8rollbackEmENK3$_0clINS1_20JournalBalanceChangeEEEDaRKT_
FN:350,state.cpp:_ZZN6evmone5state5State8rollbackEmENK3$_0clINS1_14JournalTouchedEEEDaRKT_
FN:350,state.cpp:_ZZN6evmone5state5State8rollbackEmENK3$_0clINS1_20JournalStorageChangeEEEDaRKT_
FN:350,state.cpp:_ZZN6evmone5state5State8rollbackEmENK3$_0clINS1_16JournalNonceBumpEEEDaRKT_
FN:350,state.cpp:_ZZN6evmone5state5State8rollbackEmENK3$_0clINS1_13JournalCreateEEEDaRKT_
FN:350,state.cpp:_ZZN6evmone5state5State8rollbackEmENK3$_0clINS1_29JournalTransientStorageChangeEEEDaRKT_
FN:350,state.cpp:_ZZN6evmone5state5State8rollbackEmENK3$_0clINS1_15JournalDestructEEEDaRKT_
FN:350,state.cpp:_ZZN6evmone5state5State8rollbackEmENK3$_0clINS1_20JournalAccessAccountEEEDaRKT_
FN:435,state.cpp:_ZZN6evmone5state20validate_transactionERKNS0_9StateViewERKNS0_9BlockInfoERKNS0_11TransactionE13evmc_revisionllENK3$_0clIN4evmc7bytes32EEEDaRKT_
FN:60,state.cpp:_ZN6evmone5state12_GLOBAL__N_125compute_tx_intrinsic_costE13evmc_revisionRKNS0_11TransactionE
FN:33,state.cpp:_ZN6evmone5state12_GLOBAL__N_122compute_tx_data_tokensE13evmc_revisionSt17basic_string_viewIhN4evmc11byte_traitsIhEEE
FN:42,state.cpp:_ZN6evmone5state12_GLOBAL__N_124compute_access_list_costERKSt6vectorISt4pairIN4evmc7addressES2_INS4_7bytes32ESaIS6_EEESaIS9_EE
FN:28,state.cpp:_ZN6evmone5state12_GLOBAL__N_19num_wordsEm
FN:94,state.cpp:_ZN6evmone5state12_GLOBAL__N_126process_authorization_listERNS0_5StateEmRKSt6vectorINS0_13AuthorizationESaIS5_EE
FN:176,state.cpp:_ZN6evmone5state12_GLOBAL__N_113build_messageERKNS0_11TransactionEl
FNDA:476805,_ZNK6evmone5state5State10build_diffE13evmc_revision
FNDA:1181366,_ZN6evmone5state5State6insertERKN4evmc7addressENS0_7AccountE
FNDA:55108003,_ZN6evmone5state5State4findERKN4evmc7addressE
FNDA:32861197,_ZN6evmone5state5State3getERKN4evmc7addressE
FNDA:9886068,_ZN6evmone5state5State13get_or_insertERKN4evmc7addressENS0_7AccountE
FNDA:5549786,_ZN6evmone5state5State8get_codeERKN4evmc7addressE
FNDA:4570159,_ZN6evmone5state5State5touchERKN4evmc7addressE
FNDA:11026873,_ZN6evmone5state5State11get_storageERKN4evmc7addressERKNS2_7bytes32E
FNDA:442380,_ZN6evmone5state5State22journal_balance_changeERKN4evmc7addressERKN4intx4uintILj256EEE
FNDA:5503518,_ZN6evmone5state5State22journal_storage_changeERKN4evmc7addressERKNS2_7bytes32ERKNS0_12StorageValueE
FNDA:9079234,_ZN6evmone5state5State32journal_transient_storage_changeERKN4evmc7addressERKNS2_7bytes32ES8_
FNDA:48284,_ZN6evmone5state5State18journal_bump_nonceERKN4evmc7addressE
FNDA:93925,_ZN6evmone5state5State14journal_createERKN4evmc7addressEb
FNDA:4334,_ZN6evmone5state5State16journal_destructERKN4evmc7addressE
FNDA:594442,_ZN6evmone5state5State22journal_access_accountERKN4evmc7addressE
FNDA:2416685,_ZN6evmone5state5State8rollbackEm
FNDA:153634,_ZN6evmone5state20validate_transactionERKNS0_9StateViewERKNS0_9BlockInfoERKNS0_11TransactionE13evmc_revisionll
FNDA:151924,_ZN6evmone5state8finalizeERKNS0_9StateViewE13evmc_revisionRKN4evmc7addressESt8optionalImESt4spanIKNS0_5OmmerELm18446744073709551615EESB_IKNS0_10WithdrawalELm18446744073709551615EE
FNDA:147003,_ZN6evmone5state10transitionERKNS0_9StateViewERKNS0_9BlockInfoERKNS0_11BlockHashesERKNS0_11TransactionE13evmc_revisionRN4evmc2VMERKNS0_21TransactionPropertiesE
FNDA:32290,state.cpp:_ZZN6evmone5state5State8rollbackEmENK3$_0clINS1_20JournalBalanceChangeEEEDaRKT_
FNDA:0,state.cpp:_ZZN6evmone5state5State8rollbackEmENK3$_0clINS1_14JournalTouchedEEEDaRKT_
FNDA:1190887,state.cpp:_ZZN6evmone5state5State8rollbackEmENK3$_0clINS1_20JournalStorageChangeEEEDaRKT_
FNDA:6070,state.cpp:_ZZN6evmone5state5State8rollbackEmENK3$_0clINS1_16JournalNonceBumpEEEDaRKT_
FNDA:10439,state.cpp:_ZZN6evmone5state5State8rollbackEmENK3$_0clINS1_13JournalCreateEEEDaRKT_
FNDA:9067480,state.cpp:_ZZN6evmone5state5State8rollbackEmENK3$_0clINS1_29JournalTransientStorageChangeEEEDaRKT_
FNDA:74,state.cpp:_ZZN6evmone5state5State8rollbackEmENK3$_0clINS1_15JournalDestructEEEDaRKT_
FNDA:14280,state.cpp:_ZZN6evmone5state5State8rollbackEmENK3$_0clINS1_20JournalAccessAccountEEEDaRKT_
FNDA:42376,state.cpp:_ZZN6evmone5state20validate_transactionERKNS0_9StateViewERKNS0_9BlockInfoERKNS0_11TransactionE13evmc_revisionllENK3$_0clIN4evmc7bytes32EEEDaRKT_
FNDA:151369,state.cpp:_ZN6evmone5state12_GLOBAL__N_125compute_tx_intrinsic_costE13evmc_revisionRKNS0_11TransactionE
FNDA:151369,state.cpp:_ZN6evmone5state12_GLOBAL__N_122compute_tx_data_tokensE13evmc_revisionSt17basic_string_viewIhN4evmc11byte_traitsIhEEE
FNDA:151369,state.cpp:_ZN6evmone5state12_GLOBAL__N_124compute_access_list_costERKSt6vectorISt4pairIN4evmc7addressES2_INS4_7bytes32ESaIS6_EEESaIS9_EE
FNDA:38975,state.cpp:_ZN6evmone5state12_GLOBAL__N_19num_wordsEm
FNDA:147003,state.cpp:_ZN6evmone5state12_GLOBAL__N_126process_authorization_listERNS0_5StateEmRKSt6vectorINS0_13AuthorizationESaIS5_EE
FNDA:147003,state.cpp:_ZN6evmone5state12_GLOBAL__N_113build_messageERKNS0_11TransactionEl
FNF:27
FNH:27
DA:28,38975
DA:29,38975
DA:30,38975
DA:33,151369
DA:34,151369
DA:35,151369
DA:37,151369
DA:38,151369
DA:39,151369
DA:42,151369
DA:43,151369
DA:44,151369
DA:46,151369
DA:47,151369
DA:48,164946
DA:49,151369
DA:50,151369
DA:60,151369
DA:61,151369
DA:62,151369
DA:63,151369
DA:64,151369
DA:65,151369
DA:67,151369
DA:69,151369
DA:71,151369
DA:72,151369
DA:74,151369
DA:76,151369
DA:77,151369
DA:79,151369
DA:80,151369
DA:82,151369
DA:83,151369
DA:86,151369
DA:87,151369
DA:89,151369
DA:90,151369
DA:94,147003
DA:95,147003
DA:96,147003
DA:97,37738
DA:99,37738
DA:100,56
DA:103,37682
DA:104,8
DA:108,37674
DA:109,68
DA:112,37606
DA:113,12
DA:117,37594
DA:120,37594
DA:123,37594
DA:124,37594
DA:125,64
DA:129,37530
DA:130,5522
DA:138,32008
DA:139,16024
DA:140,16024
DA:141,16024
DA:142,16024
DA:143,16024
DA:147,32008
DA:148,128
DA:149,128
DA:150,44
DA:151,44
DA:152,44
DA:153,44
DA:154,44
DA:155,128
DA:157,31880
DA:158,31880
DA:159,31880
DA:160,31880
DA:161,26584
DA:163,26584
DA:164,26584
DA:165,26584
DA:166,26584
DA:167,31880
DA:170,32008
DA:171,32008
DA:172,147003
DA:173,147003
DA:176,147003
DA:177,147003
DA:179,147003
DA:180,147003
DA:181,147003
DA:182,147003
DA:183,147003
DA:184,147003
DA:185,147003
DA:186,147003
DA:187,147003
DA:188,147003
DA:189,147003
DA:190,147003
DA:191,147003
DA:192,147003
DA:193,147003
DA:194,147003
DA:198,476805
DA:199,476805
DA:200,476805
DA:201,1180687
DA:202,1180687
DA:203,4260
DA:206,4260
DA:207,4260
DA:208,4260
DA:209,1176427
DA:210,288577
DA:211,288577
DA:212,281535
DA:213,288577
DA:214,288577
DA:221,887850
DA:225,887850
DA:226,49033
DA:228,887850
DA:229,1826543
DA:230,1826543
DA:231,513820
DA:232,1826543
DA:233,887850
DA:234,476805
DA:235,476805
DA:238,1181366
DA:239,1181366
DA:240,1181366
DA:241,1181366
DA:242,1181366
DA:245,55108003
DA:248,55108003
DA:249,51903123
DA:250,3204880
DA:251,758093
DA:252,758093
DA:253,758093
DA:254,758093
DA:255,2446787
DA:256,3204880
DA:259,32861197
DA:260,32861197
DA:261,32861197
DA:262,32861197
DA:263,32861197
DA:266,9886068
DA:267,9886068
DA:268,9469192
DA:269,416876
DA:270,9886068
DA:273,5549786
DA:274,5549786
DA:275,5549786
DA:276,117
DA:277,5549669
DA:278,1470954
DA:279,4078715
DA:280,278518
DA:281,4078715
DA:282,5549669
DA:285,4570159
DA:286,4570159
DA:287,4570159
DA:288,4
DA:289,4
DA:290,4
DA:291,4
DA:292,4570159
DA:293,4570159
DA:296,11026873
DA:298,11026873
DA:299,11026873
DA:300,11026873
DA:301,1898720
DA:302,1898720
DA:303,1898720
DA:304,1898720
DA:305,11026873
DA:306,11026873
DA:309,442380
DA:310,442380
DA:311,442380
DA:315,5503518
DA:316,5503518
DA:317,5503518
DA:321,9079234
DA:322,9079234
DA:323,9079234
DA:326,48284
DA:327,48284
DA:328,48284
DA:331,93925
DA:332,93925
DA:333,93925
DA:336,4334
DA:337,4334
DA:338,4334
DA:341,594442
DA:342,594442
DA:343,594442
DA:346,2416685
DA:347,12738205
DA:348,10321520
DA:349,10321520
DA:350,10321520
DA:351,10321520
DA:353,6070
DA:354,6070
DA:357,0
DA:358,0
DA:361,74
DA:362,74
DA:365,14280
DA:366,14280
DA:369,10439
DA:370,10439
DA:371,9772
DA:373,9772
DA:374,9772
DA:375,9772
DA:376,9772
DA:377,9772
DA:378,667
DA:379,667
DA:384,667
DA:385,667
DA:388,1190887
DA:389,1190887
DA:390,1190887
DA:391,1190887
DA:394,9067480
DA:395,9067480
DA:396,9067480
DA:399,32290
DA:400,32290
DA:407,10321520
DA:408,10321520
DA:409,10321520
DA:410,10321520
DA:411,2416685
DA:418,153634
DA:419,153634
DA:420,153634
DA:421,13395
DA:422,13395
DA:423,4
DA:424,13391
DA:425,6
DA:426,13385
DA:427,12
DA:428,13373
DA:429,11
DA:431,13373
DA:432,13362
DA:433,12
DA:435,42376
DA:436,42
DA:437,13308
DA:438,119
DA:439,13189
DA:441,13189
DA:442,2611
DA:443,4
DA:444,2607
DA:445,4
DA:446,2603
DA:447,4
DA:448,2599
DA:450,137628
DA:451,153634
DA:453,153416
DA:454,153416
DA:455,2599
DA:456,15788
DA:457,21034
DA:458,21034
DA:459,14
DA:461,21020
DA:462,10
DA:463,21010
DA:465,27371
DA:466,27371
DA:467,12
DA:468,27359
DA:470,153380
DA:471,153416
DA:473,153416
DA:475,153380
DA:476,21
DA:478,153359
DA:479,7
DA:481,153352
DA:482,28
DA:486,153324
DA:487,153324
DA:489,153324
DA:490,153324
DA:491,74
DA:493,153250
DA:494,12
DA:496,153238
DA:497,12
DA:499,153226
DA:500,2
DA:503,153224
DA:504,22
DA:509,153202
DA:510,153202
DA:512,153202
DA:513,13169
DA:514,13169
DA:516,13169
DA:517,13169
DA:518,153202
DA:519,1833
DA:521,151369
DA:522,151369
DA:523,4366
DA:525,147003
DA:526,147003
DA:527,151369
DA:532,151924
DA:533,151924
DA:535,151924
DA:536,78832
DA:537,78832
DA:538,78832
DA:539,78832
DA:540,78832
DA:542,78832
DA:543,78832
DA:544,0
DA:545,0
DA:546,0
DA:547,0
DA:548,78832
DA:550,151924
DA:551,4168
DA:553,151924
DA:554,151924
DA:559,147003
DA:560,147003
DA:562,147003
DA:563,147003
DA:564,147003
DA:566,147003
DA:567,147003
DA:569,147003
DA:570,147003
DA:571,147003
DA:572,147003
DA:573,147003
DA:574,147003
DA:576,147003
DA:577,147003
DA:579,147003
DA:581,147003
DA:582,11822
DA:585,11822
DA:586,11822
DA:587,11822
DA:588,11822
DA:589,11822
DA:590,11822
DA:592,147003
DA:594,147003
DA:595,147003
DA:596,108166
DA:597,147003
DA:598,114056
DA:599,114056
DA:600,114056
DA:601,70361
DA:602,114056
DA:606,147003
DA:607,125172
DA:609,147003
DA:610,147003
DA:611,108166
DA:612,108166
DA:613,542
DA:614,542
DA:615,542
DA:616,542
DA:617,542
DA:618,108166
DA:620,147003
DA:622,147003
DA:624,147003
DA:625,147003
DA:626,147003
DA:627,147003
DA:628,147003
DA:631,147003
DA:633,147003
DA:634,147003
DA:637,147003
DA:638,147003
DA:641,147003
DA:643,147003
DA:644,147003
BRDA:37,0,0,142338
BRDA:37,0,1,9031
BRDA:47,0,0,164946
BRDA:47,0,1,151369
BRDA:69,0,0,39077
BRDA:69,0,1,112292
BRDA:69,1,2,39070
BRDA:69,1,3,7
BRDA:80,0,0,39077
BRDA:80,0,1,112292
BRDA:80,1,2,38975
BRDA:80,1,3,102
BRDA:87,0,0,87487
BRDA:87,0,1,63882
BRDA:96,0,0,37738
BRDA:96,0,1,147003
BRDA:99,0,0,56
BRDA:99,0,1,37682
BRDA:99,1,2,198
BRDA:99,1,3,37540
BRDA:99,2,4,56
BRDA:99,2,5,142
BRDA:103,0,0,8
BRDA:103,0,1,37674
BRDA:108,0,0,68
BRDA:108,0,1,37606
BRDA:112,0,0,12
BRDA:112,0,1,37594
BRDA:123,0,0,10854
BRDA:123,0,1,26740
BRDA:124,0,0,64
BRDA:124,0,1,10790
BRDA:129,0,0,5522
BRDA:129,0,1,32008
BRDA:138,0,0,16024
BRDA:138,0,1,15984
BRDA:147,0,0,128
BRDA:147,0,1,31880
BRDA:149,0,0,44
BRDA:149,0,1,84
BRDA:160,0,0,26584
BRDA:160,0,1,5296
BRDA:177,0,0,108166
BRDA:177,0,1,38837
BRDA:180,0,0,108166
BRDA:180,0,1,38837
BRDA:200,0,0,1180687
BRDA:200,0,1,476805
BRDA:202,0,0,4260
BRDA:202,0,1,1176427
BRDA:209,0,0,412773
BRDA:209,0,1,763654
BRDA:209,1,2,411063
BRDA:209,1,3,1710
BRDA:209,2,4,288577
BRDA:209,2,5,122486
BRDA:211,0,0,281535
BRDA:211,0,1,7042
BRDA:225,0,0,49033
BRDA:225,0,1,838817
BRDA:228,0,0,1826543
BRDA:228,0,1,887850
BRDA:230,0,0,513820
BRDA:230,0,1,1312723
BRDA:248,0,0,51903123
BRDA:248,0,1,3204880
BRDA:250,0,0,758093
BRDA:250,0,1,2446787
BRDA:267,0,0,9469192
BRDA:267,0,1,416876
BRDA:275,0,0,117
BRDA:275,0,1,5549669
BRDA:277,0,0,1470954
BRDA:277,0,1,4078715
BRDA:279,0,0,278518
BRDA:279,0,1,3800197
BRDA:287,0,0,1937553
BRDA:287,0,1,2632606
BRDA:287,1,2,4
BRDA:287,1,3,1937549
BRDA:300,0,0,1898720
BRDA:300,0,1,9128153
BRDA:347,0,0,10321520
BRDA:347,0,1,2416685
BRDA:370,0,0,9772
BRDA:370,0,1,667
BRDA:421,0,0,13395
BRDA:421,0,1,140239
BRDA:422,0,0,4
BRDA:422,0,1,13391
BRDA:424,0,0,6
BRDA:424,0,1,13385
BRDA:426,0,0,12
BRDA:426,0,1,13373
BRDA:428,0,0,5288
BRDA:428,0,1,8085
BRDA:428,1,2,11
BRDA:428,1,3,5277
BRDA:432,0,0,12
BRDA:432,0,1,13350
BRDA:435,0,0,42
BRDA:435,0,1,13308
BRDA:437,0,0,119
BRDA:437,0,1,13189
BRDA:441,0,0,2611
BRDA:441,0,1,151023
BRDA:442,0,0,4
BRDA:442,0,1,2607
BRDA:444,0,0,4
BRDA:444,0,1,2603
BRDA:446,0,0,4
BRDA:446,0,1,2599
BRDA:450,0,0,137628
BRDA:450,0,1,16006
BRDA:453,0,0,153416
BRDA:453,0,1,0
BRDA:455,0,0,2599
BRDA:455,0,1,150817
BRDA:456,0,0,13189
BRDA:456,0,1,140227
BRDA:457,0,0,5246
BRDA:457,0,1,148170
BRDA:458,0,0,14
BRDA:458,0,1,21020
BRDA:461,0,0,10
BRDA:461,0,1,21010
BRDA:465,0,0,6361
BRDA:465,0,1,147055
BRDA:466,0,0,12
BRDA:466,0,1,27359
BRDA:470,0,0,126021
BRDA:470,0,1,27395
BRDA:475,0,0,45064
BRDA:475,0,1,108316
BRDA:475,1,2,21
BRDA:475,1,3,45043
BRDA:478,0,0,7
BRDA:478,0,1,153352
BRDA:481,0,0,28
BRDA:481,0,1,153324
BRDA:489,0,0,74
BRDA:489,0,1,153250
BRDA:489,1,2,120
BRDA:489,1,3,153204
BRDA:490,0,0,74
BRDA:490,0,1,46
BRDA:493,0,0,12
BRDA:493,0,1,153238
BRDA:496,0,0,12
BRDA:496,0,1,153226
BRDA:499,0,0,2
BRDA:499,0,1,153224
BRDA:503,0,0,130061
BRDA:503,0,1,23163
BRDA:503,1,2,39237
BRDA:503,1,3,90824
BRDA:503,2,4,22
BRDA:503,2,5,39215
BRDA:512,0,0,13169
BRDA:512,0,1,140033
BRDA:518,0,0,1833
BRDA:518,0,1,151369
BRDA:522,0,0,4366
BRDA:522,0,1,147003
BRDA:535,0,0,78832
BRDA:535,0,1,73092
BRDA:543,0,0,0
BRDA:543,0,1,78832
BRDA:550,0,0,4168
BRDA:550,0,1,151924
BRDA:569,0,0,132284
BRDA:569,0,1,14719
BRDA:581,0,0,11822
BRDA:581,0,1,135181
BRDA:595,0,0,108166
BRDA:595,0,1,38837
BRDA:597,0,0,114056
BRDA:597,0,1,147003
BRDA:600,0,0,70361
BRDA:600,0,1,114056
BRDA:606,0,0,125172
BRDA:606,0,1,21831
BRDA:610,0,0,108166
BRDA:610,0,1,38837
BRDA:612,0,0,542
BRDA:612,0,1,107624
BRDA:624,0,0,132284
BRDA:624,0,1,14719
BRF:188
BRH:186
LF:440
LH:436
end_of_record
SF:/home/user/sources/ethereum/evmone/test/state/state.hpp
FN:77,_ZN6evmone5state5StateC2ERKNS0_9StateViewE
FN:103,_ZNK6evmone5state5State10checkpointEv
FNDA:476821,_ZN6evmone5state5StateC2ERKNS0_9StateViewE
FNDA:4335754,_ZNK6evmone5state5State10checkpointEv
FNF:2
FNH:2
DA:77,476821
DA:103,4335754
BRF:0
BRH:0
LF:2
LH:2
end_of_record
SF:/home/user/sources/ethereum/evmone/test/state/state_view.hpp
FN:28,_ZN6evmone5state9StateViewD2Ev
FN:39,_ZN6evmone5state11BlockHashesD2Ev
FNDA:1580136,_ZN6evmone5state9StateViewD2Ev
FNDA:344900,_ZN6evmone5state11BlockHashesD2Ev
FNF:2
FNH:2
DA:28,1580136
DA:39,344900
BRF:0
BRH:0
LF:2
LH:2
end_of_record
SF:/home/user/sources/ethereum/evmone/test/state/system_contracts.cpp
FN:87,_ZN6evmone5state23system_call_block_startERKNS0_9StateViewERKNS0_9BlockInfoERKNS0_11BlockHashesE13evmc_revisionRN4evmc2VME
FN:111,_ZN6evmone5state21system_call_block_endERKNS0_9StateViewERKNS0_9BlockInfoERKNS0_11BlockHashesE13evmc_revisionRN4evmc2VME
FN:36,system_contracts.cpp:_ZNK6evmone5state12_GLOBAL__N_13$_1clERKNS0_9BlockInfoERKNS0_11BlockHashesE
FN:40,system_contracts.cpp:_ZNK6evmone5state12_GLOBAL__N_13$_2clERKNS0_9BlockInfoERKNS0_11BlockHashesE
FN:69,system_contracts.cpp:_ZN6evmone5state12_GLOBAL__N_119execute_system_callERNS0_5StateERKNS0_9BlockInfoERKNS0_11BlockHashesE13evmc_revisionRN4evmc2VMERKNSB_7addressESt17basic_string_viewIhNSB_11byte_traitsIhEEESK_
FN:59,system_contracts.cpp:_ZNK6evmone5state12_GLOBAL__N_13$_0clINS1_21StorageSystemContractES4_EEDaRKT_RKT0_
FN:59,system_contracts.cpp:_ZNK6evmone5state12_GLOBAL__N_13$_0clINS1_22RequestsSystemContractES4_EEDaRKT_RKT0_
FNDA:88969,_ZN6evmone5state23system_call_block_startERKNS0_9StateViewERKNS0_9BlockInfoERKNS0_11BlockHashesE13evmc_revisionRN4evmc2VME
FNDA:88925,_ZN6evmone5state21system_call_block_endERKNS0_9StateViewERKNS0_9BlockInfoERKNS0_11BlockHashesE13evmc_revisionRN4evmc2VME
FNDA:66638,system_contracts.cpp:_ZNK6evmone5state12_GLOBAL__N_13$_1clERKNS0_9BlockInfoERKNS0_11BlockHashesE
FNDA:46926,system_contracts.cpp:_ZNK6evmone5state12_GLOBAL__N_13$_2clERKNS0_9BlockInfoERKNS0_11BlockHashesE
FNDA:207328,system_contracts.cpp:_ZN6evmone5state12_GLOBAL__N_119execute_system_callERNS0_5StateERKNS0_9BlockInfoERKNS0_11BlockHashesE13evmc_revisionRN4evmc2VMERKNSB_7addressESt17basic_string_viewIhNSB_11byte_traitsIhEEESK_
FNDA:0,system_contracts.cpp:_ZNK6evmone5state12_GLOBAL__N_13$_0clINS1_21StorageSystemContractES4_EEDaRKT_RKT0_
FNDA:0,system_contracts.cpp:_ZNK6evmone5state12_GLOBAL__N_13$_0clINS1_22RequestsSystemContractES4_EEDaRKT_RKT0_
FNF:6
FNH:5
DA:36,66638
DA:37,66638
DA:38,66638
DA:40,46926
DA:41,46926
DA:42,46926
DA:59,0
DA:69,207328
DA:70,207328
DA:71,207328
DA:72,207328
DA:73,207328
DA:74,207328
DA:75,207328
DA:76,207328
DA:77,207328
DA:79,207328
DA:80,207328
DA:81,207328
DA:82,207328
DA:87,88969
DA:88,88969
DA:89,88969
DA:90,155609
DA:91,155609
DA:92,42037
DA:96,113572
DA:97,113572
DA:98,8
DA:100,113564
DA:101,113564
DA:102,113564
DA:103,113564
DA:104,113564
DA:106,88969
DA:107,88969
DA:111,88925
DA:112,88925
DA:113,88925
DA:114,88925
DA:115,135805
DA:116,135805
DA:117,42037
DA:120,93768
DA:121,93768
DA:122,4
DA:124,93764
DA:125,93764
DA:126,12
DA:127,93752
DA:128,93752
DA:129,88909
DA:130,88925
BRDA:89,0,0,155609
BRDA:89,0,1,46932
BRDA:91,0,0,42037
BRDA:91,0,1,113572
BRDA:97,0,0,8
BRDA:97,0,1,113564
BRDA:114,0,0,135805
BRDA:114,0,1,46872
BRDA:116,0,0,42037
BRDA:116,0,1,93768
BRDA:121,0,0,4
BRDA:121,0,1,93764
BRDA:125,0,0,12
BRDA:125,0,1,93752
BRF:14
BRH:14
LF:53
LH:52
end_of_record
SF:/home/user/sources/ethereum/evmone/test/state/test_state.cpp
FN:11,_ZNK6evmone4test9TestState11get_accountERKN4evmc7addressE
FN:22,_ZNK6evmone4test9TestState16get_account_codeB5cxx11ERKN4evmc7addressE
FN:31,_ZN6evmone4test9TestState5applyERKNS_5state9StateDiffE
FN:53,_ZNK6evmone4test9TestState11get_storageERKN4evmc7addressERKNS2_7bytes32E
FN:63,_ZNK6evmone4test15TestBlockHashes14get_block_hashEl
FN:77,_ZN6evmone4test10transitionERNS0_9TestStateERKNS_5state9BlockInfoERKNS3_11BlockHashesERKNS3_11TransactionE13evmc_revisionRN4evmc2VMEll
FN:92,_ZN6evmone4test8finalizeERNS0_9TestStateE13evmc_revisionRKN4evmc7addressESt8optionalImESt4spanIKNS_5state5OmmerELm18446744073709551615EESA_IKNSB_10WithdrawalELm18446744073709551615EE
FN:99,_ZN6evmone4test23system_call_block_startERNS0_9TestStateERKNS_5state9BlockInfoERKNS3_11BlockHashesE13evmc_revisionRN4evmc2VME
FN:107,_ZN6evmone4test21system_call_block_endERNS0_9TestStateERKNS_5state9BlockInfoERKNS3_11BlockHashesE13evmc_revisionRN4evmc2VME
FNDA:3358204,_ZNK6evmone4test9TestState11get_accountERKN4evmc7addressE
FNDA:485978,_ZNK6evmone4test9TestState16get_account_codeB5cxx11ERKN4evmc7addressE
FNDA:476805,_ZN6evmone4test9TestState5applyERKNS_5state9StateDiffE
FNDA:1898720,_ZNK6evmone4test9TestState11get_storageERKN4evmc7addressERKNS2_7bytes32E
FNDA:116706,_ZNK6evmone4test15TestBlockHashes14get_block_hashEl
FNDA:153634,_ZN6evmone4test10transitionERNS0_9TestStateERKNS_5state9BlockInfoERKNS3_11BlockHashesERKNS3_11TransactionE13evmc_revisionRN4evmc2VMEll
FNDA:151924,_ZN6evmone4test8finalizeERNS0_9TestStateE13evmc_revisionRKN4evmc7addressESt8optionalImESt4spanIKNS_5state5OmmerELm18446744073709551615EESA_IKNSB_10WithdrawalELm18446744073709551615EE
FNDA:88969,_ZN6evmone4test23system_call_block_startERNS0_9TestStateERKNS_5state9BlockInfoERKNS3_11BlockHashesE13evmc_revisionRN4evmc2VME
FNDA:88925,_ZN6evmone4test21system_call_block_endERNS0_9TestStateERKNS_5state9BlockInfoERKNS3_11BlockHashesE13evmc_revisionRN4evmc2VME
FNF:9
FNH:9
DA:11,3358204
DA:12,3358204
DA:13,3358204
DA:14,2447363
DA:16,910841
DA:18,910841
DA:19,3358204
DA:22,485978
DA:23,485978
DA:24,485978
DA:25,7
DA:27,485971
DA:28,485978
DA:31,476805
DA:32,476805
DA:33,887850
DA:34,887850
DA:35,887850
DA:36,887850
DA:37,887850
DA:38,49033
DA:39,887850
DA:40,513820
DA:41,513820
DA:42,468755
DA:43,45065
DA:44,45065
DA:45,513820
DA:46,887850
DA:48,476805
DA:49,285795
DA:50,476805
DA:53,1898720
DA:54,1898720
DA:55,1898720
DA:56,290462
DA:57,1608258
DA:58,1608258
DA:59,1608258
DA:60,1898720
DA:63,116706
DA:64,116706
DA:65,116706
DA:69,0
DA:70,0
DA:71,116706
DA:77,153634
DA:78,153634
DA:79,153634
DA:80,153634
DA:81,6631
DA:83,147003
DA:84,147003
DA:85,147003
DA:86,147003
DA:87,153634
DA:92,151924
DA:93,151924
DA:94,151924
DA:95,151924
DA:99,88969
DA:100,88969
DA:101,88969
DA:102,88969
DA:107,88925
DA:108,88925
DA:109,88925
DA:110,16
DA:111,88909
DA:112,88909
DA:113,88925
BRDA:13,0,0,2447363
BRDA:13,0,1,910841
BRDA:24,0,0,7
BRDA:24,0,1,485971
BRDA:32,0,0,887850
BRDA:32,0,1,476805
BRDA:37,0,0,49033
BRDA:37,0,1,838817
BRDA:39,0,0,513820
BRDA:39,0,1,887850
BRDA:41,0,0,468755
BRDA:41,0,1,45065
BRDA:48,0,0,285795
BRDA:48,0,1,476805
BRDA:55,0,0,290462
BRDA:55,0,1,1608258
BRDA:59,0,0,149366
BRDA:59,0,1,1458892
BRDA:64,0,0,116706
BRDA:64,0,1,0
BRDA:80,0,0,6631
BRDA:80,0,1,147003
BRDA:109,0,0,16
BRDA:109,0,1,88909
BRF:24
BRH:23
LF:71
LH:69
end_of_record
SF:/home/user/sources/ethereum/evmone/test/state/transaction.cpp
FN:13,_ZN6evmone5state10rlp_encodeB5cxx11ERKNS0_3LogE
FN:18,_ZN6evmone5state10rlp_encodeB5cxx11ERKNS0_11TransactionE
FN:75,_ZN6evmone5state10rlp_encodeB5cxx11ERKNS0_18TransactionReceiptE
FN:97,_ZN6evmone5state10rlp_encodeB5cxx11ERKNS0_13AuthorizationE
FNDA:28427,_ZN6evmone5state10rlp_encodeB5cxx11ERKNS0_3LogE
FNDA:176614,_ZN6evmone5state10rlp_encodeB5cxx11ERKNS0_11TransactionE
FNDA:85935,_ZN6evmone5state10rlp_encodeB5cxx11ERKNS0_18TransactionReceiptE
FNDA:43559,_ZN6evmone5state10rlp_encodeB5cxx11ERKNS0_13AuthorizationE
FNF:4
FNH:4
DA:13,28427
DA:14,28427
DA:15,28427
DA:18,176614
DA:19,176614
DA:22,176614
DA:23,144594
DA:25,144594
DA:26,144594
DA:27,144594
DA:28,32020
DA:29,5191
DA:32,5191
DA:33,5191
DA:34,5191
DA:35,5191
DA:36,5191
DA:37,5191
DA:38,26829
DA:39,5314
DA:43,5314
DA:44,5314
DA:45,5314
DA:46,5314
DA:47,5314
DA:48,5314
DA:49,21515
DA:50,18910
DA:54,18910
DA:55,18910
DA:56,18910
DA:57,18910
DA:58,18910
DA:59,18910
DA:60,2605
DA:61,2605
DA:62,2605
DA:66,2605
DA:67,2605
DA:68,2605
DA:69,2605
DA:70,2605
DA:71,2605
DA:72,176614
DA:75,85935
DA:76,85935
DA:77,1942
DA:78,1942
DA:80,1942
DA:81,1942
DA:82,1942
DA:83,1942
DA:84,83993
DA:85,83993
DA:86,83993
DA:87,70239
DA:88,83993
DA:90,83993
DA:91,83993
DA:92,83993
DA:93,83993
DA:94,85935
DA:97,43559
DA:98,43559
DA:99,43559
DA:100,43559
BRDA:22,0,0,144594
BRDA:22,0,1,32020
BRDA:26,0,0,106215
BRDA:26,0,1,38379
BRDA:28,0,0,5191
BRDA:28,0,1,26829
BRDA:35,0,0,4681
BRDA:35,0,1,510
BRDA:38,0,0,5314
BRDA:38,0,1,21515
BRDA:46,0,0,5030
BRDA:46,0,1,284
BRDA:49,0,0,18910
BRDA:49,0,1,2605
BRDA:57,0,0,18907
BRDA:57,0,1,3
BRDA:69,0,0,2603
BRDA:69,0,1,2
BRDA:76,0,0,1942
BRDA:76,0,1,83993
BRDA:86,0,0,70239
BRDA:86,0,1,13754
BRF:22
BRH:22
LF:66
LH:66
end_of_record
SF:/home/user/sources/ethereum/evmone/test/state/transaction.hpp
FN:64,_ZNK6evmone5state11Transaction13blob_gas_usedEv
FNDA:125403,_ZNK6evmone5state11Transaction13blob_gas_usedEv
FNF:1
FNH:1
DA:64,125403
BRF:0
BRH:0
LF:1
LH:1
end_of_record
SF:/home/user/sources/ethereum/evmone/test/statetest/statetest.cpp
FN:111,main
FN:79,statetest.cpp:_ZN12_GLOBAL__N_119register_test_filesERKNSt10filesystem7__cxx114pathERKSt8optionalINSt7__cxx1112basic_stringIcSt11char_traitsIcESaIcEEEERN4evmc2VMEb
FN:84,statetest.cpp:_ZZN12_GLOBAL__N_119register_test_filesERKNSt10filesystem7__cxx114pathERKSt8optionalINSt7__cxx1112basic_stringIcSt11char_traitsIcESaIcEEEERN4evmc2VMEbENK3$_0clERKNS1_15directory_entryE
FN:44,statetest.cpp:_ZN12_GLOBAL__N_113StateTestFile12register_oneERKNSt7__cxx1112basic_stringIcSt11char_traitsIcESaIcEEERKNSt10filesystem7__cxx114pathERKSt8optionalIS6_ERN4evmc2VMEb
FN:46,statetest.cpp:_ZZN12_GLOBAL__N_113StateTestFile12register_oneERKNSt7__cxx1112basic_stringIcSt11char_traitsIcESaIcEEERKNSt10filesystem7__cxx114pathERKSt8optionalIS6_ERN4evmc2VMEbENKUlvE_clEv
FN:27,statetest.cpp:_ZN12_GLOBAL__N_113StateTestFileC2ENSt10filesystem7__cxx114pathERKSt8optionalINSt7__cxx1112basic_stringIcSt11char_traitsIcESaIcEEEERN4evmc2VMEb
FN:31,statetest.cpp:_ZN12_GLOBAL__N_113StateTestFile8TestBodyEv
FN:70,statetest.cpp:_ZN12_GLOBAL__N_19StateTest12register_oneERKN6evmone4test19StateTransitionTestERKNSt7__cxx1112basic_stringIcSt11char_traitsIcESaIcEEESD_RKNSt10filesystem7__cxx114pathERN4evmc2VMEb
FN:73,statetest.cpp:_ZZN12_GLOBAL__N_19StateTest12register_oneERKN6evmone4test19StateTransitionTestERKNSt7__cxx1112basic_stringIcSt11char_traitsIcESaIcEEESD_RKNSt10filesystem7__cxx114pathERN4evmc2VMEbENKUlvE_clEv
FN:62,statetest.cpp:_ZN12_GLOBAL__N_19StateTestC2EN6evmone4test19StateTransitionTestERN4evmc2VMEb
FN:65,statetest.cpp:_ZN12_GLOBAL__N_19StateTest8TestBodyEv
FNDA:1,main
FNDA:1,statetest.cpp:_ZN12_GLOBAL__N_119register_test_filesERKNSt10filesystem7__cxx114pathERKSt8optionalINSt7__cxx1112basic_stringIcSt11char_traitsIcESaIcEEEERN4evmc2VMEb
FNDA:2831,statetest.cpp:_ZZN12_GLOBAL__N_119register_test_filesERKNSt10filesystem7__cxx114pathERKSt8optionalINSt7__cxx1112basic_stringIcSt11char_traitsIcESaIcEEEERN4evmc2VMEbENK3$_0clERKNS1_15directory_entryE
FNDA:2715,statetest.cpp:_ZN12_GLOBAL__N_113StateTestFile12register_oneERKNSt7__cxx1112basic_stringIcSt11char_traitsIcESaIcEEERKNSt10filesystem7__cxx114pathERKSt8optionalIS6_ERN4evmc2VMEb
FNDA:2715,statetest.cpp:_ZZN12_GLOBAL__N_113StateTestFile12register_oneERKNSt7__cxx1112basic_stringIcSt11char_traitsIcESaIcEEERKNSt10filesystem7__cxx114pathERKSt8optionalIS6_ERN4evmc2VMEbENKUlvE_clEv
FNDA:2715,statetest.cpp:_ZN12_GLOBAL__N_113StateTestFileC2ENSt10filesystem7__cxx114pathERKSt8optionalINSt7__cxx1112basic_stringIcSt11char_traitsIcESaIcEEEERN4evmc2VMEb
FNDA:2715,statetest.cpp:_ZN12_GLOBAL__N_113StateTestFile8TestBodyEv
FNDA:0,statetest.cpp:_ZN12_GLOBAL__N_19StateTest12register_oneERKN6evmone4test19StateTransitionTestERKNSt7__cxx1112basic_stringIcSt11char_traitsIcESaIcEEESD_RKNSt10filesystem7__cxx114pathERN4evmc2VMEb
FNDA:0,statetest.cpp:_ZZN12_GLOBAL__N_19StateTest12register_oneERKN6evmone4test19StateTransitionTestERKNSt7__cxx1112basic_stringIcSt11char_traitsIcESaIcEEESD_RKNSt10filesystem7__cxx114pathERN4evmc2VMEbENKUlvE_clEv
FNDA:0,statetest.cpp:_ZN12_GLOBAL__N_19StateTestC2EN6evmone4test19StateTransitionTestERN4evmc2VMEb
FNDA:0,statetest.cpp:_ZN12_GLOBAL__N_19StateTest8TestBodyEv
FNF:11
FNH:7
DA:27,2715
DA:28,2715
DA:31,2715
DA:32,2715
DA:33,2715
DA:34,2715
DA:35,62955
DA:36,62955
DA:37,0
DA:38,62955
DA:39,62955
DA:40,2715
DA:44,2715
DA:45,2715
DA:46,2715
DA:47,2715
DA:48,2715
DA:49,2715
DA:62,0
DA:63,0
DA:65,0
DA:70,0
DA:71,0
DA:72,0
DA:73,0
DA:74,0
DA:79,1
DA:80,1
DA:81,1
DA:82,1
DA:83,1
DA:84,2831
DA:86,2831
DA:87,2831
DA:88,2831
DA:89,1
DA:91,1
DA:92,2715
DA:93,2715
DA:94,1
DA:95,0
DA:96,0
DA:97,0
DA:98,0
DA:99,0
DA:100,0
DA:101,0
DA:102,0
DA:103,0
DA:104,0
DA:105,0
DA:106,1
DA:111,1
DA:113,1
DA:114,1
DA:116,1
DA:117,1
DA:118,1
DA:119,1
DA:120,1
DA:121,1
DA:123,1
DA:124,1
DA:125,1
DA:127,1
DA:129,1
DA:131,1
DA:132,1
DA:133,1
DA:134,1
DA:135,1
DA:136,1
DA:137,1
DA:139,1
DA:140,1
DA:141,1
DA:143,1
DA:144,1
DA:145,1
DA:146,1
DA:147,1
DA:149,1
DA:151,1
DA:153,1
DA:154,0
DA:155,0
DA:156,0
DA:157,0
DA:159,1
DA:160,1
DA:162,1
DA:163,1
DA:164,1
DA:165,1
DA:166,0
DA:167,0
DA:168,0
DA:169,1
BRDA:34,0,0,62955
BRDA:34,0,1,2715
BRDA:36,0,0,0
BRDA:36,0,1,62955
BRDA:36,1,2,-
BRDA:36,1,3,-
BRDA:80,0,0,1
BRDA:80,0,1,0
BRDA:86,0,0,2715
BRDA:86,0,1,116
BRDA:86,1,2,2715
BRDA:86,1,3,0
BRDA:87,0,0,2715
BRDA:87,0,1,0
BRDA:91,0,0,2715
BRDA:91,0,1,1
BRDA:99,0,0,-
BRDA:99,0,1,-
BRDA:101,0,0,-
BRDA:101,0,1,-
BRDA:101,1,2,-
BRDA:101,1,3,-
BRDA:153,0,0,0
BRDA:153,0,1,1
BRDA:159,0,0,1
BRDA:159,0,1,1
BRDA:160,0,0,0
BRDA:160,0,1,1
BRDA:160,1,2,0
BRDA:160,1,3,1
BRF:30
BRH:15
LF:106
LH:78
end_of_record
SF:/home/user/sources/ethereum/evmone/test/statetest/statetest.hpp
FN:33,_ZNK6evmone4test20TestMultiTransaction3getERKNS1_7IndexesE
FN:146,_ZN6evmone4test5hex0xB5cxx11ERKN4intx4uintILj256EEE
FN:152,_ZN6evmone4test5hex0xB5cxx11ERKSt17basic_string_viewIhN4evmc11byte_traitsIhEEE
FN:158,_ZlsRSoRKN4evmc7addressE
FN:163,_ZlsRSoRKN4evmc7bytes32E
FNDA:62955,_ZNK6evmone4test20TestMultiTransaction3getERKNS1_7IndexesE
FNDA:0,_ZN6evmone4test5hex0xB5cxx11ERKN4intx4uintILj256EEE
FNDA:0,_ZN6evmone4test5hex0xB5cxx11ERKSt17basic_string_viewIhN4evmc11byte_traitsIhEEE
FNDA:0,_ZlsRSoRKN4evmc7addressE
FNDA:0,_ZlsRSoRKN4evmc7bytes32E
FNF:5
FNH:1
DA:33,62955
DA:34,62955
DA:35,62955
DA:36,9347
DA:37,62955
DA:38,62955
DA:39,62955
DA:40,62955
DA:41,62955
DA:146,0
DA:147,0
DA:148,0
DA:152,0
DA:153,0
DA:154,0
DA:158,0
DA:159,0
DA:160,0
DA:163,0
DA:164,0
DA:165,0
BRDA:35,0,0,9347
BRDA:35,0,1,53608
BRF:2
BRH:2
LF:21
LH:9
end_of_record
SF:/home/user/sources/ethereum/evmone/test/statetest/statetest_loader.cpp
FN:31,_ZN6evmone4test9from_jsonIhEET_RKN8nlohmann16json_abi_v3_12_010basic_jsonISt3mapSt6vectorNSt7__cxx1112basic_stringIcSt11char_traitsIcESaIcEEEblmdSaNS4_14adl_serializerES7_IhSaIhEEvEE
FN:41,_ZN6evmone4test9from_jsonItEET_RKN8nlohmann16json_abi_v3_12_010basic_jsonISt3mapSt6vectorNSt7__cxx1112basic_stringIcSt11char_traitsIcESaIcEEEblmdSaNS4_14adl_serializerES7_IhSaIhEEvEE
FN:51,_ZN6evmone4test9from_jsonIjEET_RKN8nlohmann16json_abi_v3_12_010basic_jsonISt3mapSt6vectorNSt7__cxx1112basic_stringIcSt11char_traitsIcESaIcEEEblmdSaNS4_14adl_serializerES7_IhSaIhEEvEE
FN:82,_ZN6evmone4test9from_jsonIlEET_RKN8nlohmann16json_abi_v3_12_010basic_jsonISt3mapSt6vectorNSt7__cxx1112basic_stringIcSt11char_traitsIcESaIcEEEblmdSaNS4_14adl_serializerES7_IhSaIhEEvEE
FN:91,_ZN6evmone4test9from_jsonImEET_RKN8nlohmann16json_abi_v3_12_010basic_jsonISt3mapSt6vectorNSt7__cxx1112basic_stringIcSt11char_traitsIcESaIcEEEblmdSaNS4_14adl_serializerES7_IhSaIhEEvEE
FN:100,_ZN6evmone4test9from_jsonINSt7__cxx1112basic_stringIhN4evmc11byte_traitsIhEESaIhEEEEET_RKN8nlohmann16json_abi_v3_12_010basic_jsonISt3mapSt6vectorNS3_IcSt11char_traitsIcESaIcEEEblmdSaNSB_14adl_serializerESE_IhS7_EvEE
FN:106,_ZN6evmone4test9from_jsonIN4evmc7addressEEET_RKN8nlohmann16json_abi_v3_12_010basic_jsonISt3mapSt6vectorNSt7__cxx1112basic_stringIcSt11char_traitsIcESaIcEEEblmdSaNS6_14adl_serializerES9_IhSaIhEEvEE
FN:115,_ZN6evmone4test9from_jsonIN4evmc7bytes32EEET_RKN8nlohmann16json_abi_v3_12_010basic_jsonISt3mapSt6vectorNSt7__cxx1112basic_stringIcSt11char_traitsIcESaIcEEEblmdSaNS6_14adl_serializerES9_IhSaIhEEvEE
FN:128,_ZN6evmone4test9from_jsonIN4intx4uintILj256EEEEET_RKN8nlohmann16json_abi_v3_12_010basic_jsonISt3mapSt6vectorNSt7__cxx1112basic_stringIcSt11char_traitsIcESaIcEEEblmdSaNS7_14adl_serializerESA_IhSaIhEEvEE
FN:137,_ZN6evmone4test9from_jsonISt6vectorISt4pairIN4evmc7addressES2_INS4_7bytes32ESaIS6_EEESaIS9_EEEET_RKN8nlohmann16json_abi_v3_12_010basic_jsonISt3mapS2_NSt7__cxx1112basic_stringIcSt11char_traitsIcESaIcEEEblmdSaNSE_14adl_serializerES2_IhSaIhEEvEE
FN:151,_ZN6evmone4test9from_jsonISt6vectorINS_5state13AuthorizationESaIS4_EEEET_RKN8nlohmann16json_abi_v3_12_010basic_jsonISt3mapS2_NSt7__cxx1112basic_stringIcSt11char_traitsIcESaIcEEEblmdSaNS9_14adl_serializerES2_IhSaIhEEvEE
FN:171,_ZN6evmone4test9from_jsonINS_5state10BlobParamsEEET_RKN8nlohmann16json_abi_v3_12_010basic_jsonISt3mapSt6vectorNSt7__cxx1112basic_stringIcSt11char_traitsIcESaIcEEEblmdSaNS6_14adl_serializerES9_IhSaIhEEvEE
FN:182,_ZN6evmone4test9from_jsonISt13unordered_mapINSt7__cxx1112basic_stringIcSt11char_traitsIcESaIcEEENS_5state10BlobParamsESt4hashIS8_ESt8equal_toIS8_ESaISt4pairIKS8_SA_EEEEET_RKN8nlohmann16json_abi_v3_12_010basic_jsonISt3mapSt6vectorS8_blmdSaNSM_14adl_serializerESP_IhSaIhEEvEE
FN:233,_ZN6evmone4test9from_jsonINS_5state10WithdrawalEEET_RKN8nlohmann16json_abi_v3_12_010basic_jsonISt3mapSt6vectorNSt7__cxx1112basic_stringIcSt11char_traitsIcESaIcEEEblmdSaNS6_14adl_serializerES9_IhSaIhEEvEE
FN:240,_ZN6evmone4test18from_json_with_revERKN8nlohmann16json_abi_v3_12_010basic_jsonISt3mapSt6vectorNSt7__cxx1112basic_stringIcSt11char_traitsIcESaIcEEEblmdSaNS2_14adl_serializerES5_IhSaIhEEvEE13evmc_revisionNS_5state10BlobParamsE
FN:336,_ZN6evmone4test9from_jsonINS0_15TestBlockHashesEEET_RKN8nlohmann16json_abi_v3_12_010basic_jsonISt3mapSt6vectorNSt7__cxx1112basic_stringIcSt11char_traitsIcESaIcEEEblmdSaNS5_14adl_serializerES8_IhSaIhEEvEE
FN:348,_ZN6evmone4test9from_jsonINS0_9TestStateEEET_RKN8nlohmann16json_abi_v3_12_010basic_jsonISt3mapSt6vectorNSt7__cxx1112basic_stringIcSt11char_traitsIcESaIcEEEblmdSaNS5_14adl_serializerES8_IhSaIhEEvEE
FN:424,_ZN6evmone4test9from_jsonINS_5state11TransactionEEET_RKN8nlohmann16json_abi_v3_12_010basic_jsonISt3mapSt6vectorNSt7__cxx1112basic_stringIcSt11char_traitsIcESaIcEEEblmdSaNS6_14adl_serializerES9_IhSaIhEEvEE
FN:549,_ZN6evmone4test16load_state_testsERSi
FN:554,_ZN6evmone4test14validate_stateERKNS0_9TestStateE13evmc_revision
FN:195,statetest_loader.cpp:_ZN6evmone4testL34calculate_current_base_fee_eip1559Emmm
FN:372,statetest_loader.cpp:_ZN6evmone4testL19from_json_tx_commonERKN8nlohmann16json_abi_v3_12_010basic_jsonISt3mapSt6vectorNSt7__cxx1112basic_stringIcSt11char_traitsIcESaIcEEEblmdSaNS2_14adl_serializerES5_IhSaIhEEvEERNS_5state11TransactionE
FN:22,statetest_loader.cpp:_ZN6evmone4test12_GLOBAL__N_114load_if_existsIN4evmc7addressEEET_RKN8nlohmann16json_abi_v3_12_010basic_jsonISt3mapSt6vectorNSt7__cxx1112basic_stringIcSt11char_traitsIcESaIcEEEblmdSaNS7_14adl_serializerESA_IhSaIhEEvEESt17basic_string_viewIcSE_E
FN:539,statetest_loader.cpp:_ZN6evmone4testL9from_jsonERKN8nlohmann16json_abi_v3_12_010basic_jsonISt3mapSt6vectorNSt7__cxx1112basic_stringIcSt11char_traitsIcESaIcEEEblmdSaNS2_14adl_serializerES5_IhSaIhEEvEERS5_INS0_19StateTransitionTestESaISI_EE
FN:502,statetest_loader.cpp:_ZN6evmone4testL9from_jsonERKN8nlohmann16json_abi_v3_12_010basic_jsonISt3mapSt6vectorNSt7__cxx1112basic_stringIcSt11char_traitsIcESaIcEEEblmdSaNS2_14adl_serializerES5_IhSaIhEEvEERNS0_19StateTransitionTestE
FN:465,statetest_loader.cpp:_ZN6evmone4testL9from_jsonERKN8nlohmann16json_abi_v3_12_010basic_jsonISt3mapSt6vectorNSt7__cxx1112basic_stringIcSt11char_traitsIcESaIcEEEblmdSaNS2_14adl_serializerES5_IhSaIhEEvEERNS0_20TestMultiTransactionE
FN:494,statetest_loader.cpp:_ZN6evmone4testL9from_jsonERKN8nlohmann16json_abi_v3_12_010basic_jsonISt3mapSt6vectorNSt7__cxx1112basic_stringIcSt11char_traitsIcESaIcEEEblmdSaNS2_14adl_serializerES5_IhSaIhEEvEERNS0_19StateTransitionTest4Case11ExpectationE
FN:487,statetest_loader.cpp:_ZN6evmone4testL9from_jsonERKN8nlohmann16json_abi_v3_12_010basic_jsonISt3mapSt6vectorNSt7__cxx1112basic_stringIcSt11char_traitsIcESaIcEEEblmdSaNS2_14adl_serializerES5_IhSaIhEEvEERNS0_20TestMultiTransaction7IndexesE
FN:61,statetest_loader.cpp:_ZN6evmone4testL17integer_from_jsonIlEESt8optionalIT_ERKN8nlohmann16json_abi_v3_12_010basic_jsonISt3mapSt6vectorNSt7__cxx1112basic_stringIcSt11char_traitsIcESaIcEEEblmdSaNS6_14adl_serializerES9_IhSaIhEEvEE
FN:61,statetest_loader.cpp:_ZN6evmone4testL17integer_from_jsonImEESt8optionalIT_ERKN8nlohmann16json_abi_v3_12_010basic_jsonISt3mapSt6vectorNSt7__cxx1112basic_stringIcSt11char_traitsIcESaIcEEEblmdSaNS6_14adl_serializerES9_IhSaIhEEvEE
FN:22,statetest_loader.cpp:_ZN6evmone4test12_GLOBAL__N_114load_if_existsIN4evmc7bytes32EEET_RKN8nlohmann16json_abi_v3_12_010basic_jsonISt3mapSt6vectorNSt7__cxx1112basic_stringIcSt11char_traitsIcESaIcEEEblmdSaNS7_14adl_serializerESA_IhSaIhEEvEESt17basic_string_viewIcSE_E
FN:22,statetest_loader.cpp:_ZN6evmone4test12_GLOBAL__N_114load_if_existsImEET_RKN8nlohmann16json_abi_v3_12_010basic_jsonISt3mapSt6vectorNSt7__cxx1112basic_stringIcSt11char_traitsIcESaIcEEEblmdSaNS5_14adl_serializerES8_IhSaIhEEvEESt17basic_string_viewIcSC_E
FNDA:277653,_ZN6evmone4test9from_jsonIhEET_RKN8nlohmann16json_abi_v3_12_010basic_jsonISt3mapSt6vectorNSt7__cxx1112basic_stringIcSt11char_traitsIcESaIcEEEblmdSaNS4_14adl_serializerES7_IhSaIhEEvEE
FNDA:472422,_ZN6evmone4test9from_jsonItEET_RKN8nlohmann16json_abi_v3_12_010basic_jsonISt3mapSt6vectorNSt7__cxx1112basic_stringIcSt11char_traitsIcESaIcEEEblmdSaNS4_14adl_serializerES7_IhSaIhEEvEE
FNDA:236211,_ZN6evmone4test9from_jsonIjEET_RKN8nlohmann16json_abi_v3_12_010basic_jsonISt3mapSt6vectorNSt7__cxx1112basic_stringIcSt11char_traitsIcESaIcEEEblmdSaNS4_14adl_serializerES7_IhSaIhEEvEE
FNDA:1202141,_ZN6evmone4test9from_jsonIlEET_RKN8nlohmann16json_abi_v3_12_010basic_jsonISt3mapSt6vectorNSt7__cxx1112basic_stringIcSt11char_traitsIcESaIcEEEblmdSaNS4_14adl_serializerES7_IhSaIhEEvEE
FNDA:2866806,_ZN6evmone4test9from_jsonImEET_RKN8nlohmann16json_abi_v3_12_010basic_jsonISt3mapSt6vectorNSt7__cxx1112basic_stringIcSt11char_traitsIcESaIcEEEblmdSaNS4_14adl_serializerES7_IhSaIhEEvEE
FNDA:2609794,_ZN6evmone4test9from_jsonINSt7__cxx1112basic_stringIhN4evmc11byte_traitsIhEESaIhEEEEET_RKN8nlohmann16json_abi_v3_12_010basic_jsonISt3mapSt6vectorNS3_IcSt11char_traitsIcESaIcEEEblmdSaNSB_14adl_serializerESE_IhS7_EvEE
FNDA:2816533,_ZN6evmone4test9from_jsonIN4evmc7addressEEET_RKN8nlohmann16json_abi_v3_12_010basic_jsonISt3mapSt6vectorNSt7__cxx1112basic_stringIcSt11char_traitsIcESaIcEEEblmdSaNS6_14adl_serializerES9_IhSaIhEEvEE
FNDA:9459496,_ZN6evmone4test9from_jsonIN4evmc7bytes32EEET_RKN8nlohmann16json_abi_v3_12_010basic_jsonISt3mapSt6vectorNSt7__cxx1112basic_stringIcSt11char_traitsIcESaIcEEEblmdSaNS6_14adl_serializerES9_IhSaIhEEvEE
FNDA:2776825,_ZN6evmone4test9from_jsonIN4intx4uintILj256EEEEET_RKN8nlohmann16json_abi_v3_12_010basic_jsonISt3mapSt6vectorNSt7__cxx1112basic_stringIcSt11char_traitsIcESaIcEEEblmdSaNS7_14adl_serializerESA_IhSaIhEEvEE
FNDA:29485,_ZN6evmone4test9from_jsonISt6vectorISt4pairIN4evmc7addressES2_INS4_7bytes32ESaIS6_EEESaIS9_EEEET_RKN8nlohmann16json_abi_v3_12_010basic_jsonISt3mapS2_NSt7__cxx1112basic_stringIcSt11char_traitsIcESaIcEEEblmdSaNSE_14adl_serializerES2_IhSaIhEEvEE
FNDA:2611,_ZN6evmone4test9from_jsonISt6vectorINS_5state13AuthorizationESaIS4_EEEET_RKN8nlohmann16json_abi_v3_12_010basic_jsonISt3mapS2_NSt7__cxx1112basic_stringIcSt11char_traitsIcESaIcEEEblmdSaNS9_14adl_serializerES2_IhSaIhEEvEE
FNDA:236211,_ZN6evmone4test9from_jsonINS_5state10BlobParamsEEET_RKN8nlohmann16json_abi_v3_12_010basic_jsonISt3mapSt6vectorNSt7__cxx1112basic_stringIcSt11char_traitsIcESaIcEEEblmdSaNS6_14adl_serializerES9_IhSaIhEEvEE
FNDA:114654,_ZN6evmone4test9from_jsonISt13unordered_mapINSt7__cxx1112basic_stringIcSt11char_traitsIcESaIcEEENS_5state10BlobParamsESt4hashIS8_ESt8equal_toIS8_ESaISt4pairIKS8_SA_EEEEET_RKN8nlohmann16json_abi_v3_12_010basic_jsonISt3mapSt6vectorS8_blmdSaNSM_14adl_serializerESP_IhSaIhEEvEE
FNDA:4168,_ZN6evmone4test9from_jsonINS_5state10WithdrawalEEET_RKN8nlohmann16json_abi_v3_12_010basic_jsonISt3mapSt6vectorNSt7__cxx1112basic_stringIcSt11char_traitsIcESaIcEEEblmdSaNS6_14adl_serializerES9_IhSaIhEEvEE
FNDA:62955,_ZN6evmone4test18from_json_with_revERKN8nlohmann16json_abi_v3_12_010basic_jsonISt3mapSt6vectorNSt7__cxx1112basic_stringIcSt11char_traitsIcESaIcEEEblmdSaNS2_14adl_serializerES5_IhSaIhEEvEE13evmc_revisionNS_5state10BlobParamsE
FNDA:62955,_ZN6evmone4test9from_jsonINS0_15TestBlockHashesEEET_RKN8nlohmann16json_abi_v3_12_010basic_jsonISt3mapSt6vectorNSt7__cxx1112basic_stringIcSt11char_traitsIcESaIcEEEblmdSaNS5_14adl_serializerES8_IhSaIhEEvEE
FNDA:200283,_ZN6evmone4test9from_jsonINS0_9TestStateEEET_RKN8nlohmann16json_abi_v3_12_010basic_jsonISt3mapSt6vectorNSt7__cxx1112basic_stringIcSt11char_traitsIcESaIcEEEblmdSaNS5_14adl_serializerES8_IhSaIhEEvEE
FNDA:92551,_ZN6evmone4test9from_jsonINS_5state11TransactionEEET_RKN8nlohmann16json_abi_v3_12_010basic_jsonISt3mapSt6vectorNSt7__cxx1112basic_stringIcSt11char_traitsIcESaIcEEEblmdSaNS6_14adl_serializerES9_IhSaIhEEvEE
FNDA:2715,_ZN6evmone4test16load_state_testsERSi
FNDA:62955,_ZN6evmone4test14validate_stateERKNS0_9TestStateE13evmc_revision
FNDA:0,statetest_loader.cpp:_ZN6evmone4testL34calculate_current_base_fee_eip1559Emmm
FNDA:155506,statetest_loader.cpp:_ZN6evmone4testL19from_json_tx_commonERKN8nlohmann16json_abi_v3_12_010basic_jsonISt3mapSt6vectorNSt7__cxx1112basic_stringIcSt11char_traitsIcESaIcEEEblmdSaNS2_14adl_serializerES5_IhSaIhEEvEERNS_5state11TransactionE
FNDA:155506,statetest_loader.cpp:_ZN6evmone4test12_GLOBAL__N_114load_if_existsIN4evmc7addressEEET_RKN8nlohmann16json_abi_v3_12_010basic_jsonISt3mapSt6vectorNSt7__cxx1112basic_stringIcSt11char_traitsIcESaIcEEEblmdSaNS7_14adl_serializerESA_IhSaIhEEvEESt17basic_string_viewIcSE_E
FNDA:2715,statetest_loader.cpp:_ZN6evmone4testL9from_jsonERKN8nlohmann16json_abi_v3_12_010basic_jsonISt3mapSt6vectorNSt7__cxx1112basic_stringIcSt11char_traitsIcESaIcEEEblmdSaNS2_14adl_serializerES5_IhSaIhEEvEERS5_INS0_19StateTransitionTestESaISI_EE
FNDA:62955,statetest_loader.cpp:_ZN6evmone4testL9from_jsonERKN8nlohmann16json_abi_v3_12_010basic_jsonISt3mapSt6vectorNSt7__cxx1112basic_stringIcSt11char_traitsIcESaIcEEEblmdSaNS2_14adl_serializerES5_IhSaIhEEvEERNS0_19StateTransitionTestE
FNDA:62955,statetest_loader.cpp:_ZN6evmone4testL9from_jsonERKN8nlohmann16json_abi_v3_12_010basic_jsonISt3mapSt6vectorNSt7__cxx1112basic_stringIcSt11char_traitsIcESaIcEEEblmdSaNS2_14adl_serializerES5_IhSaIhEEvEERNS0_20TestMultiTransactionE
FNDA:62955,statetest_loader.cpp:_ZN6evmone4testL9from_jsonERKN8nlohmann16json_abi_v3_12_010basic_jsonISt3mapSt6vectorNSt7__cxx1112basic_stringIcSt11char_traitsIcESaIcEEEblmdSaNS2_14adl_serializerES5_IhSaIhEEvEERNS0_19StateTransitionTest4Case11ExpectationE
FNDA:62955,statetest_loader.cpp:_ZN6evmone4testL9from_jsonERKN8nlohmann16json_abi_v3_12_010basic_jsonISt3mapSt6vectorNSt7__cxx1112basic_stringIcSt11char_traitsIcESaIcEEEblmdSaNS2_14adl_serializerES5_IhSaIhEEvEERNS0_20TestMultiTransaction7IndexesE
FNDA:1202141,statetest_loader.cpp:_ZN6evmone4testL17integer_from_jsonIlEESt8optionalIT_ERKN8nlohmann16json_abi_v3_12_010basic_jsonISt3mapSt6vectorNSt7__cxx1112basic_stringIcSt11char_traitsIcESaIcEEEblmdSaNS6_14adl_serializerES9_IhSaIhEEvEE
FNDA:2866806,statetest_loader.cpp:_ZN6evmone4testL17integer_from_jsonImEESt8optionalIT_ERKN8nlohmann16json_abi_v3_12_010basic_jsonISt3mapSt6vectorNSt7__cxx1112basic_stringIcSt11char_traitsIcESaIcEEEblmdSaNS6_14adl_serializerES9_IhSaIhEEvEE
FNDA:62955,statetest_loader.cpp:_ZN6evmone4test12_GLOBAL__N_114load_if_existsIN4evmc7bytes32EEET_RKN8nlohmann16json_abi_v3_12_010basic_jsonISt3mapSt6vectorNSt7__cxx1112basic_stringIcSt11char_traitsIcESaIcEEEblmdSaNS7_14adl_serializerESA_IhSaIhEEvEESt17basic_string_viewIcSE_E
FNDA:62955,statetest_loader.cpp:_ZN6evmone4test12_GLOBAL__N_114load_if_existsImEET_RKN8nlohmann16json_abi_v3_12_010basic_jsonISt3mapSt6vectorNSt7__cxx1112basic_stringIcSt11char_traitsIcESaIcEEEblmdSaNS5_14adl_serializerES8_IhSaIhEEvEESt17basic_string_viewIcSC_E
FNF:29
FNH:28
DA:22,281416
DA:23,281416
DA:24,155506
DA:25,125910
DA:26,281416
DA:31,277653
DA:32,277653
DA:33,277653
DA:34,0
DA:36,277653
DA:37,277653
DA:41,472422
DA:42,472422
DA:43,472422
DA:44,0
DA:46,472422
DA:47,472422
DA:51,236211
DA:52,236211
DA:53,236211
DA:54,0
DA:56,236211
DA:57,236211
DA:61,4068947
DA:62,4068947
DA:63,0
DA:65,4068947
DA:66,0
DA:68,4068947
DA:73,4068947
DA:74,4068947
DA:75,4068947
DA:76,0
DA:77,4068947
DA:78,4068947
DA:82,1202141
DA:83,1202141
DA:84,1202141
DA:85,0
DA:86,1202141
DA:87,1202141
DA:91,2866806
DA:92,2866806
DA:93,2866806
DA:94,0
DA:95,2866806
DA:96,2866806
DA:100,2609794
DA:101,2609794
DA:102,2609794
DA:106,2816533
DA:107,2816533
DA:108,2816533
DA:109,0
DA:110,2816533
DA:111,2816533
DA:115,9459496
DA:116,9459496
DA:117,9459496
DA:118,0
DA:120,9459496
DA:121,9459496
DA:122,0
DA:123,9459496
DA:124,9459496
DA:128,2776825
DA:129,2776825
DA:130,2776825
DA:131,0
DA:132,2776825
DA:133,2776825
DA:137,29485
DA:138,29485
DA:139,29485
DA:140,174664
DA:141,174664
DA:142,174664
DA:143,150635
DA:144,174664
DA:145,174664
DA:146,29485
DA:147,29485
DA:151,2611
DA:152,2611
DA:153,2611
DA:154,49080
DA:155,49080
DA:156,49080
DA:157,49080
DA:158,49080
DA:159,49080
DA:160,49012
DA:161,49080
DA:162,49080
DA:163,49080
DA:164,49080
DA:165,49080
DA:166,2611
DA:167,2611
DA:171,236211
DA:172,236211
DA:173,236211
DA:174,236211
DA:175,236211
DA:176,236211
DA:177,236211
DA:178,236211
DA:182,114654
DA:183,114654
DA:184,114654
DA:185,114654
DA:186,236211
DA:187,236211
DA:188,236211
DA:189,114654
DA:190,114654
DA:195,0
DA:197,0
DA:198,0
DA:200,0
DA:202,0
DA:204,0
DA:205,0
DA:206,0
DA:207,0
DA:208,0
DA:209,0
DA:210,0
DA:211,0
DA:212,0
DA:213,0
DA:214,0
DA:215,0
DA:216,0
DA:218,0
DA:219,0
DA:220,0
DA:222,0
DA:223,0
DA:224,0
DA:225,0
DA:226,0
DA:227,0
DA:228,0
DA:229,0
DA:233,4168
DA:234,4168
DA:235,4168
DA:236,4168
DA:240,62955
DA:241,62955
DA:242,62955
DA:243,62955
DA:244,62955
DA:245,62955
DA:246,62955
DA:248,62955
DA:249,62955
DA:250,62955
DA:251,0
DA:254,62955
DA:255,57790
DA:256,5165
DA:257,5165
DA:258,0
DA:259,0
DA:261,62955
DA:262,62955
DA:263,62955
DA:264,0
DA:266,62955
DA:267,62955
DA:268,59150
DA:269,3805
DA:270,0
DA:271,0
DA:272,0
DA:273,0
DA:274,0
DA:276,62955
DA:277,62955
DA:278,0
DA:279,0
DA:280,0
DA:281,0
DA:283,62955
DA:284,62955
DA:285,0
DA:286,0
DA:287,0
DA:288,0
DA:289,0
DA:290,0
DA:291,0
DA:293,62955
DA:294,62955
DA:295,62955
DA:296,0
DA:298,62955
DA:299,62955
DA:300,0
DA:301,0
DA:302,0
DA:303,0
DA:304,0
DA:305,0
DA:306,0
DA:307,0
DA:308,0
DA:309,62955
DA:310,54770
DA:311,54770
DA:312,54770
DA:314,62955
DA:315,62955
DA:316,62955
DA:317,62955
DA:318,62955
DA:319,62955
DA:320,62955
DA:321,62955
DA:322,62955
DA:323,62955
DA:324,62955
DA:325,62955
DA:326,62955
DA:327,62955
DA:328,62955
DA:329,62955
DA:330,62955
DA:331,62955
DA:332,62955
DA:336,62955
DA:337,62955
DA:338,62955
DA:339,0
DA:340,0
DA:341,0
DA:342,0
DA:343,62955
DA:344,62955
DA:348,200283
DA:349,200283
DA:350,200283
DA:351,200283
DA:352,2046064
DA:353,2046064
DA:354,2046064
DA:355,2046064
DA:356,2046064
DA:358,2046064
DA:359,2046064
DA:360,2046064
DA:361,3851446
DA:362,3851446
DA:363,3849898
DA:364,3851446
DA:365,2046064
DA:366,2046064
DA:367,200283
DA:368,200283
DA:372,155506
DA:374,155506
DA:375,155506
DA:377,155506
DA:378,92551
DA:379,62955
DA:380,62955
DA:382,155506
DA:383,155506
DA:384,155506
DA:385,116121
DA:386,155506
DA:388,155506
DA:389,132382
DA:390,132382
DA:391,132382
DA:392,132382
DA:393,132382
DA:394,0
DA:395,0
DA:396,0
DA:397,0
DA:398,132382
DA:399,23124
DA:400,23124
DA:401,23124
DA:402,23124
DA:403,23124
DA:404,23124
DA:406,155506
DA:407,15203
DA:409,155506
DA:410,15203
DA:411,15203
DA:412,15203
DA:413,45319
DA:414,15203
DA:415,140303
DA:416,2611
DA:417,2611
DA:418,2611
DA:419,2611
DA:420,155506
DA:424,92551
DA:425,92551
DA:426,92551
DA:428,92551
DA:429,92551
DA:430,0
DA:431,0
DA:433,92551
DA:434,92551
DA:435,0
DA:436,0
DA:438,92551
DA:440,92551
DA:441,20138
DA:442,20138
DA:443,20138
DA:444,3202
DA:445,20138
DA:447,92551
DA:448,92551
DA:449,92551
DA:450,92551
DA:451,92551
DA:452,0
DA:453,0
DA:454,92551
DA:456,92551
DA:457,92551
DA:458,92551
DA:459,92551
DA:461,92551
DA:462,92551
DA:465,62955
DA:466,62955
DA:468,62955
DA:469,62955
DA:471,62955
DA:472,9347
DA:473,9347
DA:474,9347
DA:475,9347
DA:476,3159
DA:477,9347
DA:479,62955
DA:480,62955
DA:482,62955
DA:483,62955
DA:484,62955
DA:487,62955
DA:488,62955
DA:489,62955
DA:490,62955
DA:491,62955
DA:494,62955
DA:495,62955
DA:496,62955
DA:497,62955
DA:498,62955
DA:499,62955
DA:502,62955
DA:503,62955
DA:505,62955
DA:507,62955
DA:509,62955
DA:510,62955
DA:515,62955
DA:516,0
DA:517,0
DA:518,0
DA:519,0
DA:521,62955
DA:523,62955
DA:524,62955
DA:525,62955
DA:526,54770
DA:527,62955
DA:529,62955
DA:530,62955
DA:531,62955
DA:532,62955
DA:533,62955
DA:534,62955
DA:535,62955
DA:536,62955
DA:539,2715
DA:540,2715
DA:541,62955
DA:542,62955
DA:543,62955
DA:544,62955
DA:545,62955
DA:546,2715
DA:549,2715
DA:550,2715
DA:551,2715
DA:554,62955
DA:555,62955
DA:556,448049
DA:557,448049
DA:558,0
DA:560,448049
DA:562,448049
DA:563,448049
DA:564,0
DA:566,448049
DA:567,448049
DA:568,0
DA:570,448049
DA:571,448049
DA:572,0
DA:573,0
DA:574,0
DA:575,0
DA:577,448049
DA:578,308711
DA:579,308711
DA:580,0
DA:581,0
DA:582,0
DA:583,0
DA:584,0
DA:585,308711
DA:586,448049
DA:587,62955
BRDA:23,0,0,0
BRDA:23,0,1,62955
BRDA:23,1,2,0
BRDA:23,1,3,62955
BRDA:23,2,4,155506
BRDA:23,2,5,0
BRDA:33,0,0,0
BRDA:33,0,1,277653
BRDA:43,0,0,0
BRDA:43,0,1,472422
BRDA:53,0,0,0
BRDA:53,0,1,236211
BRDA:62,0,0,0
BRDA:62,0,1,2866806
BRDA:62,1,2,0
BRDA:62,1,3,1202141
BRDA:65,0,0,0
BRDA:65,0,1,2866806
BRDA:65,1,2,0
BRDA:65,1,3,1202141
BRDA:75,0,0,0
BRDA:75,0,1,2866806
BRDA:75,1,2,0
BRDA:75,1,3,1202141
BRDA:75,2,4,0
BRDA:75,2,5,2866806
BRDA:75,3,6,0
BRDA:75,3,7,1202141
BRDA:84,0,0,0
BRDA:84,0,1,1202141
BRDA:93,0,0,0
BRDA:93,0,1,2866806
BRDA:108,0,0,0
BRDA:108,0,1,2816533
BRDA:117,0,0,0
BRDA:117,0,1,9459496
BRDA:117,1,2,0
BRDA:117,1,3,9459496
BRDA:121,0,0,0
BRDA:121,0,1,9459496
BRDA:130,0,0,0
BRDA:130,0,1,2776825
BRDA:139,0,0,174664
BRDA:139,0,1,29485
BRDA:142,0,0,150635
BRDA:142,0,1,174664
BRDA:153,0,0,49080
BRDA:153,0,1,2611
BRDA:159,0,0,49012
BRDA:159,0,1,68
BRDA:185,0,0,236211
BRDA:185,0,1,114654
BRDA:204,0,0,-
BRDA:204,0,1,-
BRDA:206,0,0,-
BRDA:206,0,1,-
BRDA:211,0,0,-
BRDA:211,0,1,-
BRDA:223,0,0,-
BRDA:223,0,1,-
BRDA:248,0,0,62955
BRDA:248,0,1,0
BRDA:250,0,0,0
BRDA:250,0,1,62955
BRDA:254,0,0,57790
BRDA:254,0,1,5165
BRDA:256,0,0,5165
BRDA:256,0,1,0
BRDA:258,0,0,-
BRDA:258,0,1,-
BRDA:263,0,0,0
BRDA:263,0,1,62955
BRDA:267,0,0,59150
BRDA:267,0,1,3805
BRDA:269,0,0,0
BRDA:269,0,1,3805
BRDA:277,0,0,0
BRDA:277,0,1,62955
BRDA:279,0,0,-
BRDA:279,0,1,-
BRDA:284,0,0,0
BRDA:284,0,1,62955
BRDA:286,0,0,-
BRDA:286,0,1,-
BRDA:295,0,0,0
BRDA:295,0,1,62955
BRDA:299,0,0,0
BRDA:299,0,1,62955
BRDA:309,0,0,54770
BRDA:309,0,1,8185
BRDA:338,0,0,0
BRDA:338,0,1,62955
BRDA:340,0,0,-
BRDA:340,0,1,-
BRDA:351,0,0,2046064
BRDA:351,0,1,200283
BRDA:358,0,0,2046064
BRDA:358,0,1,0
BRDA:360,0,0,3851446
BRDA:360,0,1,2046064
BRDA:362,0,0,3849898
BRDA:362,0,1,1548
BRDA:377,0,0,92551
BRDA:377,0,1,62955
BRDA:382,0,0,155506
BRDA:382,0,1,0
BRDA:384,0,0,155506
BRDA:384,0,1,0
BRDA:384,1,2,116121
BRDA:384,1,3,39385
BRDA:384,2,4,116121
BRDA:384,2,5,39385
BRDA:388,0,0,132382
BRDA:388,0,1,23124
BRDA:393,0,0,0
BRDA:393,0,1,132382
BRDA:393,1,2,0
BRDA:393,1,3,132382
BRDA:406,0,0,15203
BRDA:406,0,1,140303
BRDA:409,0,0,15203
BRDA:409,0,1,140303
BRDA:412,0,0,45319
BRDA:412,0,1,15203
BRDA:415,0,0,2611
BRDA:415,0,1,137692
BRDA:428,0,0,92551
BRDA:428,0,1,0
BRDA:433,0,0,92551
BRDA:433,0,1,0
BRDA:440,0,0,20138
BRDA:440,0,1,72413
BRDA:443,0,0,3202
BRDA:443,0,1,16936
BRDA:447,0,0,92551
BRDA:447,0,1,0
BRDA:451,0,0,0
BRDA:451,0,1,92551
BRDA:468,0,0,62955
BRDA:468,0,1,62955
BRDA:471,0,0,9347
BRDA:471,0,1,53608
BRDA:473,0,0,9347
BRDA:473,0,1,9347
BRDA:475,0,0,3159
BRDA:475,0,1,6188
BRDA:479,0,0,62955
BRDA:479,0,1,62955
BRDA:482,0,0,62955
BRDA:482,0,1,62955
BRDA:509,0,0,62955
BRDA:509,0,1,0
BRDA:515,0,0,0
BRDA:515,0,1,62955
BRDA:517,0,0,-
BRDA:517,0,1,-
BRDA:523,0,0,62955
BRDA:523,0,1,0
BRDA:525,0,0,54770
BRDA:525,0,1,8185
BRDA:529,0,0,62955
BRDA:529,0,1,62955
BRDA:540,0,0,62955
BRDA:540,0,1,2715
BRDA:555,0,0,448049
BRDA:555,0,1,62955
BRDA:557,0,0,22284
BRDA:557,0,1,425765
BRDA:557,1,2,0
BRDA:557,1,3,22284
BRDA:560,0,0,294510
BRDA:560,0,1,153539
BRDA:560,1,2,120
BRDA:560,1,3,294390
BRDA:562,0,0,3
BRDA:562,0,1,447926
BRDA:562,1,2,0
BRDA:562,1,3,447926
BRDA:563,0,0,438201
BRDA:563,0,1,9848
BRDA:563,1,2,438078
BRDA:563,1,3,123
BRDA:563,2,4,284579
BRDA:563,2,5,153499
BRDA:563,3,6,0
BRDA:563,3,7,284579
BRDA:566,0,0,435050
BRDA:566,0,1,12999
BRDA:566,1,2,0
BRDA:566,1,3,448049
BRDA:566,2,4,152131
BRDA:566,2,5,282919
BRDA:566,3,6,1188
BRDA:566,3,7,150943
BRDA:566,4,8,0
BRDA:566,4,9,1188
BRDA:567,0,0,-
BRDA:567,0,1,-
BRDA:570,0,0,294510
BRDA:570,0,1,153539
BRDA:570,1,2,120
BRDA:570,1,3,294390
BRDA:571,0,0,0
BRDA:571,0,1,120
BRDA:577,0,0,308711
BRDA:577,0,1,448049
BRDA:579,0,0,0
BRDA:579,0,1,308711
BRF:196
BRH:132
LF:427
LH:325
end_of_record
SF:/home/user/sources/ethereum/evmone/test/statetest/statetest_logs_hash.cpp
FN:11,_ZN6evmone4test9logs_hashERKSt6vectorINS_5state3LogESaIS3_EE
FNDA:62955,_ZN6evmone4test9logs_hashERKSt6vectorINS_5state3LogESaIS3_EE
FNF:1
FNH:1
DA:11,62955
DA:12,62955
DA:13,62955
BRF:0
BRH:0
LF:3
LH:3
end_of_record
SF:/home/user/sources/ethereum/evmone/test/statetest/statetest_runner.cpp
FN:13,_ZN6evmone4test14run_state_testERKNS0_19StateTransitionTestERN4evmc2VMEb
FNDA:62955,_ZN6evmone4test14run_state_testERKNS0_19StateTransitionTestERN4evmc2VMEb
FNF:1
FNH:1
DA:13,62955
DA:14,62955
DA:15,62955
DA:16,62955
DA:17,62955
DA:18,125910
DA:19,62955
DA:20,62955
DA:26,62955
DA:27,62955
DA:28,62955
DA:29,62955
DA:31,62955
DA:32,62955
DA:35,62955
DA:37,62955
DA:39,62955
DA:40,0
DA:41,0
DA:42,0
DA:43,0
DA:44,0
DA:45,0
DA:46,0
DA:47,0
DA:48,0
DA:49,0
DA:50,0
DA:51,0
DA:52,0
DA:54,62955
DA:55,3056
DA:56,6112
DA:57,6112
DA:58,3056
DA:59,3056
DA:60,59899
DA:61,59899
DA:62,119798
DA:63,119798
DA:64,59899
DA:65,59899
DA:67,62955
DA:68,62955
DA:69,62955
DA:70,62955
BRDA:15,0,0,62955
BRDA:15,0,1,62955
BRDA:18,0,0,62955
BRDA:18,0,1,62955
BRDA:39,0,0,0
BRDA:39,0,1,62955
BRDA:42,0,0,-
BRDA:42,0,1,-
BRDA:45,0,0,-
BRDA:45,0,1,-
BRDA:54,0,0,3056
BRDA:54,0,1,59899
BRDA:56,0,0,3056
BRDA:56,0,1,0
BRDA:56,1,2,0
BRDA:56,1,3,3056
BRDA:56,2,4,3056
BRDA:56,2,5,0
BRDA:58,0,0,0
BRDA:58,0,1,3056
BRDA:58,1,2,3056
BRDA:58,1,3,0
BRDA:58,2,4,3056
BRDA:58,2,5,0
BRDA:62,0,0,59899
BRDA:62,0,1,0
BRDA:62,1,2,0
BRDA:62,1,3,59899
BRDA:62,2,4,59899
BRDA:62,2,5,0
BRDA:64,0,0,59899
BRDA:64,0,1,0
BRDA:64,1,2,0
BRDA:64,1,3,59899
BRDA:64,2,4,59899
BRDA:64,2,5,0
BRDA:67,0,0,62955
BRDA:67,0,1,0
BRDA:67,1,2,0
BRDA:67,1,3,62955
BRDA:67,2,4,62955
BRDA:67,2,5,0
BRF:42
BRH:22
LF:46
LH:33
end_of_record
